(dp0
S'./Data/MONRP_50_4_5_4_90.csv'
p1
(dp2
S'evals'
p3
(lp4
I59
asS'igd'
p5
(lp6
cnumpy.core.multiarray
scalar
p7
(cnumpy
dtype
p8
(S'f8'
p9
I0
I1
tp10
Rp11
(I3
S'<'
p12
NNNI-1
I-1
I0
tp13
bS')\xe0\xb4\xd2j\xe1\x98?'
p14
tp15
Rp16
asS'gen_dist'
p17
(lp18
g7
(g11
S':\xa7\xad\xfeWU|?'
p19
tp20
Rp21
ass.