(dp0
S'./Data/MONRP_50_4_5_0_90.csv'
p1
(dp2
S'evals'
p3
(lp4
I59
asS'igd'
p5
(lp6
cnumpy.core.multiarray
scalar
p7
(cnumpy
dtype
p8
(S'f8'
p9
I0
I1
tp10
Rp11
(I3
S'<'
p12
NNNI-1
I-1
I0
tp13
bS'\x8a\x0f\xe3F\xb6:\x97?'
p14
tp15
Rp16
asS'gen_dist'
p17
(lp18
g7
(g11
S'\xe8*^p?/\x86?'
p19
tp20
Rp21
ass.