(dp0
S'evals'
p1
(dp2
S'SaC1_2.p'
p3
(dp4
S'AL2'
p5
(lp6
I1
aF31.0
assS'SaC_7_8.p'
p7
(lp8
I-1
aI-1
asS'SaC_9_10.p'
p9
(dp10
g5
(lp11
I1
aF30.0
assS'x264-DB_4_5.p'
p12
(dp13
g5
(lp14
I1
aF35.0
assS'x264-DB_1_2.p'
p15
(dp16
g5
(lp17
I1
aF37.0
assS'SaC_3_4.p'
p18
(dp19
g5
(lp20
I1
aF31.0
assS'x264-DB_2_3.p'
p21
(dp22
g5
(lp23
I1
aF36.0
asS'epal0.3'
p24
(lp25
I1
aF126.0
assS'TriMesh_2_3.p'
p26
(dp27
g5
(lp28
I1
aF36.0
assS'SaC_11_12.p'
p29
(dp30
g5
(lp31
I1
aF30.0
assS'SaC_5_6.p'
p32
(dp33
g5
(lp34
I1
aF34.0
assS'x264-DB_5_6.p'
p35
(dp36
g5
(lp37
I1
aF33.0
assS'TriMesh_1_2.p'
p38
(lp39
I-1
aI-1
asS'x264-DB_3_4.p'
p40
(dp41
g5
(lp42
I1
aF35.0
asssS'gd'
p43
(dp44
g3
(dp45
g5
(lp46
I1
aF0.0
assg7
(lp47
I-1
aI-1
asg9
(dp48
g5
(lp49
I1
aF0.0
assg12
(dp50
g5
(lp51
I1
aF0.76188
assg15
(dp52
g5
(lp53
I1
aF0.0795
assg18
(dp54
g5
(lp55
I1
aF0.0
assg21
(dp56
g5
(lp57
I1
aF0.82553
asS'epal0.3'
p58
(lp59
I1
aF0.63518
assg26
(dp60
g5
(lp61
I1
aF0.00019
assg29
(dp62
g5
(lp63
I1
aF0.0
assg32
(dp64
g5
(lp65
I1
aF0.00032
assg35
(dp66
g5
(lp67
I1
aF0.00012
assg38
(lp68
I-1
aI-1
asg40
(dp69
g5
(lp70
I1
aF0.82356
asssS'igd'
p71
(dp72
g3
(dp73
g5
(lp74
I1
aF0.0
assg7
(lp75
I-1
aI-1
asg9
(dp76
g5
(lp77
I1
aF0.0
assg12
(dp78
g5
(lp79
I1
aF0.72329
assg15
(dp80
g5
(lp81
I1
aF0.02882
assg18
(dp82
g5
(lp83
I1
aF0.0
assg21
(dp84
g5
(lp85
I1
aF0.58578
asS'epal0.3'
p86
(lp87
I1
aF0.3577
assg26
(dp88
g5
(lp89
I1
aF0.00016
assg29
(dp90
g5
(lp91
I1
aF0.0
assg32
(dp92
g5
(lp93
I1
aF0.00025
assg35
(dp94
g5
(lp95
I1
aF0.12935
assg38
(lp96
I-1
aI-1
asg40
(dp97
g5
(lp98
I1
aF0.49136
asss.