(dp0
S'evals'
p1
(dp2
S'SaC1_2.p'
p3
(dp4
S'AL2'
p5
(lp6
I1
aF31.0
assS'SaC_7_8.p'
p7
(lp8
I-1
aI-1
asS'SaC_9_10.p'
p9
(dp10
g5
(lp11
I1
aF30.0
assS'x264-DB_4_5.p'
p12
(dp13
g5
(lp14
I1
aF35.0
assS'x264-DB_1_2.p'
p15
(dp16
g5
(lp17
I1
aF37.0
assS'SaC_3_4.p'
p18
(dp19
g5
(lp20
I1
aF31.0
assS'x264-DB_2_3.p'
p21
(dp22
g5
(lp23
I1
aF36.0
assS'TriMesh_2_3.p'
p24
(dp25
g5
(lp26
I1
aF36.0
assS'SaC_11_12.p'
p27
(dp28
g5
(lp29
I1
aF30.0
assS'SaC_5_6.p'
p30
(dp31
g5
(lp32
I1
aF34.0
assS'x264-DB_5_6.p'
p33
(dp34
g5
(lp35
I1
aF33.0
assS'TriMesh_1_2.p'
p36
(lp37
I-1
aI-1
asS'x264-DB_3_4.p'
p38
(dp39
g5
(lp40
I1
aF35.0
asssS'gd'
p41
(dp42
g3
(dp43
g5
(lp44
I1
aF0.0
assg7
(lp45
I-1
aI-1
asg9
(dp46
g5
(lp47
I1
aF0.0
assg12
(dp48
g5
(lp49
I1
aF0.76188
assg15
(dp50
g5
(lp51
I1
aF0.0795
assg18
(dp52
g5
(lp53
I1
aF0.0
assg21
(dp54
g5
(lp55
I1
aF0.82553
assg24
(dp56
g5
(lp57
I1
aF0.00019
assg27
(dp58
g5
(lp59
I1
aF0.0
assg30
(dp60
g5
(lp61
I1
aF0.00032
assg33
(dp62
g5
(lp63
I1
aF0.00012
assg36
(lp64
I-1
aI-1
asg38
(dp65
g5
(lp66
I1
aF0.82356
asssS'igd'
p67
(dp68
g3
(dp69
g5
(lp70
I1
aF0.0
assg7
(lp71
I-1
aI-1
asg9
(dp72
g5
(lp73
I1
aF0.0
assg12
(dp74
g5
(lp75
I1
aF0.72329
assg15
(dp76
g5
(lp77
I1
aF0.02882
assg18
(dp78
g5
(lp79
I1
aF0.0
assg21
(dp80
g5
(lp81
I1
aF0.58578
assg24
(dp82
g5
(lp83
I1
aF0.00016
assg27
(dp84
g5
(lp85
I1
aF0.0
assg30
(dp86
g5
(lp87
I1
aF0.00025
assg33
(dp88
g5
(lp89
I1
aF0.12935
assg36
(lp90
I-1
aI-1
asg38
(dp91
g5
(lp92
I1
aF0.49136
asss.