(dp0
S'./Data/xomoo2.csv'
p1
(dp2
S'evals'
p3
(lp4
I44
asS'igd'
p5
(lp6
cnumpy.core.multiarray
scalar
p7
(cnumpy
dtype
p8
(S'f8'
p9
I0
I1
tp10
Rp11
(I3
S'<'
p12
NNNI-1
I-1
I0
tp13
bS'\xb4yk\xb5P\xc7\x92?'
p14
tp15
Rp16
asS'gen_dist'
p17
(lp18
g7
(g11
S'\x82=\x87q`\xa0\xa4?'
p19
tp20
Rp21
ass.