(dp0
S'./Data/xomo_ground.csv'
p1
(dp2
S'evals'
p3
(lp4
I44
asS'igd'
p5
(lp6
cnumpy.core.multiarray
scalar
p7
(cnumpy
dtype
p8
(S'f8'
p9
I0
I1
tp10
Rp11
(I3
S'<'
p12
NNNI-1
I-1
I0
tp13
bS'\xb0\x8a\xe0\xef\xf1:|?'
p14
tp15
Rp16
asS'gen_dist'
p17
(lp18
g7
(g11
S'9\xf4\xa3|P\xe1\x80?'
p19
tp20
Rp21
ass.