(dp0
S'./Data/wc+sol-3d-c4.csv'
p1
(dp2
S'evals'
p3
(lp4
I48
aI38
aI46
asS'gen_dist'
p5
(lp6
cnumpy.core.multiarray
scalar
p7
(cnumpy
dtype
p8
(S'f8'
p9
I0
I1
tp10
Rp11
(I3
S'<'
p12
NNNI-1
I-1
I0
tp13
bS'\x80\xcb\xedz[\xef\x82?'
p14
tp15
Rp16
ag7
(g11
S'\xb7\xf3\xc6\xa8*s\x97?'
p17
tp18
Rp19
ag7
(g11
S'\xdaC-\xb8N\xba\x8d?'
p20
tp21
Rp22
assS'./Data/wc-c3-3d-c1.csv'
p23
(dp24
g3
(lp25
I48
aI41
aI47
asg5
(lp26
g7
(g11
S'\xc0\x94\x90P\x9a\x15g?'
p27
tp28
Rp29
ag7
(g11
S'z\xbef]XHf?'
p30
tp31
Rp32
ag7
(g11
S'\x85\xf5D\x81\x07\xfed?'
p33
tp34
Rp35
assS'./Data/noc_CM_log.csv'
p36
(dp37
g3
(lp38
I41
aI39
aI41
asg5
(lp39
g7
(g11
S'}\x82CO_S\xe6>'
p40
tp41
Rp42
ag7
(g11
S'\xcek;3PwN?'
p43
tp44
Rp45
ag7
(g11
S'\x00\x00\x00\x00\x00\x00\x00\x00'
p46
tp47
Rp48
assS'./Data/wc-c1-3d-c1.csv'
p49
(dp50
g3
(lp51
I45
aI35
aI37
asg5
(lp52
g7
(g11
S'\x00\x00\x00\x00\x00\x00\x00\x00'
p53
tp54
Rp55
ag7
(g11
S'%\x00\x1e\\\xd2vZ?'
p56
tp57
Rp58
ag7
(g11
S'9\xb0\xa8\xa5C\x8f\x10?'
p59
tp60
Rp61
assS'./Data/llvm_input.csv'
p62
(dp63
g3
(lp64
I56
aI66
aI68
asg5
(lp65
g7
(g11
S'\xeb\x83\xc9\x95\x8c\x11q?'
p66
tp67
Rp68
ag7
(g11
S'\xb8*\x94\xf4\xea\xb6v?'
p69
tp70
Rp71
ag7
(g11
S'\xeb\x9fp\xfbo\x03R?'
p72
tp73
Rp74
assS'./Data/sort_256.csv'
p75
(dp76
g3
(lp77
I29
aI31
aI34
asg5
(lp78
g7
(g11
S'\xferK\x7fl\x8dr?'
p79
tp80
Rp81
ag7
(g11
S' e\x16\xd7\xf6\xd6h?'
p82
tp83
Rp84
ag7
(g11
S'Z/\x07`\xdc7H?'
p85
tp86
Rp87
assS'./Data/wc-6d-c1.csv'
p88
(dp89
g3
(lp90
I96
aI92
aI71
asg5
(lp91
g7
(g11
S'\xf6\x89s\r\xdbyd?'
p92
tp93
Rp94
ag7
(g11
S' \x04\xca\x87\x85\x9a\x80?'
p95
tp96
Rp97
ag7
(g11
S'35p\xc0\x9e\xcf\x92?'
p98
tp99
Rp100
assS'./Data/wc+rs-3d-c4.csv'
p101
(dp102
g3
(lp103
I55
aI47
aI49
asg5
(lp104
g7
(g11
S'\xbb\t\xe4\x11@\xe7\xe0>'
p105
tp106
Rp107
ag7
(g11
S'\x1dx\x87\xd1rxU?'
p108
tp109
Rp110
ag7
(g11
S';u\xd3,\xf5z\x8c?'
p111
tp112
Rp113
assS'./Data/wc-3d-c4.csv'
p114
(dp115
g3
(lp116
I60
aI81
aI59
asg5
(lp117
g7
(g11
S'@\xf1{Q\x11\x11V?'
p118
tp119
Rp120
ag7
(g11
S'oO\xf8p\xe0\x87e?'
p121
tp122
Rp123
ag7
(g11
S':/\xfc\xecn\xcck?'
p124
tp125
Rp126
assS'./Data/wc-5d-c5.csv'
p127
(dp128
g3
(lp129
I35
aI35
aI34
asg5
(lp130
g7
(g11
S'F\xe1\xb6\xb1\xc9\xd3\x14?'
p131
tp132
Rp133
ag7
(g11
S'P\xc0l\x1e>E\xb5?'
p134
tp135
Rp136
ag7
(g11
S'\x00\x00\x00\x00\x00\x00\x00\x00'
p137
tp138
Rp139
assS'./Data/rs-6d-c3.csv'
p140
(dp141
g3
(lp142
I150
aI175
aI109
asg5
(lp143
g7
(g11
S'\xab>\xbdp\x1fI.?'
p144
tp145
Rp146
ag7
(g11
S'\xaf>\xad\x014B.?'
p147
tp148
Rp149
ag7
(g11
S'\xddeW\xed\xe5\x061?'
p150
tp151
Rp152
assS'./Data/wc+wc-3d-c4.csv'
p153
(dp154
g3
(lp155
I57
aI46
aI32
asg5
(lp156
g7
(g11
S'\xc9\xc6\xde\xc1+f\x89?'
p157
tp158
Rp159
ag7
(g11
S's\xe4\xdf\x80\xa1\x91\x81?'
p160
tp161
Rp162
ag7
(g11
S'n\xd90\x0c\x0b\xd9\x93?'
p163
tp164
Rp165
ass.