(dp0
S'./Data/wc+sol-3d-c4.csv'
p1
(dp2
S'evals'
p3
(lp4
I196
asS'igd'
p5
(lp6
cnumpy.core.multiarray
scalar
p7
(cnumpy
dtype
p8
(S'f8'
p9
I0
I1
tp10
Rp11
(I3
S'<'
p12
NNNI-1
I-1
I0
tp13
bS'\xd5.\xe6P\x11\xcb\x9d?'
p14
tp15
Rp16
asS'gen_dist'
p17
(lp18
g7
(g11
S'\x87\x1c\xa5\xee\x99c\x9f?'
p19
tp20
Rp21
assS'./Data/wc-c3-3d-c1.csv'
p22
(dp23
g3
(lp24
I1512
asg5
(lp25
g7
(g11
S'\xce\x88\x02B\xe1\xecc?'
p26
tp27
Rp28
asg17
(lp29
g7
(g11
S'\x93*\xf8\xa2\xe7z#?'
p30
tp31
Rp32
assS'./Data/noc_CM_log.csv'
p33
(dp34
g3
(lp35
I259
asg5
(lp36
g7
(g11
S'\x08\x90\x87\x8ba1_?'
p37
tp38
Rp39
asg17
(lp40
g7
(g11
S'\x00\x00\x00\x00\x00\x00\x00\x00'
p41
tp42
Rp43
assS'./Data/wc-c1-3d-c1.csv'
p44
(dp45
g3
(lp46
I1343
asg5
(lp47
g7
(g11
S'\x07\x84|\x00\x88/3?'
p48
tp49
Rp50
asg17
(lp51
g7
(g11
S'\x00\x00\x00\x00\x00\x00\x00\x00'
p52
tp53
Rp54
assS'./Data/llvm_input.csv'
p55
(dp56
g3
(lp57
I768
asg5
(lp58
g7
(g11
S'\xb3Rp\xf3\xc67{?'
p59
tp60
Rp61
asg17
(lp62
g7
(g11
S'\xb8*\x94\xf4\xea\xb6\x86?'
p63
tp64
Rp65
assS'./Data/wc+wc-3d-c4.csv'
p66
(dp67
g3
(lp68
I196
asg5
(lp69
g7
(g11
S'\xbe\x8c\x9a\x04\x11\xf4\x9c?'
p70
tp71
Rp72
asg17
(lp73
g7
(g11
S'\x97\xb6\x88\xa2\xd2\xbf\x92?'
p74
tp75
Rp76
assS'./Data/wc-6d-c1.csv'
p77
(dp78
g3
(lp79
I2880
asg5
(lp80
g7
(g11
S'\x89Z\x98\xf5\xd0$j?'
p81
tp82
Rp83
asg17
(lp84
g7
(g11
S'\xd0\xdd\xe4qA\xc9L?'
p85
tp86
Rp87
assS'./Data/wc+rs-3d-c4.csv'
p88
(dp89
g3
(lp90
I196
asg5
(lp91
g7
(g11
S'3\xfe\xe6\xcf2Pm?'
p92
tp93
Rp94
asg17
(lp95
g7
(g11
S'~+\xb7\x930\x8cj?'
p96
tp97
Rp98
assS'./Data/sort_256.csv'
p99
(dp100
g3
(lp101
I206
asg5
(lp102
g7
(g11
S'\xferK\x7fl\x8dr?'
p103
tp104
Rp105
asg17
(lp106
g7
(g11
S'\x00\x00\x00\x00\x00\x00\x00\x00'
p107
tp108
Rp109
assS'./Data/wc-5d-c5.csv'
p110
(dp111
g3
(lp112
I1080
asg5
(lp113
g7
(g11
S'\x00\x00\x00\x00\x00\x00\x00\x00'
p114
tp115
Rp116
asg17
(lp117
g7
(g11
S'\x00\x00\x00\x00\x00\x00\x00\x00'
p118
tp119
Rp120
assS'./Data/rs-6d-c3.csv'
p121
(dp122
g3
(lp123
I3840
asg5
(lp124
g7
(g11
S'\x00\xe7J\xb4\xeb@b?'
p125
tp126
Rp127
asg17
(lp128
g7
(g11
S'\x8a9(\xbf\x9c\x918?'
p129
tp130
Rp131
assS'./Data/wc-3d-c4.csv'
p132
(dp133
g3
(lp134
I756
asg5
(lp135
g7
(g11
S'\x95\xc4\x80\xbeE\xa9\x95?'
p136
tp137
Rp138
asg17
(lp139
g7
(g11
S'\xc0M\xffB\xef6F?'
p140
tp141
Rp142
ass.