(dp0
S'./Data/rs-6d-c3.csv'
p1
(dp2
S'evals'
p3
(lp4
I167
aI100
aI158
aI116
aI174
aI137
aI38
aI113
aI154
aI123
aI94
aI148
aI73
aI116
aI120
aI135
aI122
aI170
aI41
aI207
asS'gen_dist'
p5
(lp6
cnumpy.core.multiarray
scalar
p7
(cnumpy
dtype
p8
(S'f8'
p9
I0
I1
tp10
Rp11
(I3
S'>'
p12
NNNI-1
I-1
I0
tp13
bS'?1\x9c\xa1<f%\xf8'
p14
tp15
Rp16
ag7
(g11
S'?EP\xad-\xafh|'
p17
tp18
Rp19
ag7
(g11
S'?=\xf7\xfa\xa8\xc3J\x81'
p20
tp21
Rp22
ag7
(g11
S'?9.i\xc0\xf0o\x86'
p23
tp24
Rp25
ag7
(g11
S'?4\xe7\xea&H7\xd1'
p26
tp27
Rp28
ag7
(g11
S'??\x02;\xdc`\x97\xb8'
p29
tp30
Rp31
ag7
(g11
S'?\\{K\xb8\xd7\xee\xbf'
p32
tp33
Rp34
ag7
(g11
S'?i\xb0\xa6rD\xc2\x87'
p35
tp36
Rp37
ag7
(g11
S'?<\xbe8\xbfi \xfa'
p38
tp39
Rp40
ag7
(g11
S'?2\xe3\x06{\xf9M\\'
p41
tp42
Rp43
ag7
(g11
S'?D\xe0X\x03\ni\x00'
p44
tp45
Rp46
ag7
(g11
S'?+\xda\xd0\xfe\xe2\xf6^'
p47
tp48
Rp49
ag7
(g11
S'?@\xc7\n\xbb2\xb8t'
p50
tp51
Rp52
ag7
(g11
S'?8;\x0e\t\xfb\xbe!'
p53
tp54
Rp55
ag7
(g11
S'?;Z]\x8eX\x02\xb1'
p56
tp57
Rp58
ag7
(g11
S'?EF\xadz\x96\xdb6'
p59
tp60
Rp61
ag7
(g11
S'??\xec\xcc\xc6\x1a>k'
p62
tp63
Rp64
ag7
(g11
S'?:\x8b\xd8\x1fJ\x03\x81'
p65
tp66
Rp67
ag7
(g11
S'?of4\xda\xddU\r'
p68
tp69
Rp70
ag7
(g11
S'?5\t\xbb\xd7\xf5{\xfc'
p71
tp72
Rp73
ass.