(dp0
S'./Data/reduced_SaC1_2.csv'
p1
(dp2
S'evals'
p3
(lp4
I36
aI26
aI38
aI32
aI23
aI31
aI33
aI50
aI27
aI40
aI35
aI34
aI46
aI25
aI35
aI48
aI39
aI63
aI48
aI38
asS'gen_dist'
p5
(lp6
cnumpy.core.multiarray
scalar
p7
(cnumpy
dtype
p8
(S'f8'
p9
I0
I1
tp10
Rp11
(I3
S'>'
p12
NNNI-1
I-1
I0
tp13
bS'>\x16H\xf7\x9d\x9dz\xe1'
p14
tp15
Rp16
ag7
(g11
S'?M4\x8cXMl3'
p17
tp18
Rp19
ag7
(g11
S'>\x1a\x85a\xec<x\xd8'
p20
tp21
Rp22
ag7
(g11
S'?M7\x18\x8c\xe45G'
p23
tp24
Rp25
ag7
(g11
S'?M4\x8cXMl3'
p26
tp27
Rp28
ag7
(g11
S'>\x1a\x85a\xec<x\xd8'
p29
tp30
Rp31
ag7
(g11
S'>"\x0c\x8dN\xfe|\xe1'
p32
tp33
Rp34
ag7
(g11
S">\x1f \x18A\xb1\xa3'"
p35
tp36
Rp37
ag7
(g11
S'>\x1a\x85a\xec<x\xd8'
p38
tp39
Rp40
ag7
(g11
S'?M4\x8cXMl3'
p41
tp42
Rp43
ag7
(g11
S'>\x1a\x85a\xec<x\xd8'
p44
tp45
Rp46
ag7
(g11
S'>\xa9\xde>\xab\x1e[\xcb'
p47
tp48
Rp49
ag7
(g11
S">\x1f \x18A\xb1\xa3'"
p50
tp51
Rp52
ag7
(g11
S'?M4\x8cXMl3'
p53
tp54
Rp55
ag7
(g11
S">\x1f \x18A\xb1\xa3'"
p56
tp57
Rp58
ag7
(g11
S'>\x1a\x85a\xec<x\xd8'
p59
tp60
Rp61
ag7
(g11
S'>\x1a\x85a\xec<x\xd8'
p62
tp63
Rp64
ag7
(g11
S'>}a\xa8QS\xa9>'
p65
tp66
Rp67
ag7
(g11
S'>\x8a\x0c\xee\xcf\x80\xe68'
p68
tp69
Rp70
ag7
(g11
S'>j\xc7\xafa\x0b\x10\x1a'
p71
tp72
Rp73
ass.