(dp0
S'./Data/reduced_SaC1_2.csv'
p1
(dp2
S'evals'
p3
(lp4
I29
aI29
aI29
aI29
aI28
aI30
aI29
aI26
aI28
aI29
aI34
aI29
aI30
aI31
aI29
aI28
aI31
aI31
aI30
aI30
asS'gen_dist'
p5
(lp6
cnumpy.core.multiarray
scalar
p7
(cnumpy
dtype
p8
(S'f8'
p9
I0
I1
tp10
Rp11
(I3
S'>'
p12
NNNI-1
I-1
I0
tp13
bS'?M4\x8cXMl3'
p14
tp15
Rp16
ag7
(g11
S'>"\x0c\x8dN\xfe|\xe1'
p17
tp18
Rp19
ag7
(g11
S'?M4\x8cXMl3'
p20
tp21
Rp22
ag7
(g11
S'>"\x0c\x8dN\xfe|\xe1'
p23
tp24
Rp25
ag7
(g11
S">\x1f \x18A\xb1\xa3'"
p26
tp27
Rp28
ag7
(g11
S">}\x98\xe8\xddU';"
p29
tp30
Rp31
ag7
(g11
S'>j\xc7\xafa\x0b\x10\x1a'
p32
tp33
Rp34
ag7
(g11
S'>\x94M\x91\x86\xd4\x0bD'
p35
tp36
Rp37
ag7
(g11
S'>}\xaeF\x16\xe1\xadG'
p38
tp39
Rp40
ag7
(g11
S'>}\xaeF\x16\xe1\xadG'
p41
tp42
Rp43
ag7
(g11
S">}\x98\xe8\xddU';"
p44
tp45
Rp46
ag7
(g11
S'>}\xaeF\x16\xe1\xadG'
p47
tp48
Rp49
ag7
(g11
S'>$\xb84\x80\x8f>a'
p50
tp51
Rp52
ag7
(g11
S'>j\xc7\xafa\x0b\x10\x1a'
p53
tp54
Rp55
ag7
(g11
S'?M4\x8cXMl3'
p56
tp57
Rp58
ag7
(g11
S'>\x9d,\x9d\x8d{0E'
p59
tp60
Rp61
ag7
(g11
S'>}\xddl\x1aL\xc3s'
p62
tp63
Rp64
ag7
(g11
S'>k\x1a1\xe7\x06v\xe6'
p65
tp66
Rp67
ag7
(g11
S">\x9d'\xa4\x8b\x1e\xe4\xed"
p68
tp69
Rp70
ag7
(g11
S'>"\x0c\x8dN\xfe|\xe1'
p71
tp72
Rp73
ass.