(dp0
S'./Data/llvm_input.csv'
p1
(dp2
S'evals'
p3
(lp4
I36
aI34
aI30
aI38
aI32
aI34
aI32
aI33
aI37
aI33
aI36
aI33
aI33
aI36
aI34
aI32
aI32
aI33
aI34
aI31
asS'gen_dist'
p5
(lp6
cnumpy.core.multiarray
scalar
p7
(cnumpy
dtype
p8
(S'f8'
p9
I0
I1
tp10
Rp11
(I3
S'>'
p12
NNNI-1
I-1
I0
tp13
bS'?f,\xdeTC\x9bm'
p14
tp15
Rp16
ag7
(g11
S'?X:\x8f~\t\r\x11'
p17
tp18
Rp19
ag7
(g11
S'?\x89\\\x94W=\x16\xc3'
p20
tp21
Rp22
ag7
(g11
S'?\x86\x18\xc3\xb3\xa5q9'
p23
tp24
Rp25
ag7
(g11
S'?R\xd1\x88{\x1fq\xdb'
p26
tp27
Rp28
ag7
(g11
S"?\xaa(m\x90'\x0b["
p29
tp30
Rp31
ag7
(g11
S'?u\xfa2yse\xac'
p32
tp33
Rp34
ag7
(g11
S'?y\xa6.\xd5T\xaa\xf5'
p35
tp36
Rp37
ag7
(g11
S'?\x82\x16\xc2\xf7\r\x10\xc5'
p38
tp39
Rp40
ag7
(g11
S'?\xab\x15\x0f\x99\xefN|'
p41
tp42
Rp43
ag7
(g11
S'?~\xa4Z\xd2\xf6b`'
p44
tp45
Rp46
ag7
(g11
S'?\x90\r\xc7\x82\xa4\xd6\xe6'
p47
tp48
Rp49
ag7
(g11
S'?qkn~\x84E\xaa'
p50
tp51
Rp52
ag7
(g11
S'?g\x15\xfb{\t\xf8H'
p53
tp54
Rp55
ag7
(g11
S'?t\x9c\xfa$\xdf\xbb\xa5'
p56
tp57
Rp58
ag7
(g11
S'?\x94\xe9\xadW\x9e\xe0O'
p59
tp60
Rp61
ag7
(g11
S'?{\xf9\r\x0f\xf6N\x0f'
p62
tp63
Rp64
ag7
(g11
S'?{\xc3\x8b\x1e\xf8\x9d\x1f'
p65
tp66
Rp67
ag7
(g11
S"?y\xcf;c'\r\xa1"
p68
tp69
Rp70
ag7
(g11
S'?{9aC\x03\xaal'
p71
tp72
Rp73
ass.