(dp0
S'./Data/reduced_SaC_7_8.csv'
p1
(dp2
S'evals'
p3
(lp4
I30
aI29
aI29
aI30
aI31
aI30
aI29
aI30
aI30
aI31
aI28
aI29
aI33
aI30
aI27
aI30
aI30
aI28
aI29
aI30
asS'gen_dist'
p5
(lp6
cnumpy.core.multiarray
scalar
p7
(cnumpy
dtype
p8
(S'f8'
p9
I0
I1
tp10
Rp11
(I3
S'>'
p12
NNNI-1
I-1
I0
tp13
bS'>j\xc7\xafa\x0b\x10\x1a'
p14
tp15
Rp16
ag7
(g11
S'>$\xb84\x80\x8f>a'
p17
tp18
Rp19
ag7
(g11
S'>$\xb84\x80\x8f>a'
p20
tp21
Rp22
ag7
(g11
S'>$\xb84\x80\x8f>a'
p23
tp24
Rp25
ag7
(g11
S'>4N\x1e\xf8\xdeL\x83'
p26
tp27
Rp28
ag7
(g11
S">\x9d'\xa4\x8b\x1e\xe4\xed"
p29
tp30
Rp31
ag7
(g11
S'>$\xb84\x80\x8f>a'
p32
tp33
Rp34
ag7
(g11
S'>\x8a!\x8fp\xff\xbf\xeb'
p35
tp36
Rp37
ag7
(g11
S'?M85\xf9Cf\xcd'
p38
tp39
Rp40
ag7
(g11
S'>"\x0c\x8dN\xfe|\xe1'
p41
tp42
Rp43
ag7
(g11
S'?M4\x8cXMl3'
p44
tp45
Rp46
ag7
(g11
S'>\x94^\xb2V\x11\xf2S'
p47
tp48
Rp49
ag7
(g11
S'>k\x1a1\xe7\x06v\xe6'
p50
tp51
Rp52
ag7
(g11
S">\x1f \x18A\xb1\xa3'"
p53
tp54
Rp55
ag7
(g11
S">}\x98\xe8\xddU';"
p56
tp57
Rp58
ag7
(g11
S'>\x9d,\x9d\x8d{0E'
p59
tp60
Rp61
ag7
(g11
S'>\x9d,\x9d\x8d{0E'
p62
tp63
Rp64
ag7
(g11
S'?M;\x0b\xcdv\x06Z'
p65
tp66
Rp67
ag7
(g11
S">}\x98\xe8\xddU';"
p68
tp69
Rp70
ag7
(g11
S'>j\xc7\xafa\x0b\x10\x1a'
p71
tp72
Rp73
ass.