(dp0
S'./Data/wc-c3-3d-c1.csv'
p1
(dp2
S'evals'
p3
(lp4
I32
aI36
aI33
aI34
aI28
aI35
aI34
aI30
aI31
aI30
aI30
aI33
aI28
aI26
aI26
aI32
aI31
aI38
aI32
aI35
asS'gen_dist'
p5
(lp6
cnumpy.core.multiarray
scalar
p7
(cnumpy
dtype
p8
(S'f8'
p9
I0
I1
tp10
Rp11
(I3
S'>'
p12
NNNI-1
I-1
I0
tp13
bS'?|Y\xd5\x8b\xc9\xe4F'
p14
tp15
Rp16
ag7
(g11
S'?gS\x0c\xa1X\xd0\xeb'
p17
tp18
Rp19
ag7
(g11
S'?pY\x01f\x92c\x8a'
p20
tp21
Rp22
ag7
(g11
S'?i?\xb2g@\x85\xa9'
p23
tp24
Rp25
ag7
(g11
S'?_\x1a\x80#W\x9f.'
p26
tp27
Rp28
ag7
(g11
S'?e\x88\x93=\xcd\x1fM'
p29
tp30
Rp31
ag7
(g11
S'?pY\x01f\x92c\x8a'
p32
tp33
Rp34
ag7
(g11
S'?]k#\xcca\x8c\x93'
p35
tp36
Rp37
ag7
(g11
S'?f#\xc2W\x8e,*'
p38
tp39
Rp40
ag7
(g11
S'?s\x01]t\xcf$\x8c'
p41
tp42
Rp43
ag7
(g11
S"?s\x9e\x90O'\x14\xf6"
p44
tp45
Rp46
ag7
(g11
S'?]r\xbf\x8f\x98\x04\x99'
p47
tp48
Rp49
ag7
(g11
S'?f\xf8\x8a\xaa\x8cu\xe8'
p50
tp51
Rp52
ag7
(g11
S'?h9=\x13\x18\xfe\x88'
p53
tp54
Rp55
ag7
(g11
S'?}<#8\xd4\xe2L'
p56
tp57
Rp58
ag7
(g11
S'?e4\xd4_`H\xfe'
p59
tp60
Rp61
ag7
(g11
S'?fHX]f\xbez'
p62
tp63
Rp64
ag7
(g11
S'?u+Q\x04\r\xb7\xaf'
p65
tp66
Rp67
ag7
(g11
S'?^\x8a\xc3\xf91\xbf\xb8'
p68
tp69
Rp70
ag7
(g11
S'?j\x9dZ\xd0\x19\x8f\x93'
p71
tp72
Rp73
ass.