(dp0
S'./Data/POM3D.csv'
p1
(lp2
F102.90206289291382
aF133.53178715705872
aF99.30475401878357
aF116.88753700256348
aF172.80839896202087
aF117.432932138443
aF131.50108408927917
aF164.91875910758972
aF141.34125304222107
aF99.74108004570007
aF129.30135703086853
aF181.96701502799988
aF110.52398180961609
aF157.44188785552979
aF127.94551110267639
aF118.63935399055481
aF116.75911903381348
aF152.23040199279785
aF109.32498693466187
aF106.7347629070282
as.