(dp0
S'complaint_data'
p1
(lp2
(lp3
F253.51
aF28.0
aa(lp4
F245.2
aF28.0
aa(lp5
F246.16
aF28.0
aa(lp6
F246.03
aF28.0
aa(lp7
F245.16
aF28.0
aa(lp8
F244.59
aF28.0
aa(lp9
F251.74
aF28.0
aag6
a(lp10
F254.47
aF28.0
aa(lp11
F253.49
aF28.0
aa(lp12
F242.79
aF29.0
aa(lp13
F246.5
aF28.0
aa(lp14
F254.5
aF28.0
aa(lp15
F255.32
aF28.0
aag13
a(lp16
F254.42
aF28.0
aa(lp17
F253.74
aF28.0
aa(lp18
F247.28
aF28.0
aag7
ag14
ag10
ag18
ag15
ag3
asS'convex_hull_y'
p19
(lp20
cnumpy.core.multiarray
scalar
p21
(cnumpy
dtype
p22
(S'f8'
p23
I0
I1
tp24
Rp25
(I3
S'<'
p26
NNNI-1
I-1
I0
tp27
bS'#J\x96\xd6Z\xa8\n@'
p28
tp29
Rp30
ag21
(g25
S'\x1f\xfe\xcd\xcb8\xf0\n@'
p31
tp32
Rp33
ag21
(g25
S'#J\x96\xd6Z\xa8\n@'
p34
tp35
Rp36
asS'convex_hull_x'
p37
(lp38
g21
(g25
S'\x1ey\xe3\xbf\x89+\x16@'
p39
tp40
Rp41
ag21
(g25
S'\xba\xc0\xf4t\x02\xf8\x15@'
p42
tp43
Rp44
ag21
(g25
S'\xdbj`\xc6\x92\xff\x15@'
p45
tp46
Rp47
asS'current_pf'
p48
(lp49
(lp50
F228.72
aF29.0
aa(lp51
F256.25
aF28.0
aa(lp52
F270.4
aF19.0
aasS'all_data_dep'
p53
(lp54
(lp55
F231.77
aF18.0
aa(lp56
F221.25
aF29.0
aa(lp57
F228.28
aF28.0
aa(lp58
F252.77
aF28.0
aa(lp59
F251.81
aF28.0
aa(lp60
F257.68
aF12.0
aa(lp61
F252.58
aF20.0
aa(lp62
F255.43
aF28.0
aa(lp63
F230.24
aF28.0
aa(lp64
F239.32
aF15.0
aa(lp65
F261.43
aF12.0
aa(lp66
F267.43
aF12.0
aa(lp67
F238.23
aF28.0
aag50
a(lp68
F251.25
aF18.0
aa(lp69
F247.08
aF19.0
aag52
a(lp70
F230.77
aF19.0
aa(lp71
F219.4
aF29.0
aa(lp72
F257.04
aF12.0
aag3
a(lp73
F214.05
aF15.0
aa(lp74
F233.15
aF29.0
aa(lp75
F235.85
aF28.0
aa(lp76
F251.24
aF16.0
aa(lp77
F253.1
aF20.0
aa(lp78
F240.98
aF28.0
aa(lp79
F269.52
aF19.0
aa(lp80
F233.28
aF19.0
aa(lp81
F248.02
aF28.0
aa(lp82
F251.93
aF28.0
aa(lp83
F236.31
aF28.0
aa(lp84
F243.26
aF28.0
aa(lp85
F250.26
aF15.0
aa(lp86
F222.56
aF29.0
aa(lp87
F256.18
aF19.0
aa(lp88
F242.5
aF15.0
aa(lp89
F239.04
aF28.0
aa(lp90
F229.21
aF18.0
aa(lp91
F206.62
aF29.0
aa(lp92
F215.18
aF28.0
aa(lp93
F248.89
aF20.0
aa(lp94
F217.29
aF14.0
aa(lp95
F199.68
aF29.0
aa(lp96
F234.68
aF19.0
aa(lp97
F215.48
aF28.0
aa(lp98
F241.7
aF29.0
aag55
a(lp99
F223.52
aF29.0
aa(lp100
F236.58
aF28.0
aa(lp101
F247.67
aF18.0
aa(lp102
F203.93
aF29.0
aa(lp103
F267.17
aF12.0
aa(lp104
F263.57
aF12.0
aa(lp105
F256.94
aF11.0
aa(lp106
F241.97
aF28.0
aa(lp107
F249.68
aF15.0
aa(lp108
F207.12
aF29.0
aa(lp109
F264.18
aF12.0
aa(lp110
F265.42
aF19.0
aa(lp111
F220.87
aF28.0
aa(lp112
F215.31
aF14.0
aag111
a(lp113
F258.05
aF20.0
aag67
a(lp114
F266.54
aF12.0
aa(lp115
F242.55
aF15.0
aa(lp116
F216.27
aF29.0
aa(lp117
F251.79
aF28.0
aa(lp118
F250.05
aF28.0
aa(lp119
F248.03
aF19.0
aa(lp120
F233.79
aF28.0
aa(lp121
F227.12
aF29.0
aa(lp122
F205.71
aF29.0
aa(lp123
F232.96
aF15.0
aa(lp124
F242.56
aF28.0
aa(lp125
F223.01
aF29.0
aa(lp126
F252.27
aF16.0
aag76
a(lp127
F232.59
aF28.0
aa(lp128
F219.83
aF28.0
aa(lp129
F237.44
aF15.0
aa(lp130
F205.74
aF29.0
aa(lp131
F247.47
aF16.0
aag84
ag62
a(lp132
F220.57
aF29.0
aa(lp133
F251.41
aF20.0
aa(lp134
F263.72
aF19.0
aa(lp135
F224.18
aF29.0
aa(lp136
F234.05
aF28.0
aa(lp137
F231.33
aF16.0
aa(lp138
F210.24
aF14.0
aa(lp139
F264.18
aF11.0
aa(lp140
F252.45
aF18.0
aa(lp141
F250.57
aF16.0
aa(lp142
F266.03
aF12.0
aag52
a(lp143
F242.46
aF16.0
aa(lp144
F218.23
aF14.0
aag4
a(lp145
F268.42
aF19.0
aa(lp146
F221.01
aF29.0
aa(lp147
F215.96
aF28.0
aa(lp148
F249.36
aF18.0
aa(lp149
F227.53
aF19.0
aa(lp150
F224.07
aF29.0
aa(lp151
F255.44
aF12.0
aa(lp152
F215.94
aF14.0
aa(lp153
F264.64
aF11.0
aa(lp154
F237.9
aF28.0
aa(lp155
F232.03
aF28.0
aa(lp156
F256.23
aF15.0
aa(lp157
F250.48
aF28.0
aa(lp158
F249.83
aF18.0
aa(lp159
F237.1
aF28.0
aa(lp160
F248.6
aF16.0
aa(lp161
F242.86
aF28.0
aa(lp162
F235.7
aF28.0
aa(lp163
F206.9
aF26.0
aa(lp164
F239.79
aF15.0
aa(lp165
F254.34
aF28.0
aa(lp166
F216.3
aF28.0
aa(lp167
F202.68
aF29.0
aa(lp168
F254.13
aF20.0
aa(lp169
F253.15
aF19.0
aa(lp170
F231.69
aF18.0
aa(lp171
F239.51
aF15.0
aa(lp172
F232.29
aF19.0
aa(lp173
F219.31
aF28.0
aa(lp174
F224.51
aF29.0
aa(lp175
F216.92
aF14.0
aa(lp176
F237.87
aF15.0
aa(lp177
F232.2
aF28.0
aa(lp178
F252.68
aF18.0
aa(lp179
F234.65
aF29.0
aa(lp180
F250.87
aF28.0
aa(lp181
F219.08
aF29.0
aa(lp182
F220.42
aF29.0
aa(lp183
F252.04
aF15.0
aa(lp184
F226.57
aF29.0
aa(lp185
F258.83
aF20.0
aa(lp186
F249.66
aF16.0
aa(lp187
F206.43
aF29.0
aa(lp188
F230.74
aF29.0
aa(lp189
F201.83
aF29.0
aa(lp190
F264.93
aF19.0
aa(lp191
F221.33
aF29.0
aa(lp192
F203.19
aF29.0
aa(lp193
F218.43
aF26.0
aa(lp194
F247.8
aF28.0
aa(lp195
F247.79
aF15.0
aa(lp196
F262.66
aF19.0
aa(lp197
F250.62
aF19.0
aa(lp198
F218.04
aF28.0
aa(lp199
F236.53
aF29.0
aa(lp200
F232.64
aF28.0
aa(lp201
F225.5
aF29.0
aa(lp202
F235.23
aF27.0
aa(lp203
F228.97
aF19.0
aa(lp204
F226.65
aF29.0
aag77
a(lp205
F214.38
aF15.0
aa(lp206
F230.94
aF19.0
aa(lp207
F237.23
aF28.0
aa(lp208
F248.43
aF17.0
aa(lp209
F240.54
aF15.0
aa(lp210
F249.34
aF18.0
aa(lp211
F202.69
aF29.0
aa(lp212
F251.31
aF15.0
aa(lp213
F224.3
aF28.0
aa(lp214
F245.21
aF16.0
aa(lp215
F214.15
aF15.0
aa(lp216
F211.27
aF15.0
aa(lp217
F204.96
aF29.0
aa(lp218
F243.79
aF14.0
aa(lp219
F217.07
aF29.0
aa(lp220
F242.09
aF28.0
aa(lp221
F205.36
aF29.0
aa(lp222
F268.38
aF19.0
aa(lp223
F233.43
aF15.0
aa(lp224
F237.41
aF28.0
aa(lp225
F226.57
aF19.0
aag106
a(lp226
F236.89
aF29.0
aa(lp227
F226.7
aF29.0
aag224
ag5
a(lp228
F232.52
aF18.0
aa(lp229
F268.58
aF19.0
aa(lp230
F230.47
aF29.0
aa(lp231
F251.98
aF28.0
aa(lp232
F232.96
aF18.0
aag6
ag221
a(lp233
F234.87
aF28.0
aa(lp234
F218.02
aF27.0
aa(lp235
F251.91
aF18.0
aa(lp236
F218.96
aF28.0
aag173
a(lp237
F251.3
aF18.0
aa(lp238
F258.16
aF12.0
aa(lp239
F242.43
aF28.0
aa(lp240
F249.25
aF18.0
aa(lp241
F222.09
aF29.0
aa(lp242
F234.08
aF18.0
aa(lp243
F234.56
aF28.0
aa(lp244
F215.88
aF14.0
aa(lp245
F228.27
aF18.0
aa(lp246
F227.99
aF18.0
aa(lp247
F265.65
aF12.0
aa(lp248
F221.73
aF29.0
aa(lp249
F256.47
aF19.0
aa(lp250
F251.24
aF16.0
aa(lp251
F230.59
aF28.0
aa(lp252
F251.25
aF15.0
aa(lp253
F248.06
aF28.0
aa(lp254
F215.02
aF28.0
aag89
a(lp255
F211.19
aF14.0
aa(lp256
F231.16
aF19.0
aa(lp257
F248.06
aF15.0
aag7
a(lp258
F251.71
aF28.0
aa(lp259
F212.44
aF15.0
aa(lp260
F246.01
aF19.0
aa(lp261
F243.52
aF28.0
aa(lp262
F232.62
aF28.0
aa(lp263
F238.73
aF28.0
aa(lp264
F249.79
aF16.0
aa(lp265
F222.63
aF29.0
aa(lp266
F250.43
aF18.0
aa(lp267
F218.73
aF29.0
aa(lp268
F254.27
aF16.0
aa(lp269
F229.64
aF19.0
aa(lp270
F266.12
aF12.0
aa(lp271
F224.99
aF19.0
aa(lp272
F219.64
aF14.0
aa(lp273
F251.32
aF28.0
aag8
a(lp274
F201.9
aF26.0
aag172
a(lp275
F246.32
aF16.0
aa(lp276
F226.13
aF18.0
aa(lp277
F247.99
aF28.0
aa(lp278
F230.14
aF18.0
aa(lp279
F240.43
aF28.0
aa(lp280
F251.52
aF18.0
aa(lp281
F249.28
aF20.0
aa(lp282
F219.87
aF29.0
aa(lp283
F251.43
aF28.0
aa(lp284
F213.41
aF15.0
aa(lp285
F213.1
aF15.0
aa(lp286
F216.91
aF29.0
aa(lp287
F228.3
aF29.0
aa(lp288
F252.82
aF28.0
aa(lp289
F219.95
aF27.0
aa(lp290
F232.14
aF19.0
aa(lp291
F218.4
aF26.0
aa(lp292
F227.78
aF29.0
aa(lp293
F230.13
aF28.0
aag133
a(lp294
F224.49
aF18.0
aa(lp295
F243.37
aF29.0
aag170
a(lp296
F226.13
aF29.0
aa(lp297
F232.64
aF29.0
aa(lp298
F214.0
aF28.0
aa(lp299
F221.17
aF29.0
aa(lp300
F253.47
aF15.0
aa(lp301
F250.44
aF15.0
aag80
a(lp302
F249.46
aF28.0
aa(lp303
F232.49
aF28.0
aa(lp304
F240.35
aF28.0
aa(lp305
F252.89
aF16.0
aa(lp306
F243.78
aF15.0
aa(lp307
F216.22
aF26.0
aa(lp308
F225.77
aF28.0
aa(lp309
F233.28
aF19.0
aag247
a(lp310
F265.82
aF19.0
aa(lp311
F260.5
aF19.0
aa(lp312
F229.95
aF19.0
aa(lp313
F240.34
aF28.0
aa(lp314
F246.38
aF16.0
aag9
a(lp315
F254.14
aF20.0
aa(lp316
F254.39
aF15.0
aa(lp317
F233.12
aF28.0
aa(lp318
F252.13
aF15.0
aa(lp319
F259.38
aF12.0
aa(lp320
F262.01
aF12.0
aa(lp321
F264.16
aF19.0
aag87
a(lp322
F259.69
aF12.0
aa(lp323
F207.89
aF29.0
aa(lp324
F252.14
aF20.0
aa(lp325
F232.22
aF28.0
aa(lp326
F216.91
aF29.0
aag272
a(lp327
F228.65
aF19.0
aag241
a(lp328
F232.86
aF16.0
aa(lp329
F249.99
aF28.0
aa(lp330
F249.3
aF19.0
aag115
ag122
a(lp331
F248.54
aF20.0
aag59
a(lp332
F235.37
aF28.0
aag83
a(lp333
F237.36
aF28.0
aag162
a(lp334
F260.69
aF19.0
aa(lp335
F253.67
aF18.0
aa(lp336
F223.3
aF29.0
aa(lp337
F238.75
aF28.0
aa(lp338
F220.82
aF29.0
aag202
a(lp339
F264.47
aF20.0
aa(lp340
F235.85
aF28.0
aag152
ag175
ag163
a(lp341
F230.57
aF18.0
aa(lp342
F248.71
aF18.0
aa(lp343
F230.74
aF29.0
aa(lp344
F217.29
aF29.0
aag165
a(lp345
F214.28
aF29.0
aa(lp346
F258.9
aF12.0
aa(lp347
F247.31
aF18.0
aag96
a(lp348
F257.33
aF15.0
aa(lp349
F250.04
aF15.0
aa(lp350
F235.31
aF27.0
aag242
a(lp351
F217.47
aF14.0
aa(lp352
F257.17
aF19.0
aa(lp353
F247.72
aF19.0
aa(lp354
F235.12
aF28.0
aa(lp355
F264.74
aF12.0
aa(lp356
F260.77
aF12.0
aa(lp357
F223.42
aF29.0
aag6
a(lp358
F232.47
aF28.0
aa(lp359
F252.68
aF19.0
aa(lp360
F239.27
aF29.0
aa(lp361
F244.12
aF14.0
aa(lp362
F244.92
aF16.0
aa(lp363
F228.86
aF19.0
aa(lp364
F235.21
aF28.0
aa(lp365
F231.31
aF28.0
aa(lp366
F246.81
aF28.0
aa(lp367
F214.89
aF29.0
aa(lp368
F213.85
aF15.0
aa(lp369
F208.05
aF29.0
aa(lp370
F236.23
aF16.0
aa(lp371
F240.07
aF16.0
aa(lp372
F241.02
aF28.0
aa(lp373
F253.82
aF16.0
aa(lp374
F249.62
aF16.0
aa(lp375
F225.26
aF29.0
aa(lp376
F244.91
aF19.0
aa(lp377
F235.51
aF28.0
aa(lp378
F229.3
aF18.0
aa(lp379
F212.92
aF29.0
aag99
a(lp380
F249.41
aF28.0
aa(lp381
F205.99
aF26.0
aag129
a(lp382
F227.15
aF19.0
aa(lp383
F251.01
aF28.0
aag150
a(lp384
F227.01
aF18.0
aa(lp385
F244.03
aF15.0
aa(lp386
F266.21
aF20.0
aa(lp387
F267.17
aF19.0
aa(lp388
F241.69
aF15.0
aag135
a(lp389
F225.16
aF29.0
aa(lp390
F240.62
aF16.0
aa(lp391
F221.44
aF29.0
aa(lp392
F212.45
aF26.0
aa(lp393
F235.78
aF28.0
aa(lp394
F217.7
aF29.0
aa(lp395
F261.36
aF19.0
aa(lp396
F239.59
aF27.0
aa(lp397
F261.09
aF18.0
aa(lp398
F227.18
aF29.0
aag343
a(lp399
F215.85
aF14.0
aa(lp400
F221.62
aF29.0
aag321
a(lp401
F222.24
aF29.0
aag145
a(lp402
F207.75
aF15.0
aa(lp403
F242.81
aF28.0
aa(lp404
F261.08
aF12.0
aa(lp405
F248.65
aF18.0
aag112
a(lp406
F252.81
aF28.0
aa(lp407
F248.78
aF15.0
aa(lp408
F266.19
aF12.0
aa(lp409
F253.15
aF18.0
aag398
a(lp410
F200.38
aF29.0
aa(lp411
F234.87
aF29.0
aa(lp412
F263.19
aF12.0
aa(lp413
F243.08
aF14.0
aa(lp414
F256.22
aF15.0
aa(lp415
F235.95
aF27.0
aa(lp416
F233.74
aF16.0
aa(lp417
F238.78
aF16.0
aa(lp418
F255.02
aF19.0
aa(lp419
F248.58
aF18.0
aa(lp420
F219.39
aF29.0
aa(lp421
F231.34
aF28.0
aag391
a(lp422
F255.47
aF20.0
aa(lp423
F203.19
aF29.0
aa(lp424
F245.94
aF28.0
aa(lp425
F215.13
aF27.0
aa(lp426
F254.59
aF15.0
aa(lp427
F252.62
aF15.0
aa(lp428
F249.04
aF28.0
aa(lp429
F223.21
aF29.0
aa(lp430
F200.82
aF29.0
aa(lp431
F233.0
aF29.0
aa(lp432
F215.85
aF28.0
aag58
a(lp433
F251.16
aF28.0
aa(lp434
F218.32
aF14.0
aa(lp435
F248.19
aF17.0
aa(lp436
F249.44
aF28.0
aa(lp437
F231.0
aF29.0
aa(lp438
F246.0
aF28.0
aag279
a(lp439
F212.45
aF15.0
aa(lp440
F247.17
aF28.0
aa(lp441
F246.73
aF20.0
aag389
a(lp442
F247.27
aF20.0
aag440
a(lp443
F241.23
aF28.0
aa(lp444
F224.34
aF29.0
aa(lp445
F254.89
aF19.0
aag177
a(lp446
F235.92
aF15.0
aa(lp447
F213.86
aF29.0
aa(lp448
F253.26
aF20.0
aa(lp449
F251.0
aF19.0
aag10
a(lp450
F245.56
aF16.0
aa(lp451
F250.86
aF20.0
aag341
a(lp452
F226.88
aF18.0
aag385
a(lp453
F243.12
aF28.0
aa(lp454
F231.22
aF29.0
aa(lp455
F215.47
aF14.0
aa(lp456
F232.65
aF27.0
aa(lp457
F235.97
aF15.0
aa(lp458
F259.5
aF12.0
aa(lp459
F269.47
aF19.0
aa(lp460
F231.63
aF27.0
aa(lp461
F233.54
aF28.0
aa(lp462
F227.44
aF29.0
aa(lp463
F217.55
aF26.0
aag396
ag154
a(lp464
F266.39
aF12.0
aa(lp465
F239.06
aF15.0
aa(lp466
F249.81
aF19.0
aag333
a(lp467
F241.78
aF28.0
aa(lp468
F238.27
aF28.0
aa(lp469
F220.08
aF28.0
aa(lp470
F211.59
aF15.0
aa(lp471
F203.98
aF29.0
aa(lp472
F265.4
aF12.0
aa(lp473
F250.73
aF20.0
aa(lp474
F232.7
aF28.0
aa(lp475
F243.93
aF16.0
aa(lp476
F234.7
aF28.0
aag11
ag348
a(lp477
F230.17
aF16.0
aa(lp478
F250.45
aF18.0
aa(lp479
F220.37
aF29.0
aa(lp480
F236.24
aF16.0
aa(lp481
F219.97
aF29.0
aa(lp482
F264.6
aF19.0
aag383
a(lp483
F245.6
aF28.0
aag94
ag301
a(lp484
F266.32
aF11.0
aa(lp485
F233.42
aF28.0
aa(lp486
F251.52
aF18.0
aa(lp487
F255.62
aF20.0
aa(lp488
F224.33
aF29.0
aag12
a(lp489
F247.13
aF18.0
aa(lp490
F202.06
aF29.0
aa(lp491
F199.95
aF26.0
aa(lp492
F212.05
aF15.0
aa(lp493
F234.65
aF16.0
aa(lp494
F250.6
aF28.0
aa(lp495
F251.03
aF15.0
aa(lp496
F223.34
aF29.0
aag270
ag128
a(lp497
F202.23
aF26.0
aa(lp498
F215.19
aF29.0
aa(lp499
F247.61
aF28.0
aa(lp500
F244.85
aF15.0
aag13
a(lp501
F268.41
aF18.0
aag335
ag414
ag185
a(lp502
F208.92
aF29.0
aa(lp503
F236.36
aF28.0
aa(lp504
F250.12
aF16.0
aa(lp505
F240.05
aF15.0
aa(lp506
F223.98
aF29.0
aa(lp507
F259.39
aF11.0
aa(lp508
F258.56
aF18.0
aag14
a(lp509
F260.17
aF18.0
aag15
ag415
ag234
ag13
a(lp510
F217.9
aF29.0
aa(lp511
F251.57
aF15.0
aa(lp512
F237.69
aF15.0
aa(lp513
F240.99
aF15.0
aa(lp514
F259.26
aF19.0
aa(lp515
F236.43
aF28.0
aag337
ag121
a(lp516
F237.51
aF28.0
aag66
a(lp517
F208.99
aF15.0
aa(lp518
F224.95
aF29.0
aa(lp519
F231.32
aF29.0
aa(lp520
F246.5
aF15.0
aa(lp521
F267.07
aF12.0
aag114
a(lp522
F268.8
aF18.0
aa(lp523
F219.91
aF29.0
aa(lp524
F258.02
aF19.0
aa(lp525
F236.89
aF15.0
aa(lp526
F216.4
aF29.0
aa(lp527
F220.98
aF29.0
aa(lp528
F229.79
aF29.0
aa(lp529
F212.71
aF15.0
aa(lp530
F249.12
aF20.0
aa(lp531
F240.21
aF28.0
aag187
ag306
a(lp532
F264.74
aF19.0
aa(lp533
F218.62
aF14.0
aag16
a(lp534
F232.33
aF16.0
aa(lp535
F233.85
aF27.0
aa(lp536
F248.9
aF28.0
aa(lp537
F257.71
aF12.0
aa(lp538
F205.13
aF26.0
aag201
a(lp539
F229.55
aF18.0
aa(lp540
F253.39
aF15.0
aa(lp541
F244.25
aF15.0
aa(lp542
F245.32
aF19.0
aag296
a(lp543
F231.91
aF15.0
aag332
a(lp544
F214.24
aF29.0
aa(lp545
F236.06
aF29.0
aa(lp546
F251.58
aF19.0
aa(lp547
F259.76
aF19.0
aag236
a(lp548
F247.26
aF18.0
aa(lp549
F211.0
aF14.0
aa(lp550
F257.51
aF20.0
aag407
a(lp551
F216.23
aF28.0
aa(lp552
F206.12
aF29.0
aa(lp553
F237.35
aF28.0
aag553
a(lp554
F222.56
aF29.0
aa(lp555
F214.33
aF26.0
aa(lp556
F205.09
aF29.0
aa(lp557
F219.87
aF29.0
aa(lp558
F239.56
aF28.0
aa(lp559
F243.44
aF28.0
aa(lp560
F244.61
aF28.0
aa(lp561
F252.5
aF18.0
aa(lp562
F231.62
aF28.0
aa(lp563
F251.02
aF18.0
aa(lp564
F218.12
aF29.0
aag249
a(lp565
F236.98
aF28.0
aa(lp566
F238.1
aF28.0
aa(lp567
F264.17
aF20.0
aa(lp568
F255.21
aF28.0
aa(lp569
F262.22
aF18.0
aa(lp570
F214.65
aF28.0
aa(lp571
F227.19
aF19.0
aag282
a(lp572
F251.85
aF28.0
aa(lp573
F224.88
aF28.0
aag17
a(lp574
F236.64
aF28.0
aag457
ag233
ag178
ag463
a(lp575
F236.38
aF27.0
aag563
ag109
a(lp576
F260.82
aF12.0
aag561
ag459
a(lp577
F255.39
aF19.0
aa(lp578
F247.69
aF28.0
aa(lp579
F248.74
aF16.0
aa(lp580
F201.97
aF29.0
aag478
ag538
a(lp581
F229.12
aF19.0
aa(lp582
F255.17
aF15.0
aag199
ag153
ag426
a(lp583
F211.74
aF15.0
aa(lp584
F237.75
aF29.0
aa(lp585
F227.64
aF29.0
aa(lp586
F243.81
aF16.0
aa(lp587
F233.12
aF29.0
aa(lp588
F231.76
aF29.0
aa(lp589
F209.7
aF15.0
aa(lp590
F261.68
aF19.0
aa(lp591
F233.43
aF29.0
aa(lp592
F233.0
aF28.0
aa(lp593
F203.64
aF26.0
aa(lp594
F234.06
aF28.0
aag290
a(lp595
F236.35
aF28.0
aa(lp596
F235.73
aF28.0
aa(lp597
F266.09
aF19.0
aa(lp598
F262.74
aF19.0
aa(lp599
F251.79
aF17.0
aa(lp600
F223.07
aF29.0
aa(lp601
F218.82
aF29.0
aa(lp602
F247.01
aF15.0
aa(lp603
F229.31
aF28.0
aag304
ag229
a(lp604
F229.24
aF28.0
aa(lp605
F251.09
aF15.0
aag354
a(lp606
F228.34
aF29.0
aa(lp607
F230.79
aF29.0
aag18
ag511
ag434
a(lp608
F253.65
aF20.0
aa(lp609
F234.1
aF28.0
aag7
a(lp610
F216.84
aF14.0
aa(lp611
F227.94
aF28.0
aa(lp612
F256.45
aF20.0
aag222
ag606
a(lp613
F251.52
aF20.0
aa(lp614
F200.92
aF29.0
aag532
a(lp615
F228.47
aF18.0
aa(lp616
F246.94
aF16.0
aa(lp617
F237.47
aF28.0
aa(lp618
F207.1
aF29.0
aa(lp619
F212.52
aF15.0
aa(lp620
F242.16
aF15.0
aa(lp621
F209.84
aF14.0
aa(lp622
F265.38
aF11.0
aa(lp623
F218.15
aF14.0
aa(lp624
F218.3
aF29.0
aa(lp625
F222.19
aF29.0
aag518
a(lp626
F257.17
aF12.0
aag369
a(lp627
F215.37
aF15.0
aa(lp628
F252.06
aF20.0
aa(lp629
F203.86
aF29.0
aag207
a(lp630
F218.56
aF29.0
aa(lp631
F254.24
aF20.0
aa(lp632
F222.27
aF29.0
aa(lp633
F263.59
aF19.0
aa(lp634
F229.82
aF28.0
aa(lp635
F219.05
aF29.0
aag568
ag421
ag289
a(lp636
F237.52
aF15.0
aa(lp637
F213.48
aF28.0
aa(lp638
F201.15
aF26.0
aag408
a(lp639
F259.38
aF12.0
aa(lp640
F240.16
aF29.0
aag309
ag232
ag427
ag365
a(lp641
F261.57
aF19.0
aa(lp642
F260.41
aF12.0
aag139
ag269
a(lp643
F231.04
aF15.0
aa(lp644
F269.47
aF18.0
aa(lp645
F263.04
aF12.0
aag68
a(lp646
F255.64
aF15.0
aag646
a(lp647
F221.06
aF29.0
aa(lp648
F246.76
aF28.0
aa(lp649
F219.15
aF29.0
aa(lp650
F234.05
aF28.0
aa(lp651
F214.37
aF26.0
aa(lp652
F266.11
aF18.0
aa(lp653
F213.0
aF15.0
aag336
a(lp654
F252.09
aF18.0
aag474
a(lp655
F211.48
aF14.0
aag504
a(lp656
F234.34
aF15.0
aag79
a(lp657
F259.37
aF12.0
aag88
ag488
a(lp658
F207.65
aF29.0
aa(lp659
F231.8
aF28.0
aa(lp660
F238.7
aF28.0
aa(lp661
F244.23
aF28.0
aa(lp662
F252.28
aF28.0
aag291
a(lp663
F228.56
aF28.0
aa(lp664
F252.87
aF28.0
aag181
a(lp665
F261.53
aF12.0
aa(lp666
F255.42
aF15.0
aa(lp667
F213.27
aF26.0
aag209
a(lp668
F227.75
aF18.0
aa(lp669
F218.1
aF29.0
aa(lp670
F247.43
aF17.0
aa(lp671
F217.09
aF29.0
aa(lp672
F248.4
aF16.0
aag552
a(lp673
F214.48
aF15.0
aa(lp674
F232.05
aF27.0
aag556
a(lp675
F217.29
aF14.0
aa(lp676
F239.37
aF28.0
aa(lp677
F236.59
aF28.0
aa(lp678
F267.28
aF19.0
aa(lp679
F222.37
aF29.0
aag310
ag231
ag174
a(lp680
F261.9
aF12.0
aag244
a(lp681
F211.59
aF15.0
aa(lp682
F216.91
aF14.0
aa(lp683
F253.64
aF19.0
aa(lp684
F264.93
aF19.0
aa(lp685
F231.39
aF18.0
aag184
a(lp686
F240.41
aF28.0
aa(lp687
F256.06
aF12.0
aa(lp688
F224.43
aF29.0
aag540
ag107
a(lp689
F231.25
aF19.0
aag654
ag659
ag103
ag399
a(lp690
F208.37
aF15.0
aag251
ag91
a(lp691
F250.24
aF28.0
aa(lp692
F219.37
aF29.0
aag482
a(lp693
F234.13
aF28.0
aa(lp694
F249.56
aF15.0
aa(lp695
F246.65
aF18.0
aag624
a(lp696
F210.71
aF15.0
aa(lp697
F267.04
aF18.0
aag678
ag126
a(lp698
F246.94
aF20.0
aa(lp699
F215.29
aF26.0
aa(lp700
F239.24
aF15.0
aag206
a(lp701
F246.09
aF15.0
aa(lp702
F260.88
aF12.0
aag14
ag144
ag622
ag190
a(lp703
F252.51
aF20.0
aag250
a(lp704
F245.34
aF15.0
aag142
ag409
ag61
a(lp705
F214.25
aF14.0
aag449
a(lp706
F225.34
aF18.0
aa(lp707
F235.16
aF28.0
aa(lp708
F202.81
aF29.0
aag545
a(lp709
F234.45
aF28.0
aag689
ag559
ag631
a(lp710
F225.8
aF18.0
aa(lp711
F237.7
aF28.0
aag677
a(lp712
F204.96
aF29.0
aag351
ag113
ag679
ag355
ag550
ag625
a(lp713
F243.96
aF28.0
aa(lp714
F227.39
aF29.0
aa(lp715
F230.69
aF18.0
aa(lp716
F232.76
aF18.0
aa(lp717
F201.7
aF29.0
aag464
ag618
a(lp718
F213.53
aF26.0
aa(lp719
F219.5
aF26.0
aag228
ag212
ag650
ag704
a(lp720
F226.5
aF29.0
aa(lp721
F232.98
aF28.0
aa(lp722
F249.34
aF20.0
aag196
ag433
ag466
a(lp723
F203.56
aF29.0
aag10
a(lp724
F244.28
aF28.0
aa(lp725
F261.01
aF12.0
aag220
a(lp726
F238.25
aF15.0
aa(lp727
F209.58
aF15.0
aa(lp728
F222.16
aF29.0
aa(lp729
F241.23
aF28.0
aa(lp730
F252.52
aF15.0
aa(lp731
F262.11
aF19.0
aag613
ag575
ag675
a(lp732
F238.56
aF28.0
aa(lp733
F227.73
aF18.0
aag117
a(lp734
F234.47
aF29.0
aa(lp735
F253.57
aF28.0
aa(lp736
F263.79
aF19.0
aag513
a(lp737
F266.45
aF18.0
aa(lp738
F244.26
aF28.0
aa(lp739
F247.25
aF16.0
aa(lp740
F238.25
aF16.0
aag418
ag705
ag239
ag381
ag595
ag692
ag50
a(lp741
F218.89
aF29.0
aa(lp742
F248.34
aF28.0
aag75
a(lp743
F245.5
aF17.0
aag161
ag357
a(lp744
F239.93
aF28.0
aa(lp745
F231.89
aF28.0
aa(lp746
F267.59
aF18.0
aag159
a(lp747
F229.19
aF18.0
aa(lp748
F248.81
aF20.0
aag533
ag235
a(lp749
F250.07
aF28.0
aa(lp750
F220.21
aF29.0
aa(lp751
F232.0
aF28.0
aa(lp752
F246.61
aF18.0
aa(lp753
F216.06
aF29.0
aag51
ag682
ag515
a(lp754
F264.6
aF18.0
aa(lp755
F269.38
aF19.0
aag134
ag635
ag620
a(lp756
F257.54
aF20.0
aag372
ag486
ag465
a(lp757
F212.94
aF14.0
aa(lp758
F210.51
aF15.0
aag252
ag541
ag140
ag600
ag64
a(lp759
F223.49
aF29.0
aa(lp760
F201.55
aF29.0
aag719
ag180
a(lp761
F234.22
aF28.0
aag736
a(lp762
F227.29
aF18.0
aa(lp763
F219.33
aF29.0
aag756
ag484
ag18
ag711
ag280
ag729
a(lp764
F219.63
aF29.0
aa(lp765
F202.94
aF29.0
aa(lp766
F227.91
aF29.0
aag648
a(lp767
F237.5
aF16.0
aa(lp768
F232.22
aF29.0
aa(lp769
F247.08
aF20.0
aag703
a(lp770
F219.08
aF29.0
aag521
a(lp771
F226.75
aF18.0
aag108
ag502
ag503
ag171
ag685
a(lp772
F251.91
aF16.0
aa(lp773
F231.33
aF18.0
aag15
ag349
ag716
ag176
a(lp774
F234.25
aF16.0
aag661
a(lp775
F235.53
aF16.0
aa(lp776
F234.75
aF28.0
aag472
a(lp777
F249.74
aF17.0
aag424
a(lp778
F225.62
aF29.0
aa(lp779
F239.96
aF28.0
aag81
ag658
ag193
ag528
ag779
ag612
ag610
a(lp780
F216.87
aF28.0
aa(lp781
F202.39
aF26.0
aa(lp782
F250.37
aF17.0
aag623
ag755
ag3
a(lp783
F201.52
aF26.0
aag156
a(lp784
F237.06
aF28.0
aa(lp785
F240.99
aF16.0
aa(lp786
F241.78
aF14.0
aa(lp787
F234.25
aF28.0
aa(lp788
F204.51
aF29.0
aag585
a(lp789
F200.66
aF27.0
aa(lp790
F201.47
aF29.0
aa(lp791
F215.03
aF29.0
aa(lp792
F221.61
aF29.0
aag554
ag146
ag316
ag51
a(lp793
F247.87
aF18.0
aa(lp794
F210.34
aF27.0
aag707
ag118
ag323
ag636
a(lp795
F262.68
aF19.0
aag582
a(lp796
F232.99
aF27.0
aa(lp797
F231.44
aF29.0
aag469
a(lp798
F245.79
aF16.0
aa(lp799
F235.03
aF15.0
aa(lp800
F245.79
aF18.0
aa(lp801
F236.84
aF15.0
aa(lp802
F235.79
aF28.0
aa(lp803
F260.17
aF19.0
aasS'actual_pf'
p804
(lp805
g295
ag51
ag51
ag386
ag52
ag52
as.