(dp0
S'complaint_data'
p1
(lp2
(lp3
F245.16
aF28.0
aa(lp4
F224.95
aF29.0
aag4
a(lp5
F246.76
aF28.0
aa(lp6
F222.63
aF29.0
aa(lp7
F220.42
aF29.0
aa(lp8
F223.42
aF29.0
aa(lp9
F224.07
aF29.0
aag5
a(lp10
F224.33
aF29.0
aa(lp11
F223.3
aF29.0
aa(lp12
F246.03
aF28.0
aa(lp13
F243.37
aF29.0
aa(lp14
F246.5
aF28.0
aa(lp15
F222.16
aF29.0
aa(lp16
F245.94
aF28.0
aag12
a(lp17
F221.73
aF29.0
aa(lp18
F225.16
aF29.0
aa(lp19
F248.02
aF28.0
aag8
ag16
a(lp20
F247.17
aF28.0
aag19
a(lp21
F244.59
aF28.0
aag18
ag9
a(lp22
F245.2
aF28.0
aa(lp23
F224.18
aF29.0
aa(lp24
F244.61
aF28.0
aag23
a(lp25
F245.6
aF28.0
aag11
ag3
a(lp26
F221.17
aF29.0
aa(lp27
F247.28
aF28.0
aag20
a(lp28
F246.16
aF28.0
aa(lp29
F221.06
aF29.0
aa(lp30
F242.79
aF29.0
aa(lp31
F224.51
aF29.0
aag10
ag14
a(lp32
F221.62
aF29.0
aag27
a(lp33
F222.27
aF29.0
aa(lp34
F244.26
aF28.0
aag31
asS'convex_hull_y'
p35
(lp36
cnumpy.core.multiarray
scalar
p37
(cnumpy
dtype
p38
(S'f8'
p39
I0
I1
tp40
Rp41
(I3
S'<'
p42
NNNI-1
I-1
I0
tp43
bS'#J\x96\xd6Z\xa8\n@'
p44
tp45
Rp46
ag37
(g41
S'\x1f\xfe\xcd\xcb8\xf0\n@'
p47
tp48
Rp49
ag37
(g41
S'\x1f\xfe\xcd\xcb8\xf0\n@'
p50
tp51
Rp52
ag37
(g41
S'#J\x96\xd6Z\xa8\n@'
p53
tp54
Rp55
asS'convex_hull_x'
p56
(lp57
g37
(g41
S'\xc3\xe0\xafg\xd5\r\x16@'
p58
tp59
Rp60
ag37
(g41
S'\x14\xfd\xd9\xf1s\xfa\x15@'
p61
tp62
Rp63
ag37
(g41
S'pMB\x14\x07\x95\x15@'
p64
tp65
Rp66
ag37
(g41
S'\x1ew0\xda0\xfe\x15@'
p67
tp68
Rp69
asS'current_pf'
p70
(lp71
(lp72
F240.16
aF29.0
aag22
a(lp73
F250.73
aF20.0
aa(lp74
F251.52
aF18.0
aa(lp75
F266.54
aF12.0
aasS'all_data_dep'
p76
(lp77
(lp78
F216.84
aF14.0
aa(lp79
F205.13
aF26.0
aa(lp80
F232.98
aF28.0
aa(lp81
F232.96
aF18.0
aag74
a(lp82
F258.16
aF12.0
aa(lp83
F218.62
aF14.0
aa(lp84
F259.38
aF12.0
aa(lp85
F247.08
aF19.0
aa(lp86
F249.12
aF20.0
aag73
a(lp87
F203.19
aF29.0
aa(lp88
F264.18
aF12.0
aa(lp89
F263.04
aF12.0
aag72
a(lp90
F232.03
aF28.0
aa(lp91
F236.84
aF15.0
aa(lp92
F236.31
aF28.0
aa(lp93
F246.01
aF19.0
aa(lp94
F206.62
aF29.0
aa(lp95
F232.29
aF19.0
aa(lp96
F263.57
aF12.0
aa(lp97
F267.17
aF19.0
aa(lp98
F251.79
aF28.0
aa(lp99
F251.24
aF16.0
aa(lp100
F237.69
aF15.0
aa(lp101
F251.91
aF16.0
aa(lp102
F218.32
aF14.0
aag94
a(lp103
F254.34
aF28.0
aa(lp104
F245.79
aF16.0
aa(lp105
F215.02
aF28.0
aa(lp106
F244.91
aF19.0
aag79
a(lp107
F265.4
aF12.0
aa(lp108
F214.65
aF28.0
aa(lp109
F215.85
aF14.0
aa(lp110
F205.09
aF29.0
aa(lp111
F269.52
aF19.0
aa(lp112
F232.76
aF18.0
aa(lp113
F251.25
aF18.0
aa(lp114
F263.79
aF19.0
aa(lp115
F224.49
aF18.0
aa(lp116
F248.78
aF15.0
aa(lp117
F264.93
aF19.0
aa(lp118
F234.47
aF29.0
aa(lp119
F251.81
aF28.0
aa(lp120
F227.19
aF19.0
aa(lp121
F217.29
aF14.0
aa(lp122
F240.98
aF28.0
aag3
a(lp123
F266.19
aF12.0
aa(lp124
F227.39
aF29.0
aag4
a(lp125
F264.93
aF19.0
aa(lp126
F251.52
aF20.0
aa(lp127
F233.28
aF19.0
aa(lp128
F204.51
aF29.0
aa(lp129
F266.03
aF12.0
aa(lp130
F237.75
aF29.0
aa(lp131
F220.82
aF29.0
aa(lp132
F222.09
aF29.0
aa(lp133
F247.25
aF16.0
aag103
a(lp134
F237.1
aF28.0
aa(lp135
F215.47
aF14.0
aa(lp136
F255.32
aF28.0
aa(lp137
F219.83
aF28.0
aa(lp138
F240.43
aF28.0
aa(lp139
F235.37
aF28.0
aa(lp140
F254.5
aF28.0
aa(lp141
F216.92
aF14.0
aa(lp142
F230.74
aF29.0
aag4
a(lp143
F251.32
aF28.0
aa(lp144
F211.74
aF15.0
aa(lp145
F212.52
aF15.0
aa(lp146
F201.9
aF26.0
aa(lp147
F245.34
aF15.0
aa(lp148
F244.03
aF15.0
aa(lp149
F266.11
aF18.0
aa(lp150
F264.6
aF18.0
aa(lp151
F252.27
aF16.0
aa(lp152
F261.09
aF18.0
aa(lp153
F258.05
aF20.0
aa(lp154
F250.86
aF20.0
aa(lp155
F233.28
aF19.0
aa(lp156
F218.1
aF29.0
aa(lp157
F223.21
aF29.0
aa(lp158
F215.13
aF27.0
aa(lp159
F201.52
aF26.0
aa(lp160
F234.65
aF29.0
aa(lp161
F216.4
aF29.0
aa(lp162
F235.85
aF28.0
aa(lp163
F202.23
aF26.0
aag132
a(lp164
F249.62
aF16.0
aa(lp165
F249.68
aF15.0
aa(lp166
F251.01
aF28.0
aa(lp167
F247.01
aF15.0
aa(lp168
F260.41
aF12.0
aag5
a(lp169
F234.08
aF18.0
aa(lp170
F236.59
aF28.0
aa(lp171
F251.98
aF28.0
aa(lp172
F226.65
aF29.0
aa(lp173
F253.26
aF20.0
aa(lp174
F251.0
aF19.0
aa(lp175
F252.04
aF15.0
aa(lp176
F218.82
aF29.0
aa(lp177
F211.19
aF14.0
aa(lp178
F252.13
aF15.0
aa(lp179
F205.74
aF29.0
aa(lp180
F250.43
aF18.0
aa(lp181
F252.68
aF18.0
aa(lp182
F202.81
aF29.0
aa(lp183
F254.24
aF20.0
aag166
a(lp184
F247.08
aF20.0
aag123
a(lp185
F200.82
aF29.0
aa(lp186
F242.5
aF15.0
aa(lp187
F251.43
aF28.0
aa(lp188
F252.51
aF20.0
aa(lp189
F268.38
aF19.0
aa(lp190
F240.05
aF15.0
aa(lp191
F238.25
aF16.0
aag92
a(lp192
F243.44
aF28.0
aa(lp193
F235.95
aF27.0
aa(lp194
F232.64
aF28.0
aa(lp195
F218.43
aF26.0
aa(lp196
F231.33
aF16.0
aa(lp197
F248.54
aF20.0
aa(lp198
F200.38
aF29.0
aa(lp199
F212.71
aF15.0
aag162
a(lp200
F246.09
aF15.0
aa(lp201
F252.06
aF20.0
aa(lp202
F218.15
aF14.0
aa(lp203
F207.89
aF29.0
aa(lp204
F219.5
aF26.0
aa(lp205
F249.34
aF20.0
aa(lp206
F260.5
aF19.0
aa(lp207
F215.19
aF29.0
aa(lp208
F208.05
aF29.0
aa(lp209
F262.68
aF19.0
aa(lp210
F220.21
aF29.0
aa(lp211
F224.3
aF28.0
aa(lp212
F269.38
aF19.0
aa(lp213
F249.81
aF19.0
aa(lp214
F268.8
aF18.0
aa(lp215
F226.57
aF19.0
aa(lp216
F254.47
aF28.0
aa(lp217
F215.48
aF28.0
aa(lp218
F235.23
aF27.0
aa(lp219
F256.22
aF15.0
aa(lp220
F227.64
aF29.0
aa(lp221
F239.24
aF15.0
aa(lp222
F255.64
aF15.0
aa(lp223
F216.22
aF26.0
aa(lp224
F227.75
aF18.0
aa(lp225
F256.47
aF19.0
aa(lp226
F222.56
aF29.0
aa(lp227
F202.39
aF26.0
aa(lp228
F242.16
aF15.0
aa(lp229
F231.77
aF18.0
aa(lp230
F252.82
aF28.0
aa(lp231
F251.41
aF20.0
aag6
a(lp232
F235.16
aF28.0
aa(lp233
F243.08
aF14.0
aa(lp234
F239.37
aF28.0
aa(lp235
F213.1
aF15.0
aa(lp236
F236.36
aF28.0
aa(lp237
F250.04
aF15.0
aa(lp238
F235.12
aF28.0
aa(lp239
F240.41
aF28.0
aa(lp240
F243.93
aF16.0
aag213
a(lp241
F252.62
aF15.0
aa(lp242
F215.88
aF14.0
aa(lp243
F236.38
aF27.0
aa(lp244
F231.44
aF29.0
aa(lp245
F256.06
aF12.0
aa(lp246
F216.23
aF28.0
aa(lp247
F266.12
aF12.0
aa(lp248
F217.47
aF14.0
aag203
ag129
a(lp249
F229.64
aF19.0
aa(lp250
F244.23
aF28.0
aag165
ag7
a(lp251
F239.79
aF15.0
aa(lp252
F256.25
aF28.0
aa(lp253
F262.66
aF19.0
aa(lp254
F220.08
aF28.0
aa(lp255
F224.43
aF29.0
aa(lp256
F259.26
aF19.0
aa(lp257
F214.37
aF26.0
aa(lp258
F249.83
aF18.0
aa(lp259
F229.95
aF19.0
aa(lp260
F237.47
aF28.0
aa(lp261
F251.91
aF18.0
aa(lp262
F230.14
aF18.0
aa(lp263
F236.98
aF28.0
aa(lp264
F251.74
aF28.0
aa(lp265
F258.02
aF19.0
aa(lp266
F239.96
aF28.0
aa(lp267
F250.44
aF15.0
aa(lp268
F214.15
aF15.0
aa(lp269
F256.18
aF19.0
aa(lp270
F265.38
aF11.0
aa(lp271
F233.43
aF29.0
aa(lp272
F240.07
aF16.0
aa(lp273
F234.05
aF28.0
aa(lp274
F247.13
aF18.0
aa(lp275
F258.83
aF20.0
aa(lp276
F214.28
aF29.0
aa(lp277
F214.24
aF29.0
aa(lp278
F254.39
aF15.0
aa(lp279
F265.82
aF19.0
aa(lp280
F232.05
aF27.0
aag98
a(lp281
F235.7
aF28.0
aa(lp282
F240.34
aF28.0
aa(lp283
F228.34
aF29.0
aag8
a(lp284
F227.78
aF29.0
aa(lp285
F232.96
aF15.0
aa(lp286
F241.7
aF29.0
aa(lp287
F244.12
aF14.0
aa(lp288
F248.4
aF16.0
aa(lp289
F238.7
aF28.0
aa(lp290
F236.53
aF29.0
aa(lp291
F234.87
aF29.0
aa(lp292
F239.59
aF27.0
aa(lp293
F249.41
aF28.0
aag119
a(lp294
F223.07
aF29.0
aag127
a(lp295
F243.26
aF28.0
aa(lp296
F252.58
aF20.0
aag188
a(lp297
F240.62
aF16.0
aa(lp298
F227.91
aF29.0
aag228
a(lp299
F251.3
aF18.0
aa(lp300
F203.93
aF29.0
aa(lp301
F237.41
aF28.0
aa(lp302
F256.45
aF20.0
aa(lp303
F234.68
aF19.0
aa(lp304
F203.56
aF29.0
aag9
a(lp305
F227.73
aF18.0
aag183
a(lp306
F233.43
aF15.0
aa(lp307
F219.08
aF29.0
aa(lp308
F231.31
aF28.0
aa(lp309
F250.24
aF28.0
aa(lp310
F233.85
aF27.0
aa(lp311
F209.58
aF15.0
aa(lp312
F250.62
aF19.0
aa(lp313
F219.37
aF29.0
aa(lp314
F246.81
aF28.0
aa(lp315
F208.92
aF29.0
aag155
a(lp316
F267.04
aF18.0
aag252
ag5
a(lp317
F236.35
aF28.0
aa(lp318
F230.94
aF19.0
aa(lp319
F232.59
aF28.0
aa(lp320
F223.98
aF29.0
aa(lp321
F205.99
aF26.0
aa(lp322
F240.35
aF28.0
aa(lp323
F206.43
aF29.0
aa(lp324
F222.37
aF29.0
aag296
ag261
a(lp325
F257.33
aF15.0
aa(lp326
F270.4
aF19.0
aa(lp327
F201.97
aF29.0
aa(lp328
F220.87
aF28.0
aa(lp329
F253.51
aF28.0
aa(lp330
F243.79
aF14.0
aa(lp331
F238.27
aF28.0
aa(lp332
F242.43
aF28.0
aa(lp333
F244.25
aF15.0
aag181
a(lp334
F214.25
aF14.0
aa(lp335
F231.69
aF18.0
aa(lp336
F240.99
aF15.0
aag267
a(lp337
F229.21
aF18.0
aa(lp338
F248.03
aF19.0
aag225
a(lp339
F263.19
aF12.0
aa(lp340
F236.23
aF16.0
aa(lp341
F241.23
aF28.0
aa(lp342
F234.87
aF28.0
aag269
a(lp343
F244.28
aF28.0
aa(lp344
F214.05
aF15.0
aa(lp345
F205.71
aF29.0
aa(lp346
F241.02
aF28.0
aag10
a(lp347
F226.7
aF29.0
aa(lp348
F247.31
aF18.0
aa(lp349
F240.99
aF16.0
aa(lp350
F248.58
aF18.0
aa(lp351
F234.34
aF15.0
aa(lp352
F237.36
aF28.0
aa(lp353
F250.45
aF18.0
aa(lp354
F238.73
aF28.0
aa(lp355
F239.93
aF28.0
aag11
a(lp356
F226.13
aF29.0
aa(lp357
F254.14
aF20.0
aag12
ag13
a(lp358
F219.08
aF29.0
aa(lp359
F252.45
aF18.0
aa(lp360
F218.23
aF14.0
aa(lp361
F199.95
aF26.0
aa(lp362
F232.7
aF28.0
aa(lp363
F227.53
aF19.0
aag303
ag138
a(lp364
F264.18
aF11.0
aa(lp365
F239.32
aF15.0
aa(lp366
F233.42
aF28.0
aag242
ag14
ag332
a(lp367
F217.55
aF26.0
aa(lp368
F242.86
aF28.0
aa(lp369
F237.44
aF15.0
aag328
a(lp370
F263.72
aF19.0
aa(lp371
F227.12
aF29.0
aa(lp372
F237.51
aF28.0
aag238
a(lp373
F235.51
aF28.0
aa(lp374
F269.47
aF18.0
aa(lp375
F261.53
aF12.0
aag15
a(lp376
F248.06
aF15.0
aa(lp377
F218.89
aF29.0
aa(lp378
F267.17
aF12.0
aa(lp379
F217.07
aF29.0
aa(lp380
F239.04
aF28.0
aa(lp381
F256.23
aF15.0
aag16
a(lp382
F236.43
aF28.0
aag12
a(lp383
F225.77
aF28.0
aa(lp384
F261.08
aF12.0
aag368
a(lp385
F257.51
aF20.0
aa(lp386
F253.49
aF28.0
aa(lp387
F250.87
aF28.0
aa(lp388
F227.29
aF18.0
aag307
a(lp389
F208.37
aF15.0
aag186
a(lp390
F211.27
aF15.0
aa(lp391
F252.5
aF18.0
aa(lp392
F221.33
aF29.0
aa(lp393
F231.0
aF29.0
aa(lp394
F248.34
aF28.0
aa(lp395
F250.37
aF17.0
aag346
a(lp396
F231.39
aF18.0
aa(lp397
F241.97
aF28.0
aa(lp398
F251.71
aF28.0
aa(lp399
F235.97
aF15.0
aa(lp400
F251.16
aF28.0
aa(lp401
F253.57
aF28.0
aag193
a(lp402
F207.1
aF29.0
aa(lp403
F255.21
aF28.0
aa(lp404
F239.06
aF15.0
aa(lp405
F266.32
aF11.0
aag216
a(lp406
F264.64
aF11.0
aag334
ag370
a(lp407
F267.43
aF12.0
aa(lp408
F209.7
aF15.0
aa(lp409
F218.12
aF29.0
aag403
a(lp410
F230.79
aF29.0
aa(lp411
F219.4
aF29.0
aa(lp412
F228.65
aF19.0
aa(lp413
F249.74
aF17.0
aag323
a(lp414
F223.49
aF29.0
aag406
ag17
ag218
a(lp415
F212.92
aF29.0
aa(lp416
F230.59
aF28.0
aa(lp417
F240.21
aF28.0
aag416
ag237
a(lp418
F249.36
aF18.0
aa(lp419
F247.43
aF17.0
aa(lp420
F233.0
aF28.0
aa(lp421
F225.62
aF29.0
aa(lp422
F261.43
aF12.0
aa(lp423
F232.65
aF27.0
aa(lp424
F213.48
aF28.0
aa(lp425
F252.68
aF19.0
aag83
a(lp426
F229.82
aF28.0
aag114
ag18
a(lp427
F252.77
aF28.0
aag381
a(lp428
F264.17
aF20.0
aag136
a(lp429
F246.73
aF20.0
aa(lp430
F232.2
aF28.0
aa(lp431
F234.45
aF28.0
aag121
a(lp432
F233.79
aF28.0
aa(lp433
F243.78
aF15.0
aa(lp434
F248.9
aF28.0
aa(lp435
F247.47
aF16.0
aag360
a(lp436
F216.91
aF29.0
aa(lp437
F231.63
aF27.0
aa(lp438
F237.23
aF28.0
aa(lp439
F234.06
aF28.0
aa(lp440
F201.55
aF29.0
aa(lp441
F215.94
aF14.0
aa(lp442
F219.31
aF28.0
aa(lp443
F253.65
aF20.0
aag342
ag19
a(lp444
F260.77
aF12.0
aa(lp445
F212.45
aF26.0
aa(lp446
F211.59
aF15.0
aag8
a(lp447
F248.65
aF18.0
aag266
ag16
a(lp448
F219.63
aF29.0
aag20
ag404
a(lp449
F264.6
aF19.0
aag107
a(lp450
F243.81
aF16.0
aag174
a(lp451
F252.87
aF28.0
aa(lp452
F244.85
aF15.0
aa(lp453
F218.3
aF29.0
aag362
a(lp454
F261.68
aF19.0
aa(lp455
F201.83
aF29.0
aag270
a(lp456
F268.42
aF19.0
aa(lp457
F250.07
aF28.0
aa(lp458
F200.66
aF27.0
aa(lp459
F224.88
aF28.0
aa(lp460
F260.82
aF12.0
aa(lp461
F203.64
aF26.0
aa(lp462
F215.29
aF26.0
aag336
ag405
a(lp463
F230.74
aF29.0
aa(lp464
F245.32
aF19.0
aa(lp465
F252.28
aF28.0
aa(lp466
F225.5
aF29.0
aa(lp467
F247.79
aF15.0
aa(lp468
F252.89
aF16.0
aa(lp469
F207.12
aF29.0
aa(lp470
F252.52
aF15.0
aa(lp471
F253.1
aF20.0
aag169
ag430
a(lp472
F264.47
aF20.0
aa(lp473
F232.49
aF28.0
aa(lp474
F253.39
aF15.0
aag204
a(lp475
F235.92
aF15.0
aag402
a(lp476
F212.45
aF15.0
aa(lp477
F242.09
aF28.0
aag352
ag308
a(lp478
F248.43
aF17.0
aa(lp479
F202.69
aF29.0
aag247
ag321
a(lp480
F246.61
aF18.0
aag275
a(lp481
F231.25
aF19.0
aa(lp482
F230.57
aF18.0
aa(lp483
F201.15
aF26.0
aa(lp484
F266.45
aF18.0
aa(lp485
F254.27
aF16.0
aa(lp486
F225.34
aF18.0
aa(lp487
F247.69
aF28.0
aa(lp488
F223.52
aF29.0
aa(lp489
F228.56
aF28.0
aa(lp490
F221.61
aF29.0
aag380
a(lp491
F210.71
aF15.0
aa(lp492
F262.11
aF19.0
aa(lp493
F234.75
aF28.0
aa(lp494
F229.24
aF28.0
aag407
a(lp495
F257.54
aF20.0
aa(lp496
F241.23
aF28.0
aa(lp497
F231.32
aF29.0
aag19
a(lp498
F234.25
aF16.0
aa(lp499
F250.6
aF28.0
aag283
a(lp500
F255.02
aF19.0
aa(lp501
F262.01
aF12.0
aa(lp502
F228.86
aF19.0
aa(lp503
F235.21
aF28.0
aa(lp504
F220.57
aF29.0
aa(lp505
F227.44
aF29.0
aa(lp506
F253.15
aF18.0
aa(lp507
F236.64
aF28.0
aa(lp508
F249.99
aF28.0
aa(lp509
F234.05
aF28.0
aa(lp510
F218.02
aF27.0
aa(lp511
F223.34
aF29.0
aag438
a(lp512
F216.3
aF28.0
aag111
ag345
a(lp513
F237.52
aF15.0
aag365
a(lp514
F233.12
aF29.0
aa(lp515
F259.5
aF12.0
aa(lp516
F219.91
aF29.0
aag506
a(lp517
F249.44
aF28.0
aa(lp518
F255.43
aF28.0
aa(lp519
F244.92
aF16.0
aa(lp520
F226.5
aF29.0
aa(lp521
F239.56
aF28.0
aa(lp522
F247.67
aF18.0
aag231
ag248
a(lp523
F255.17
aF15.0
aa(lp524
F232.52
aF18.0
aa(lp525
F221.44
aF29.0
aa(lp526
F229.19
aF18.0
aa(lp527
F258.56
aF18.0
aa(lp528
F236.24
aF16.0
aa(lp529
F252.09
aF18.0
aa(lp530
F247.8
aF28.0
aa(lp531
F226.57
aF29.0
aa(lp532
F258.9
aF12.0
aa(lp533
F227.18
aF29.0
aa(lp534
F251.57
aF15.0
aa(lp535
F267.28
aF19.0
aa(lp536
F238.23
aF28.0
aag382
a(lp537
F226.13
aF18.0
aa(lp538
F240.54
aF15.0
aa(lp539
F224.99
aF19.0
aa(lp540
F249.04
aF28.0
aag535
a(lp541
F236.58
aF28.0
aag21
a(lp542
F232.14
aF19.0
aa(lp543
F231.04
aF15.0
aa(lp544
F233.74
aF16.0
aa(lp545
F228.27
aF18.0
aag449
ag18
a(lp546
F251.25
aF15.0
aa(lp547
F231.76
aF29.0
aa(lp548
F219.95
aF27.0
aa(lp549
F266.21
aF20.0
aa(lp550
F231.33
aF18.0
aa(lp551
F264.16
aF19.0
aa(lp552
F211.0
aF14.0
aa(lp553
F242.56
aF28.0
aa(lp554
F249.25
aF18.0
aa(lp555
F265.65
aF12.0
aa(lp556
F229.79
aF29.0
aag254
a(lp557
F255.47
aF20.0
aa(lp558
F217.7
aF29.0
aa(lp559
F231.8
aF28.0
aag171
ag9
a(lp560
F266.09
aF19.0
aa(lp561
F232.22
aF28.0
aa(lp562
F235.73
aF28.0
aag212
a(lp563
F215.31
aF14.0
aa(lp564
F264.74
aF12.0
aag294
a(lp565
F224.34
aF29.0
aa(lp566
F236.06
aF29.0
aa(lp567
F227.99
aF18.0
aa(lp568
F255.44
aF12.0
aag341
ag433
a(lp569
F257.17
aF19.0
aa(lp570
F259.76
aF19.0
aag524
a(lp571
F219.87
aF29.0
aag22
ag139
ag292
ag241
ag23
ag253
ag75
a(lp572
F246.94
aF20.0
aag400
a(lp573
F251.58
aF19.0
aa(lp574
F214.0
aF28.0
aa(lp575
F249.46
aF28.0
aa(lp576
F227.94
aF28.0
aa(lp577
F261.57
aF19.0
aa(lp578
F204.96
aF29.0
aa(lp579
F238.75
aF28.0
aa(lp580
F231.34
aF28.0
aa(lp581
F228.47
aF18.0
aag564
a(lp582
F205.36
aF29.0
aa(lp583
F254.59
aF15.0
aa(lp584
F234.7
aF28.0
aag442
a(lp585
F222.56
aF29.0
aa(lp586
F247.99
aF28.0
aa(lp587
F234.65
aF16.0
aag378
a(lp588
F268.58
aF19.0
aag95
a(lp589
F226.75
aF18.0
aa(lp590
F268.41
aF18.0
aa(lp591
F213.85
aF15.0
aag24
ag250
ag229
ag469
a(lp592
F237.06
aF28.0
aa(lp593
F269.47
aF19.0
aa(lp594
F241.69
aF15.0
aa(lp595
F233.12
aF28.0
aa(lp596
F265.42
aF19.0
aag23
a(lp597
F246.65
aF18.0
aa(lp598
F232.33
aF16.0
aag313
a(lp599
F253.67
aF18.0
aa(lp600
F239.51
aF15.0
aa(lp601
F223.01
aF29.0
aa(lp602
F221.01
aF29.0
aag25
a(lp603
F251.02
aF18.0
aa(lp604
F248.74
aF16.0
aa(lp605
F247.61
aF28.0
aa(lp606
F262.22
aF18.0
aag226
ag525
a(lp607
F251.52
aF18.0
aa(lp608
F216.91
aF29.0
aa(lp609
F212.44
aF15.0
aa(lp610
F266.39
aF12.0
aa(lp611
F234.13
aF28.0
aa(lp612
F217.29
aF29.0
aa(lp613
F218.4
aF26.0
aa(lp614
F216.87
aF28.0
aa(lp615
F251.24
aF16.0
aag399
a(lp616
F250.05
aF28.0
aa(lp617
F260.17
aF19.0
aa(lp618
F216.06
aF29.0
aa(lp619
F251.31
aF15.0
aa(lp620
F236.89
aF15.0
aa(lp621
F229.55
aF18.0
aa(lp622
F255.42
aF15.0
aa(lp623
F256.94
aF11.0
aa(lp624
F253.15
aF19.0
aa(lp625
F216.91
aF14.0
aa(lp626
F214.33
aF26.0
aa(lp627
F219.33
aF29.0
aa(lp628
F213.41
aF15.0
aa(lp629
F218.56
aF29.0
aa(lp630
F254.42
aF28.0
aag619
a(lp631
F230.47
aF29.0
aag513
ag222
ag625
a(lp632
F245.21
aF16.0
aa(lp633
F241.78
aF28.0
aag387
ag11
a(lp634
F237.87
aF15.0
aa(lp635
F232.64
aF29.0
aag202
a(lp636
F255.39
aF19.0
aag302
a(lp637
F220.98
aF29.0
aa(lp638
F232.99
aF27.0
aa(lp639
F251.79
aF17.0
aag3
a(lp640
F239.27
aF29.0
aag81
ag456
ag192
a(lp641
F237.7
aF28.0
aa(lp642
F245.56
aF16.0
aag559
a(lp643
F234.22
aF28.0
aa(lp644
F219.05
aF29.0
aa(lp645
F231.22
aF29.0
aa(lp646
F245.79
aF18.0
aag324
a(lp647
F238.56
aF28.0
aag582
a(lp648
F231.91
aF15.0
aa(lp649
F246.32
aF16.0
aag315
a(lp650
F243.52
aF28.0
aa(lp651
F206.12
aF29.0
aag219
a(lp652
F218.73
aF29.0
aa(lp653
F230.13
aF28.0
aa(lp654
F237.9
aF28.0
aa(lp655
F243.12
aF28.0
aa(lp656
F219.64
aF14.0
aa(lp657
F249.34
aF18.0
aa(lp658
F247.27
aF20.0
aa(lp659
F211.59
aF15.0
aa(lp660
F232.22
aF29.0
aag367
a(lp661
F242.55
aF15.0
aag26
ag534
a(lp662
F247.26
aF18.0
aag371
a(lp663
F237.35
aF28.0
aa(lp664
F203.98
aF29.0
aa(lp665
F235.85
aF28.0
aa(lp666
F253.47
aF15.0
aa(lp667
F208.99
aF15.0
aa(lp668
F214.89
aF29.0
aag529
ag141
ag369
a(lp669
F248.89
aF20.0
aa(lp670
F267.59
aF18.0
aag195
ag427
a(lp671
F264.74
aF19.0
aag600
a(lp672
F250.26
aF15.0
aag147
a(lp673
F225.8
aF18.0
aa(lp674
F255.62
aF20.0
aa(lp675
F228.72
aF29.0
aag500
a(lp676
F206.9
aF26.0
aa(lp677
F254.13
aF20.0
aag27
a(lp678
F215.85
aF28.0
aa(lp679
F233.15
aF29.0
aa(lp680
F259.37
aF12.0
aag615
a(lp681
F248.81
aF20.0
aag531
ag580
ag563
a(lp682
F219.39
aF29.0
aa(lp683
F207.65
aF29.0
aa(lp684
F204.96
aF29.0
aag538
ag208
ag441
a(lp685
F228.3
aF29.0
aag20
ag335
a(lp686
F249.66
aF16.0
aa(lp687
F248.6
aF16.0
aa(lp688
F249.28
aF20.0
aa(lp689
F232.47
aF28.0
aa(lp690
F202.06
aF29.0
aag616
ag509
ag556
ag232
ag88
ag466
ag325
ag142
ag533
ag170
a(lp691
F203.19
aF29.0
aag290
a(lp692
F232.0
aF28.0
aa(lp693
F261.36
aF19.0
aa(lp694
F217.09
aF29.0
aag279
ag364
ag28
a(lp695
F235.53
aF16.0
aa(lp696
F253.64
aF19.0
aag391
ag322
a(lp697
F228.28
aF28.0
aag333
ag566
a(lp698
F238.1
aF28.0
aag607
ag126
a(lp699
F249.56
aF15.0
aa(lp700
F253.74
aF28.0
aa(lp701
F202.68
aF29.0
aa(lp702
F210.24
aF14.0
aag281
ag102
ag29
a(lp703
F254.89
aF19.0
aa(lp704
F263.59
aF19.0
aag151
a(lp705
F217.29
aF14.0
aag30
ag31
ag671
a(lp706
F219.87
aF29.0
aag676
a(lp707
F230.17
aF16.0
aa(lp708
F229.31
aF28.0
aag243
ag603
a(lp709
F238.78
aF16.0
aag536
a(lp710
F221.25
aF29.0
aag644
ag488
ag683
ag651
a(lp711
F257.04
aF12.0
aag189
ag153
a(lp712
F231.62
aF28.0
aa(lp713
F218.96
aF28.0
aa(lp714
F237.5
aF16.0
aa(lp715
F262.74
aF19.0
aa(lp716
F230.24
aF28.0
aa(lp717
F261.01
aF12.0
aa(lp718
F242.46
aF16.0
aag555
a(lp719
F260.69
aF19.0
aag510
ag110
a(lp720
F252.81
aF28.0
aa(lp721
F211.48
aF14.0
aag10
a(lp722
F234.56
aF28.0
aa(lp723
F213.53
aF26.0
aa(lp724
F251.09
aF15.0
aa(lp725
F226.88
aF18.0
aa(lp726
F231.89
aF28.0
aa(lp727
F215.96
aF28.0
aag546
a(lp728
F202.94
aF29.0
aag481
a(lp729
F249.3
aF19.0
aa(lp730
F251.03
aF15.0
aag295
a(lp731
F257.68
aF12.0
aag518
a(lp732
F218.04
aF28.0
aag599
a(lp733
F234.1
aF28.0
aa(lp734
F230.77
aF19.0
aag583
a(lp735
F238.25
aF15.0
aa(lp736
F213.86
aF29.0
aag220
ag116
a(lp737
F252.14
aF20.0
aa(lp738
F213.27
aF26.0
aa(lp739
F222.19
aF29.0
aa(lp740
F250.12
aF16.0
aa(lp741
F222.24
aF29.0
aa(lp742
F246.94
aF16.0
aa(lp743
F201.47
aF29.0
aag613
ag675
ag14
a(lp744
F250.57
aF16.0
aa(lp745
F203.86
aF29.0
aa(lp746
F233.54
aF28.0
aag75
ag656
a(lp747
F207.75
aF15.0
aag74
ag397
ag663
a(lp748
F233.0
aF29.0
aa(lp749
F212.94
aF14.0
aa(lp750
F236.89
aF29.0
aa(lp751
F241.78
aF14.0
aag641
a(lp752
F259.39
aF11.0
aa(lp753
F217.9
aF29.0
aag109
ag249
ag579
a(lp754
F219.15
aF29.0
aa(lp755
F215.37
aF15.0
aa(lp756
F267.07
aF12.0
aa(lp757
F214.38
aF15.0
aag32
a(lp758
F220.37
aF29.0
aag542
ag27
a(lp759
F251.93
aF28.0
aag482
a(lp760
F259.38
aF12.0
aa(lp761
F245.5
aF17.0
aa(lp762
F243.96
aF28.0
aa(lp763
F247.72
aF19.0
aa(lp764
F215.18
aF28.0
aag634
ag551
a(lp765
F260.17
aF18.0
aa(lp766
F199.68
aF29.0
aa(lp767
F232.62
aF28.0
aa(lp768
F235.79
aF28.0
aa(lp769
F249.79
aF16.0
aa(lp770
F212.05
aF15.0
aag654
a(lp771
F235.03
aF15.0
aa(lp772
F209.84
aF14.0
aa(lp773
F246.0
aF28.0
aa(lp774
F213.0
aF15.0
aag33
a(lp775
F229.3
aF18.0
aag317
ag112
ag236
ag329
a(lp776
F214.48
aF15.0
aa(lp777
F248.71
aF18.0
aag396
a(lp778
F260.88
aF12.0
aa(lp779
F261.9
aF12.0
aag610
ag548
ag477
a(lp780
F242.81
aF28.0
aa(lp781
F210.34
aF27.0
aa(lp782
F253.82
aF16.0
aa(lp783
F248.19
aF17.0
aag588
a(lp784
F235.31
aF27.0
aag134
a(lp785
F215.03
aF29.0
aag278
a(lp786
F216.27
aF29.0
aa(lp787
F231.16
aF19.0
aag474
ag78
ag739
a(lp788
F230.69
aF18.0
aa(lp789
F257.71
aF12.0
aag326
a(lp790
F225.26
aF29.0
aag353
ag523
a(lp791
F246.5
aF15.0
aa(lp792
F247.87
aF18.0
aa(lp793
F235.78
aF28.0
aag495
ag359
ag740
ag356
ag125
a(lp794
F227.15
aF19.0
aa(lp795
F229.12
aF19.0
aag301
ag756
a(lp796
F259.69
aF12.0
aa(lp797
F219.97
aF29.0
aag471
ag34
ag113
a(lp798
F232.86
aF16.0
aag713
ag148
ag99
ag602
a(lp799
F248.06
aF28.0
aa(lp800
F257.17
aF12.0
aa(lp801
F246.38
aF16.0
aa(lp802
F200.92
aF29.0
aa(lp803
F234.25
aF28.0
aa(lp804
F228.97
aF19.0
aag705
ag31
a(lp805
F201.7
aF29.0
aa(lp806
F210.51
aF15.0
aag385
ag318
ag140
ag661
ag453
a(lp807
F227.01
aF18.0
aag706
ag137
a(lp808
F250.48
aF28.0
aag593
a(lp809
F251.85
aF28.0
aasS'actual_pf'
p810
(lp811
g13
ag252
ag252
ag549
ag326
ag326
as.