(dp0
S'complaint_data'
p1
(lp2
(lp3
F14.62804676
aF13.51134515
aa(lp4
F15.48733762
aF14.60766939
aa(lp5
F15.762459900000001
aF12.82026986
aa(lp6
F13.7412563
aF13.30175662
aa(lp7
F14.74546425
aF12.64761208
aasS'convex_hull_y'
p8
(lp9
cnumpy.core.multiarray
scalar
p10
(cnumpy
dtype
p11
(S'f8'
p12
I0
I1
tp13
Rp14
(I3
S'<'
p15
NNNI-1
I-1
I0
tp16
bS'\xce\xbat\xc0\xces\x05@'
p17
tp18
Rp19
ag10
(g14
S'\xe6sE\xdf\x02\xb4\x04@'
p20
tp21
Rp22
ag10
(g14
S'\xe2\xa4h?\xbcL\x04@'
p23
tp24
Rp25
ag10
(g14
S';\x90F\x1b\x81h\x04@'
p26
tp27
Rp28
asS'convex_hull_x'
p29
(lp30
g10
(g14
S'v\x8a\xd3\r\x91\xeb\x05@'
p31
tp32
Rp33
ag10
(g14
S'\xc2\xc3\t\xb3\x95\xf6\x04@'
p34
tp35
Rp36
ag10
(g14
S'\x80\x97\xa14\t\x87\x05@'
p37
tp38
Rp39
ag10
(g14
S'\x00k\x97\xec\xa0\x0f\x06@'
p40
tp41
Rp42
asS'current_pf'
p43
(lp44
(lp45
F15.39590226
aF14.71664238
aag4
ag4
a(lp46
F15.56718368
aF13.49537757
aag46
ag46
ag46
ag46
ag46
ag46
ag46
asS'all_data_dep'
p47
(lp48
(lp49
F13.61401961
aF13.00194029
aa(lp50
F15.23032072
aF10.96473646
aa(lp51
F8.113742166
aF4.866478395
aa(lp52
F11.35810171
aF8.757891433
aa(lp53
F10.32305476
aF8.210060462000001
aa(lp54
F14.64103567
aF11.28664203
aa(lp55
F14.08464232
aF10.91838768
aa(lp56
F14.72616493
aF10.75957087
aa(lp57
F12.84979602
aF10.55821909
aa(lp58
F13.8864587
aF12.99935382
aa(lp59
F14.0535017
aF10.93421264
aa(lp60
F12.39473063
aF6.531198275
aa(lp61
F12.35066299
aF9.859624439
aa(lp62
F11.41837972
aF8.441542305
aa(lp63
F10.65910396
aF8.8341948
aa(lp64
F13.82545572
aF10.22386568
aa(lp65
F11.70043972
aF9.61497325
aa(lp66
F12.41864325
aF9.433253026000001
aa(lp67
F13.84960057
aF11.60519175
aa(lp68
F7.800899900000001
aF4.813273326
aa(lp69
F10.37937837
aF8.75137773
aa(lp70
F7.971543554
aF3.83196978
aa(lp71
F8.829722735
aF5.78971557
aa(lp72
F14.48179943
aF13.70214888
aa(lp73
F10.57837269
aF8.177039855
aa(lp74
F11.43201985
aF6.942698771
aa(lp75
F10.31741261
aF9.749795131
aag46
a(lp76
F14.85987446
aF10.75194128
aa(lp77
F11.03960452
aF8.783424695
aa(lp78
F13.30919211
aF10.62523982
aa(lp79
F10.71338651
aF8.817826403
aa(lp80
F11.35093918
aF10.65835576
aa(lp81
F14.95205868
aF10.59315425
aa(lp82
F9.550746785
aF6.980023448
aa(lp83
F10.76983784
aF8.765405487
aag3
a(lp84
F10.37068741
aF9.771066822
aa(lp85
F12.36550227
aF7.721985507
aa(lp86
F13.71478213
aF10.59422542
aa(lp87
F9.824958741
aF6.771739106
aa(lp88
F12.84588203
aF10.53302527
aa(lp89
F10.05663772
aF6.792884914
aa(lp90
F10.88798213
aF8.553987328
aa(lp91
F14.22158712
aF10.17312412
aa(lp92
F10.10983065
aF7.761616662000001
aa(lp93
F11.83683936
aF10.53995576
aa(lp94
F15.48116875
aF13.65268358
aa(lp95
F10.26795708
aF7.757676762000001
aa(lp96
F10.7548875
aF10.60570099
aa(lp97
F12.12250448
aF11.53122277
aa(lp98
F9.818582177
aF7.2263335920000005
aa(lp99
F11.90312868
aF9.445028118
aa(lp100
F9.909893084
aF7.430869627000001
aa(lp101
F9.453270633999999
aF6.788873142999999
aa(lp102
F15.22422783
aF10.89274601
aa(lp103
F11.7903485
aF9.962558736
aa(lp104
F15.10328781
aF10.52989738
aa(lp105
F13.30976054
aF7.537930923999999
aa(lp106
F10.92407019
aF8.752437002999999
aa(lp107
F9.038918988999999
aF5.849099186
aa(lp108
F11.91214086
aF10.02468971
aa(lp109
F10.4807902
aF8.13241029
aa(lp110
F9.622051819
aF6.511822825
aa(lp111
F14.86186234
aF10.54260113
aa(lp112
F14.35211241
aF10.73711949
aa(lp113
F13.76103174
aF11.00016159
aa(lp114
F15.06659378
aF10.79590938
aa(lp115
F12.84842733
aF10.22675306
aa(lp116
F12.73914771
aF10.03234148
aa(lp117
F13.52380696
aF13.23156242
aa(lp118
F9.668884984
aF6.792616241
aa(lp119
F10.99929539
aF9.72844524
aa(lp120
F16.13979114
aF11.91089241
aa(lp121
F10.64385619
aF8.675316106
aa(lp122
F11.40301202
aF7.665281857
aa(lp123
F11.17305246
aF9.136334261
aa(lp124
F11.97835296
aF9.557560706
aa(lp125
F14.53570064
aF11.25188231
aa(lp126
F9.095397023
aF6.02339954
aa(lp127
F10.69870467
aF7.71095525
aa(lp128
F7.098032083
aF2.858160813
aa(lp129
F11.47522678
aF9.330080673
aa(lp130
F10.509775
aF9.767290131000001
aa(lp131
F12.30777003
aF9.873365397999999
aa(lp132
F11.19721669
aF7.586631221
aa(lp133
F14.287568099999998
aF10.95459058
aa(lp134
F13.12686577
aF10.29174742
aa(lp135
F9.896332403999999
aF6.766133409
aa(lp136
F11.82296909
aF11.46040144
aa(lp137
F13.32080055
aF10.78326081
aa(lp138
F10.67419227
aF10.66419664
aa(lp139
F15.00873499
aF10.81031837
aa(lp140
F12.69913863
aF12.15636984
aa(lp141
F9.477758266
aF6.860690303999999
aa(lp142
F15.88464752
aF11.81792813
aa(lp143
F12.79095933
aF11.14327081
aa(lp144
F11.67065625
aF9.510868147
aa(lp145
F10.49385545
aF8.767953287000001
aa(lp146
F15.16030477
aF7.802506965
aa(lp147
F13.66810937
aF10.97174771
aa(lp148
F10.88034881
aF9.129408807
aa(lp149
F16.20472396
aF11.73287415
aa(lp150
F9.562242423999999
aF6.2278842
aa(lp151
F14.19521839
aF10.972042
aa(lp152
F13.26737193
aF8.566591824
aa(lp153
F9.832890014
aF7.256973697
aa(lp154
F14.31995431
aF7.603452483
aa(lp155
F11.50729912
aF9.434258562
aa(lp156
F12.43931146
aF9.998033505
aa(lp157
F14.2209073
aF10.258294
aa(lp158
F12.82376528
aF10.34300032
aa(lp159
F15.47307151
aF11.35608841
aa(lp160
F10.53138146
aF7.654109752
aa(lp161
F13.31797782
aF7.558295565
aa(lp162
F12.26620091
aF9.686131921
aa(lp163
F15.29271705
aF11.68343715
aa(lp164
F8.781359714
aF5.841435146
aa(lp165
F14.12129067
aF9.970627687999999
aa(lp166
F14.76647715
aF12.44172061
aa(lp167
F13.20579325
aF10.46604202
aa(lp168
F9.758223215
aF6.237731986
aa(lp169
F13.27888499
aF10.37268453
aa(lp170
F8.727920455
aF5.793273955
aa(lp171
F13.31599862
aF10.37635785
aa(lp172
F11.80815977
aF9.696737107999999
aa(lp173
F9.592457037
aF6.564959804
aa(lp174
F11.98156728
aF9.663789749
aag4
a(lp175
F11.25325658
aF9.618118628
aa(lp176
F10.46760555
aF7.448730092000001
aag5
a(lp177
F13.71198954
aF11.1551998
aag45
a(lp178
F12.71231204
aF10.70674724
aa(lp179
F12.63934071
aF10.19099723
aa(lp180
F9.965784285
aF7.7240346539999996
aa(lp181
F12.64543328
aF10.30355742
aa(lp182
F10.78381676
aF8.77675046
aa(lp183
F16.24881706
aF12.12185067
aa(lp184
F10.27029533
aF7.178065338
aa(lp185
F10.27262979
aF7.208748533
aa(lp186
F12.97620609
aF11.32123577
aa(lp187
F11.55842071
aF9.260459475
aa(lp188
F9.411510988
aF7.018112284
aa(lp189
F10.76321237
aF8.438053168
aa(lp190
F13.26971112
aF9.51180174
aa(lp191
F15.31603399
aF7.679359363
aa(lp192
F9.741466986
aF6.77445112
aa(lp193
F9.97441459
aF5.773587653
aag6
a(lp194
F11.22641219
aF10.67300254
aa(lp195
F12.37150441
aF8.565523889
aa(lp196
F13.48242984
aF10.94420462
aa(lp197
F10.39231742
aF6.757812147
aa(lp198
F12.86205613
aF12.03070176
aa(lp199
F11.08812569
aF8.690660805
aa(lp200
F10.30606169
aF8.144994221000001
aa(lp201
F13.56902487
aF10.19925538
aa(lp202
F9.914385132
aF7.422663507
aa(lp203
F14.68710225
aF11.28592421
aa(lp204
F11.77231457
aF11.47418769
aa(lp205
F10.09275714
aF9.736811715
aa(lp206
F10.07146236
aF7.804959873
aa(lp207
F12.04780555
aF11.65370002
aa(lp208
F12.50779464
aF10.27668784
aa(lp209
F9.154818108999999
aF6.0353721810000005
aa(lp210
F14.60623169
aF13.35981593
aa(lp211
F11.35480034
aF9.057947231
aa(lp212
F10.87728413
aF8.708210224
aa(lp213
F12.51619248
aF10.18870654
aa(lp214
F10.23840474
aF7.899903707999999
aa(lp215
F13.66733334
aF12.29857337
aa(lp216
F12.72792045
aF11.83287847
aa(lp217
F12.65082737
aF12.47418769
aa(lp218
F11.30206767
aF9.014280996
aa(lp219
F11.49735289
aF8.659608643
aa(lp220
F15.4098881
aF11.39965412
aa(lp221
F10.75154406
aF8.522529897
aag7
a(lp222
F11.23840474
aF9.685226919
aa(lp223
F12.04916787
aF10.51527408
aa(lp224
F10.07815081
aF7.739010861000001
aa(lp225
F10.23122118
aF7.7921346289999995
aa(lp226
F16.08841559
aF11.88129476
aa(lp227
F15.57062658
aF11.44961151
aa(lp228
F7.087462841000001
aF3.866651431
aa(lp229
F15.02345116
aF11.03878861
aa(lp230
F10.58402294
aF8.346562042
aa(lp231
F14.21720042
aF7.276899329
aa(lp232
F9.821773982
aF6.445010442
aa(lp233
F13.44514421
aF10.34895612
aa(lp234
F11.99823782
aF10.37986031
aa(lp235
F9.019590727999999
aF4.8498166430000005
aa(lp236
F10.215533
aF7.730255858
aa(lp237
F11.95782756
aF9.621040101
aa(lp238
F12.71123677
aF11.29721127
aa(lp239
F14.571693400000001
aF11.21018897
aa(lp240
F13.70606427
aF11.58287499
aa(lp241
F14.33998915
aF10.79276682
aa(lp242
F11.01820018
aF8.807303347000001
aa(lp243
F8.924812504
aF5.870474631
aa(lp244
F10.45121111
aF6.804775887000001
aa(lp245
F14.17850925
aF11.03425486
aa(lp246
F14.31288296
aF9.170858366000001
aa(lp247
F10.19844504
aF7.921882077
aasS'actual_pf'
p248
(lp249
g45
ag4
ag46
ag5
ag183
as.