(dp0
S'complaint_data'
p1
(lp2
(lp3
F74141.0
aF1169.3
aa(lp4
F59252.0
aF868.23
aa(lp5
F79475.0
aF10377.0
aa(lp6
F65010.0
aF1635.0
aa(lp7
F55429.0
aF816.52
aa(lp8
F57632.0
aF871.26
aa(lp9
F82514.0
aF44566.0
aa(lp10
F87119.0
aF26320.0
aa(lp11
F63240.0
aF1544.4
aa(lp12
F57626.0
aF886.67
aa(lp13
F63390.0
aF14063.0
aa(lp14
F58196.0
aF753.06
aa(lp15
F65445.0
aF14273.0
aa(lp16
F81950.0
aF55477.0
aa(lp17
F71459.0
aF387.57
aa(lp18
F66943.0
aF14608.0
aa(lp19
F58415.0
aF783.82
aa(lp20
F59941.0
aF860.92
aa(lp21
F79489.0
aF1165.2
aa(lp22
F72028.0
aF364.41
aa(lp23
F85140.0
aF40213.0
aa(lp24
F70660.0
aF503.57
aa(lp25
F54411.0
aF883.79
aa(lp26
F62552.0
aF1539.4
aa(lp27
F57586.0
aF792.96
aa(lp28
F59394.0
aF791.86
aa(lp29
F95094.0
aF36603.0
aa(lp30
F58792.0
aF853.42
aa(lp31
F70303.0
aF60552.0
aa(lp32
F64152.0
aF1565.8
aa(lp33
F77751.0
aF1186.4
aa(lp34
F64561.0
aF15257.0
aa(lp35
F85232.0
aF40805.0
aa(lp36
F54812.0
aF796.91
aa(lp37
F69749.0
aF309.65
aa(lp38
F81320.0
aF10245.0
aa(lp39
F56804.0
aF806.52
aa(lp40
F83057.0
aF10676.0
aa(lp41
F58308.0
aF754.76
aa(lp42
F57327.0
aF756.68
aa(lp43
F64277.0
aF1595.8
aa(lp44
F78498.0
aF55374.0
aa(lp45
F58653.0
aF736.47
aa(lp46
F91538.0
aF37087.0
aa(lp47
F75299.0
aF10531.0
aa(lp48
F56236.0
aF853.96
aa(lp49
F65670.0
aF1544.7
aa(lp50
F61329.0
aF15927.0
aa(lp51
F77306.0
aF17328.0
aa(lp52
F75596.0
aF1100.8
aa(lp53
F81840.0
aF11246.0
aa(lp54
F78121.0
aF1279.5
aa(lp55
F59461.0
aF810.27
aa(lp56
F57894.0
aF753.81
aa(lp57
F79508.0
aF17401.0
aa(lp58
F65736.0
aF15405.0
aa(lp59
F57828.0
aF792.73
aa(lp60
F76190.0
aF789.55
aa(lp61
F61870.0
aF1643.0
aa(lp62
F72768.0
aF390.52
aa(lp63
F58816.0
aF812.4
aa(lp64
F78561.0
aF11850.0
aa(lp65
F65922.0
aF13977.0
aasS'convex_hull_y'
p66
(lp67
cnumpy.core.multiarray
scalar
p68
(cnumpy
dtype
p69
(S'f8'
p70
I0
I1
tp71
Rp72
(I3
S'<'
p73
NNNI-1
I-1
I0
tp74
bS'\xaf*a\x94\xc3\x05&@'
p75
tp76
Rp77
ag68
(g72
S'N\x1aIn\n#\x1b@'
p78
tp79
Rp80
ag68
(g72
S'Q\x10s]\x14\xb9\x1a@'
p81
tp82
Rp83
ag68
(g72
S'\xab\xcbB\xdf\x17\xf1\x16@'
p84
tp85
Rp86
ag68
(g72
S'\xc0r\x01\x9c\xd6\x97\x17@'
p87
tp88
Rp89
ag68
(g72
S'\x1e\x81\x01\xdd\xb2\xde\x17@'
p90
tp91
Rp92
ag68
(g72
S'\xa9;\x11\x84\x1a>\x1c@'
p93
tp94
Rp95
ag68
(g72
S'\x99I\xe9\x90\t\x04%@'
p96
tp97
Rp98
ag68
(g72
S'9&jS\xf2\xd8%@'
p99
tp100
Rp101
asS'convex_hull_x'
p102
(lp103
g68
(g72
S'8\xc2\xcb26R&@'
p104
tp105
Rp106
ag68
(g72
S'N4?>\x03\xcf%@'
p107
tp108
Rp109
ag68
(g72
S'\xd3Y\x06\xae\xc5\xd2%@'
p110
tp111
Rp112
ag68
(g72
S'\x083\xa6<)N&@'
p113
tp114
Rp115
ag68
(g72
S'\xdc\xe8\xaaq\x9f^&@'
p116
tp117
Rp118
ag68
(g72
S'U\xc0\xca-\xdbc&@'
p119
tp120
Rp121
ag68
(g72
S')\xe7#c\x16\x91&@'
p122
tp123
Rp124
ag68
(g72
S'S\xd8\x16\xae\xdc\xec&@'
p125
tp126
Rp127
ag68
(g72
S'U\xc8\xd8\xdb\xb2\xa0&@'
p128
tp129
Rp130
asS'current_pf'
p131
(lp132
(lp133
F7690.8
aF1.3
aa(lp134
F32716.0
aF3.0902
aa(lp135
F53428.0
aF17.798
aa(lp136
F55033.0
aF18.287
aa(lp137
F60799.0
aF166.47
aag3
asS'all_data_dep'
p138
(lp139
g133
a(lp140
F57748.0
aF737.65
aa(lp141
F6857.8
aF1.4954
aa(lp142
F50365.0
aF19.829
aa(lp143
F58503.0
aF1682.6
aa(lp144
F48833.0
aF528.02
aa(lp145
F6437.4
aF1.5584
aa(lp146
F58901.0
aF15448.0
aa(lp147
F7381.6
aF1.3855
aa(lp148
F42877.0
aF863.05
aa(lp149
F29980.0
aF3.326
aa(lp150
F52119.0
aF194.73
aa(lp151
F59279.0
aF171.49
aag3
ag4
a(lp152
F56387.0
aF877.9
aag134
a(lp153
F5424.0
aF1.8711
aa(lp154
F28180.0
aF3.5385
aa(lp155
F53494.0
aF190.48
aa(lp156
F45823.0
aF549.69
aa(lp157
F52020.0
aF816.86
aa(lp158
F53349.0
aF18.9
aag135
a(lp159
F7197.3
aF1.415
aa(lp160
F39997.0
aF25.031999999999996
aa(lp161
F50993.0
aF205.93
aag5
ag6
a(lp162
F69014.0
aF48267.0
aa(lp163
F50767.0
aF19.887999999999998
aag136
a(lp164
F40776.0
aF833.19
aa(lp165
F54619.0
aF965.73
aa(lp166
F64450.0
aF15049.0
aa(lp167
F6683.8
aF1.5397
aa(lp168
F55946.0
aF181.57
aa(lp169
F32762.0
aF1123.6
aa(lp170
F5534.4
aF1.8247
aag7
a(lp171
F48976.0
aF203.12
aa(lp172
F48120.0
aF21.603
aa(lp173
F7468.3
aF1.3264
aag8
a(lp174
F30010.0
aF3.389
aa(lp175
F47322.0
aF16401.0
aa(lp176
F30675.0
aF3.2491
aa(lp177
F45229.0
aF193.45
aa(lp178
F45710.0
aF848.9
aa(lp179
F54068.0
aF830.79
aa(lp180
F56541.0
aF85691.0
aag9
a(lp181
F73308.0
aF37269.0
aag10
a(lp182
F54630.0
aF831.75
aa(lp183
F51277.0
aF825.5
aa(lp184
F28968.0
aF3.4356
aa(lp185
F43890.0
aF231.82
aa(lp186
F27492.0
aF3.6191
aa(lp187
F55063.0
aF918.63
aa(lp188
F67460.0
aF145.24
aa(lp189
F7130.9
aF1.4207
aa(lp190
F7040.8
aF1.446
aag11
a(lp191
F30311.0
aF3.3197
aa(lp192
F27273.0
aF3.5566
aa(lp193
F63510.0
aF116.06
aa(lp194
F5602.6
aF1.8519999999999999
aag12
ag13
a(lp195
F7114.6
aF1.4161
aag14
a(lp196
F46245.0
aF552.01
aa(lp197
F36179.0
aF999.54
aa(lp198
F31102.0
aF3.1728
aa(lp199
F53898.0
aF17.537
aa(lp200
F67768.0
aF1463.6
aag15
a(lp201
F47366.0
aF20.042
aa(lp202
F29418.0
aF3.5282
aa(lp203
F36113.0
aF923.03
aa(lp204
F27734.0
aF3.6682
aa(lp205
F36517.0
aF981.23
aa(lp206
F67729.0
aF12569.0
aa(lp207
F29790.0
aF3.3747
aa(lp208
F56967.0
aF179.53
aa(lp209
F51258.0
aF18328.0
aa(lp210
F56862.0
aF827.55
aa(lp211
F52139.0
aF816.63
aa(lp212
F36455.0
aF1007.8
aa(lp213
F53934.0
aF1229.4
aag137
a(lp214
F28586.0
aF3.4746
aa(lp215
F46605.0
aF22.206
aag16
ag17
a(lp216
F55321.0
aF63627.0
aag18
ag19
a(lp217
F37052.0
aF2735.3
aa(lp218
F58738.0
aF157.47
aa(lp219
F55162.0
aF1249.1
aa(lp220
F58277.0
aF775.45
aa(lp221
F30727.0
aF3.2578
aa(lp222
F66185.0
aF1301.6
aa(lp223
F34482.0
aF992.83
aa(lp224
F53505.0
aF174.83
aa(lp225
F49782.0
aF20.192
aa(lp226
F54673.0
aF838.89
aa(lp227
F44860.0
aF196.18
aa(lp228
F38038.0
aF276.55
aa(lp229
F51861.0
aF857.03
aa(lp230
F29242.0
aF3.4624
aa(lp231
F43551.0
aF806.48
aa(lp232
F55332.0
aF800.45
aa(lp233
F5220.9
aF1.8724
aa(lp234
F36915.0
aF25965.0
aa(lp235
F5775.6
aF1.7408
aa(lp236
F44651.0
aF200.39
aa(lp237
F55611.0
aF17.024
aa(lp238
F28001.0
aF3.4593
aa(lp239
F53942.0
aF888.87
aa(lp240
F36750.0
aF94553.0
aa(lp241
F46995.0
aF591.56
aa(lp242
F6276.2
aF1.6329
aa(lp243
F69097.0
aF127.68
aa(lp244
F54720.0
aF827.53
aag20
a(lp245
F45031.0
aF177.52
aa(lp246
F54730.0
aF18.332
aa(lp247
F58163.0
aF722.58
aag21
a(lp248
F45752.0
aF21.69
aa(lp249
F52163.0
aF18.834
aa(lp250
F49894.0
aF777.49
aag22
a(lp251
F47878.0
aF531.32
aa(lp252
F56222.0
aF821.53
aa(lp253
F66743.0
aF140.29
aa(lp254
F46546.0
aF851.16
aa(lp255
F66556.0
aF117.56
aa(lp256
F7094.5
aF1.4339
aa(lp257
F7165.7
aF1.4295
aa(lp258
F45294.0
aF505.23
aa(lp259
F29324.0
aF3.3776
aag23
a(lp260
F70997.0
aF11549.0
aa(lp261
F55388.0
aF796.09
aa(lp262
F53132.0
aF783.54
aa(lp263
F47456.0
aF21.389
aa(lp264
F6900.3
aF1.4368
aa(lp265
F7104.5
aF1.3724
aa(lp266
F46773.0
aF19.903
aag24
a(lp267
F54903.0
aF18.29
aa(lp268
F7331.2
aF1.3902
aa(lp269
F58858.0
aF748.62
aa(lp270
F7990.6
aF1.2994
aa(lp271
F30879.0
aF32.695
aag25
a(lp272
F6386.8
aF1.531
aa(lp273
F62588.0
aF1376.4
aag26
a(lp274
F49070.0
aF855.65
aa(lp275
F46785.0
aF21.854
aa(lp276
F55750.0
aF182.82
aa(lp277
F30864.0
aF3.2659
aa(lp278
F45915.0
aF222.66
aa(lp279
F55725.0
aF803.82
aag27
a(lp280
F47480.0
aF21.423000000000002
aa(lp281
F5646.8
aF1.8299
aa(lp282
F28155.0
aF1546.7
aa(lp283
F30268.0
aF3.358
aa(lp284
F54189.0
aF184.45
aa(lp285
F29304.0
aF3.4023
aa(lp286
F53027.0
aF895.41
aa(lp287
F55281.0
aF186.28
aa(lp288
F59666.0
aF171.3
aa(lp289
F50244.0
aF522.62
aa(lp290
F60465.0
aF14235.0
aa(lp291
F5258.8
aF1.9272
aag28
a(lp292
F57998.0
aF731.92
aa(lp293
F52794.0
aF827.04
aa(lp294
F58658.0
aF799.13
aa(lp295
F52914.0
aF835.93
aag29
a(lp296
F30044.0
aF3.3138
aa(lp297
F45751.0
aF524.66
aa(lp298
F56517.0
aF846.58
aa(lp299
F51479.0
aF1811.1
aa(lp300
F40355.0
aF897.75
aa(lp301
F34032.0
aF2.9425
aa(lp302
F29954.0
aF3.3561
aa(lp303
F56649.0
aF177.42
aa(lp304
F90483.0
aF40896.0
aa(lp305
F56933.0
aF1808.1
aa(lp306
F6855.4
aF1.4534
aa(lp307
F47157.0
aF529.31
aa(lp308
F57738.0
aF170.5
aa(lp309
F51659.0
aF20.06
aag30
a(lp310
F48802.0
aF169.2
aa(lp311
F44764.0
aF541.08
aa(lp312
F31820.0
aF3.173
aa(lp313
F57605.0
aF168.94
aa(lp314
F30234.0
aF3.341
aa(lp315
F46496.0
aF18.653
aa(lp316
F56789.0
aF873.29
aa(lp317
F61616.0
aF1588.4
aa(lp318
F27657.0
aF3.6694
aa(lp319
F43547.0
aF681.48
aag31
a(lp320
F62880.0
aF143.2
aa(lp321
F5042.6
aF1.9422
aa(lp322
F54485.0
aF799.59
aa(lp323
F55566.0
aF952.86
aa(lp324
F6869.1
aF1.4805
aa(lp325
F48057.0
aF20.875
aa(lp326
F52484.0
aF891.42
aa(lp327
F31649.0
aF3.1989
aa(lp328
F53673.0
aF18.819000000000003
aa(lp329
F49308.0
aF170.22
aa(lp330
F52608.0
aF19.265
aa(lp331
F29903.0
aF3.3739999999999997
aa(lp332
F45921.0
aF468.44
aa(lp333
F58277.0
aF825.91
aa(lp334
F28244.0
aF3.4636
aa(lp335
F5201.2
aF1.9178
aa(lp336
F5434.7
aF1.8632
aa(lp337
F54581.0
aF18.323
aa(lp338
F56278.0
aF1267.7
aa(lp339
F5791.9
aF1.7557
aa(lp340
F46910.0
aF19.079
aa(lp341
F55815.0
aF784.2
aa(lp342
F41825.0
aF252.3
aa(lp343
F6686.6
aF1.5439
aag32
a(lp344
F60301.0
aF165.5
aa(lp345
F53160.0
aF868.4
aa(lp346
F55124.0
aF184.06
aa(lp347
F50439.0
aF19.912
aa(lp348
F60789.0
aF167.77
aa(lp349
F44254.0
aF652.28
aag33
a(lp350
F45557.0
aF23.217
aa(lp351
F51732.0
aF161.42
aa(lp352
F53573.0
aF18.500999999999998
aa(lp353
F38185.0
aF266.02
aa(lp354
F30885.0
aF3.2422
aa(lp355
F51230.0
aF11450.0
aa(lp356
F6293.2
aF1.6017
aa(lp357
F49746.0
aF19.719
aa(lp358
F7532.7
aF1.3448
aa(lp359
F54025.0
aF17.415
aa(lp360
F50747.0
aF19.686
aa(lp361
F32256.0
aF3.1328
aa(lp362
F66965.0
aF136.33
aag34
a(lp363
F6509.0
aF1.6195
aa(lp364
F49159.0
aF205.99
aa(lp365
F7680.7
aF1.3299
aa(lp366
F60322.0
aF170.17
aa(lp367
F65050.0
aF11657.0
aa(lp368
F54634.0
aF18.192999999999998
aa(lp369
F30909.0
aF3.222
aa(lp370
F63080.0
aF1516.0
aa(lp371
F54605.0
aF791.7
aa(lp372
F43909.0
aF22.236
aa(lp373
F56302.0
aF789.22
aa(lp374
F50502.0
aF197.06
aa(lp375
F65911.0
aF1394.4
aa(lp376
F58117.0
aF812.82
aa(lp377
F28894.0
aF3.4678
aa(lp378
F49891.0
aF206.25
aa(lp379
F30182.0
aF3.3306
aa(lp380
F5283.2
aF1.9688
aa(lp381
F31084.0
aF3.2191
aa(lp382
F54797.0
aF816.4
aa(lp383
F58359.0
aF895.5
aa(lp384
F64300.0
aF1468.8
aa(lp385
F47003.0
aF494.8
aa(lp386
F41062.0
aF897.43
aa(lp387
F6573.8
aF1.5572
aa(lp388
F51769.0
aF19.344
aa(lp389
F6400.4
aF1.5555
aa(lp390
F6345.6
aF1.5636
aag35
a(lp391
F56833.0
aF182.63
aa(lp392
F6763.1
aF1.5126
aa(lp393
F39864.0
aF904.82
aa(lp394
F30611.0
aF3.2763
aag36
a(lp395
F40728.0
aF24.383000000000003
aa(lp396
F64186.0
aF709.56
aa(lp397
F61824.0
aF83512.0
aag37
a(lp398
F51426.0
aF203.82
aa(lp399
F67571.0
aF146.65
aa(lp400
F57433.0
aF925.43
aa(lp401
F6678.2
aF1.5247
aag38
a(lp402
F7226.1
aF1.4040000000000001
aa(lp403
F29159.0
aF3.4936
aa(lp404
F53398.0
aF197.34
aa(lp405
F49558.0
aF199.02
aa(lp406
F55471.0
aF842.9
aa(lp407
F55095.0
aF853.41
aag39
a(lp408
F53875.0
aF18.737000000000002
aa(lp409
F44880.0
aF841.33
aa(lp410
F30674.0
aF3.2739999999999996
aa(lp411
F46750.0
aF815.89
aa(lp412
F34221.0
aF299.39
aa(lp413
F55727.0
aF18.090999999999998
aa(lp414
F51763.0
aF19.574
aa(lp415
F64663.0
aF1539.0
aag40
a(lp416
F64297.0
aF720.35
aag41
a(lp417
F64860.0
aF14685.0
aa(lp418
F63021.0
aF82187.0
aa(lp419
F43097.0
aF217.53
aa(lp420
F46049.0
aF552.56
aa(lp421
F7004.2
aF1.4586
aa(lp422
F64087.0
aF1529.5
aa(lp423
F5534.5
aF1.8374
aa(lp424
F44606.0
aF876.83
aa(lp425
F58797.0
aF173.93
aa(lp426
F53634.0
aF920.88
aa(lp427
F29361.0
aF3.4324
aa(lp428
F46286.0
aF22.103
aa(lp429
F48956.0
aF174.12
aa(lp430
F46332.0
aF21.147
aa(lp431
F45814.0
aF514.16
aa(lp432
F52085.0
aF1052.8
aa(lp433
F5481.0
aF1.9006
aa(lp434
F59297.0
aF15169.0
aag42
a(lp435
F58388.0
aF171.97
aa(lp436
F48431.0
aF503.7
aa(lp437
F71997.0
aF27969.0
aa(lp438
F55087.0
aF865.8
aa(lp439
F62165.0
aF14336.0
aa(lp440
F6927.3
aF1.4724
aa(lp441
F29708.0
aF3.3809
aa(lp442
F59354.0
aF172.53
aa(lp443
F54627.0
aF810.04
aa(lp444
F52643.0
aF19.134
aa(lp445
F6673.1
aF1.5382
aa(lp446
F53575.0
aF770.37
aa(lp447
F33910.0
aF1023.2
aa(lp448
F53012.0
aF197.96
aa(lp449
F30191.0
aF3.3699
aa(lp450
F30177.0
aF3.3191
aa(lp451
F28996.0
aF3.4218
aa(lp452
F31507.0
aF1210.1
aa(lp453
F49313.0
aF200.43
aa(lp454
F45027.0
aF21.197
aa(lp455
F5594.7
aF1.8287
aa(lp456
F46977.0
aF21.811
aa(lp457
F28365.0
aF3.4786
aa(lp458
F42753.0
aF904.03
aa(lp459
F57302.0
aF843.75
aa(lp460
F55308.0
aF184.64
aa(lp461
F54691.0
aF808.49
aa(lp462
F43014.0
aF743.21
aa(lp463
F54443.0
aF17.328
aa(lp464
F32064.0
aF3.1989
aa(lp465
F43657.0
aF618.01
aa(lp466
F55317.0
aF784.34
aa(lp467
F55966.0
aF16.927
aa(lp468
F48844.0
aF20.129
aa(lp469
F67553.0
aF140.5
aa(lp470
F7767.6
aF1.331
aa(lp471
F29777.0
aF3.3335
aa(lp472
F46010.0
aF21.096999999999998
aa(lp473
F42988.0
aF756.13
aa(lp474
F6534.9
aF1.5195
aa(lp475
F6373.1
aF1.5647
aa(lp476
F49918.0
aF20.811999999999998
aa(lp477
F52129.0
aF812.86
aa(lp478
F66418.0
aF91578.0
aa(lp479
F54598.0
aF18.623
aa(lp480
F55600.0
aF183.07
aa(lp481
F48377.0
aF453.5
aa(lp482
F68913.0
aF56665.0
aa(lp483
F55616.0
aF17.035999999999998
aag43
a(lp484
F48325.0
aF518.26
aag44
a(lp485
F5406.0
aF1.8264
aa(lp486
F30121.0
aF3.3636
aa(lp487
F28135.0
aF3.5179
aag45
a(lp488
F57228.0
aF182.22
aa(lp489
F57293.0
aF15.94
aa(lp490
F34813.0
aF1027.4
aa(lp491
F45737.0
aF488.02
aa(lp492
F6151.7
aF1.6312
aa(lp493
F6916.1
aF1.4471
aag46
a(lp494
F54537.0
aF828.62
aa(lp495
F6304.4
aF1.5942
aa(lp496
F57860.0
aF16.393
aa(lp497
F43923.0
aF834.66
aa(lp498
F28762.0
aF3.4509
aa(lp499
F5552.9
aF1.8259
aa(lp500
F47476.0
aF535.45
aa(lp501
F42758.0
aF696.02
aa(lp502
F31526.0
aF3.1931
aa(lp503
F63569.0
aF818.08
aa(lp504
F47606.0
aF525.63
aa(lp505
F5381.5
aF1.8954
aa(lp506
F47814.0
aF19.547
aa(lp507
F61873.0
aF16088.0
aa(lp508
F5378.1
aF1.8613
aa(lp509
F51600.0
aF19.351
aa(lp510
F48986.0
aF2043.7
aa(lp511
F53002.0
aF914.21
aa(lp512
F27587.0
aF3.6289
aa(lp513
F53160.0
aF836.73
aa(lp514
F29452.0
aF3.4393
aa(lp515
F31394.0
aF3.2462
aa(lp516
F54203.0
aF20.194000000000003
aa(lp517
F59942.0
aF1727.8
aa(lp518
F50915.0
aF811.7
aa(lp519
F40440.0
aF224.07
aa(lp520
F53086.0
aF191.22
aa(lp521
F7207.0
aF1.4109
aa(lp522
F7463.5
aF1.3638
aa(lp523
F5464.8
aF1.9197
aa(lp524
F6753.5
aF1.5161
aa(lp525
F57754.0
aF175.03
aa(lp526
F54155.0
aF18.162
aa(lp527
F30324.0
aF3.2671
aa(lp528
F28961.0
aF3.4509
aa(lp529
F6589.5
aF1.5266
aa(lp530
F54865.0
aF184.36
aa(lp531
F6764.7
aF1.4769999999999999
aa(lp532
F44941.0
aF539.73
aa(lp533
F45085.0
aF653.92
aa(lp534
F55113.0
aF791.62
aa(lp535
F36917.0
aF1175.7
aag47
a(lp536
F28524.0
aF3.5358
aag48
a(lp537
F56000.0
aF192.73
aa(lp538
F49647.0
aF15033.0
aa(lp539
F59100.0
aF172.62
aa(lp540
F43754.0
aF820.29
aa(lp541
F31642.0
aF3.2213
aa(lp542
F42733.0
aF24.039
aa(lp543
F6914.1
aF1.4566
aa(lp544
F63667.0
aF1499.3
aag49
a(lp545
F5370.8
aF1.8457
aag50
a(lp546
F41780.0
aF911.8
aa(lp547
F55855.0
aF791.55
aa(lp548
F53858.0
aF425.77
aa(lp549
F53813.0
aF1140.1
aa(lp550
F52115.0
aF19.205
aa(lp551
F56569.0
aF168.79
aa(lp552
F61746.0
aF14625.0
aa(lp553
F30616.0
aF3.3052
aa(lp554
F7042.3
aF1.4358
aa(lp555
F51106.0
aF910.94
aa(lp556
F7000.6
aF1.446
aa(lp557
F55423.0
aF176.69
aa(lp558
F60581.0
aF167.99
aa(lp559
F54385.0
aF760.35
aa(lp560
F78731.0
aF24278.0
aag51
a(lp561
F64422.0
aF1472.5
aa(lp562
F28657.0
aF3.4184
aa(lp563
F73506.0
aF40071.0
aa(lp564
F40247.0
aF25.346999999999998
aa(lp565
F54890.0
aF829.28
aa(lp566
F7150.8
aF1.4092
aa(lp567
F55649.0
aF878.43
aa(lp568
F45218.0
aF192.37
aa(lp569
F57265.0
aF182.23
aa(lp570
F57489.0
aF707.08
aa(lp571
F5377.4
aF1.8902
aa(lp572
F54852.0
aF184.6
aa(lp573
F30954.0
aF3.258
aa(lp574
F45951.0
aF22.136
aa(lp575
F58125.0
aF823.45
aa(lp576
F46071.0
aF21.241
aa(lp577
F64267.0
aF155.39
aa(lp578
F39310.0
aF26.083000000000002
aa(lp579
F46686.0
aF513.58
aa(lp580
F30063.0
aF3.3333
aag52
a(lp581
F57492.0
aF860.13
aa(lp582
F5257.5
aF1.9272
aa(lp583
F43977.0
aF662.96
aa(lp584
F49745.0
aF161.93
aa(lp585
F6560.3
aF1.5364
aa(lp586
F55664.0
aF1011.6
aa(lp587
F27584.0
aF3.6382
aa(lp588
F5381.0
aF1.9208
aag53
a(lp589
F58079.0
aF773.62
aag54
a(lp590
F5546.3
aF1.8161
aag55
a(lp591
F51198.0
aF20.136
aa(lp592
F47652.0
aF21.37
aa(lp593
F28007.0
aF3.5948
aa(lp594
F55044.0
aF791.56
aa(lp595
F30710.0
aF3.2454
aa(lp596
F62921.0
aF14513.0
aa(lp597
F28589.0
aF3.5364
aa(lp598
F31548.0
aF3.1333
aa(lp599
F58304.0
aF174.86
aa(lp600
F30269.0
aF3.3514
aa(lp601
F32999.0
aF3.0305
aa(lp602
F43286.0
aF570.68
aa(lp603
F54569.0
aF931.08
aa(lp604
F55170.0
aF18.374000000000002
aa(lp605
F31625.0
aF3.1312
aa(lp606
F34466.0
aF2.9167
aa(lp607
F61043.0
aF172.11
aa(lp608
F46717.0
aF22.151
aa(lp609
F47051.0
aF22.11
aa(lp610
F45494.0
aF22.179000000000002
aa(lp611
F45332.0
aF21.875
aa(lp612
F6071.9
aF1.6306
aa(lp613
F33020.0
aF1152.0
aa(lp614
F64284.0
aF143.66
aa(lp615
F66839.0
aF1407.6
aa(lp616
F44348.0
aF551.68
aa(lp617
F43784.0
aF874.17
aa(lp618
F61353.0
aF156.71
aa(lp619
F45189.0
aF20990.0
aa(lp620
F65133.0
aF143.95
aa(lp621
F49943.0
aF20.323
aa(lp622
F47309.0
aF173.16
aa(lp623
F31045.0
aF3.2466
aa(lp624
F7037.9
aF1.4329
aa(lp625
F29004.0
aF3.4422
aa(lp626
F28420.0
aF3.4374
aa(lp627
F65052.0
aF71448.0
aa(lp628
F6265.2
aF1.6202
aa(lp629
F63205.0
aF143.47
aa(lp630
F52942.0
aF1857.9
aa(lp631
F45982.0
aF489.29
aa(lp632
F6839.8
aF1.5172
aa(lp633
F46076.0
aF19.476
aa(lp634
F52846.0
aF187.36
aa(lp635
F56752.0
aF1746.6
aa(lp636
F54489.0
aF824.36
aa(lp637
F53212.0
aF19.881
aa(lp638
F30406.0
aF3.3592
aa(lp639
F47925.0
aF212.72
aa(lp640
F53022.0
aF18.921
aa(lp641
F44504.0
aF552.38
aa(lp642
F5846.6
aF1.8195
aa(lp643
F65559.0
aF146.59
aa(lp644
F70644.0
aF142.51
aa(lp645
F6296.5
aF1.6335
aa(lp646
F48354.0
aF478.39
aa(lp647
F30487.0
aF3.2351
aa(lp648
F61056.0
aF14804.0
aa(lp649
F67355.0
aF14309.0
aa(lp650
F31592.0
aF3.2717
aag56
a(lp651
F50286.0
aF848.09
aa(lp652
F7767.2
aF1.3184
aa(lp653
F7496.3
aF1.3678
aa(lp654
F29568.0
aF3.4202
aa(lp655
F33592.0
aF30.38
aa(lp656
F30945.0
aF3.2195
aa(lp657
F48125.0
aF216.95
aa(lp658
F30328.0
aF3.3034
aa(lp659
F51798.0
aF195.36
aa(lp660
F63131.0
aF81802.0
aa(lp661
F50375.0
aF808.05
aa(lp662
F52242.0
aF883.67
aa(lp663
F67297.0
aF53340.0
aa(lp664
F34867.0
aF1029.5
aa(lp665
F47573.0
aF476.85
aa(lp666
F48914.0
aF19.031
aa(lp667
F55413.0
aF17.56
aa(lp668
F37308.0
aF963.54
aa(lp669
F45327.0
aF520.84
aa(lp670
F45395.0
aF528.03
aa(lp671
F72271.0
aF30521.0
aa(lp672
F53563.0
aF187.28
aa(lp673
F55673.0
aF6031.5
aa(lp674
F55380.0
aF440.37
aa(lp675
F93548.0
aF40881.0
aa(lp676
F28203.0
aF3.4546
aa(lp677
F47520.0
aF601.95
aa(lp678
F52614.0
aF19.297
aa(lp679
F53299.0
aF191.88
aa(lp680
F45790.0
aF487.01
aa(lp681
F55625.0
aF16.808
aa(lp682
F55902.0
aF1726.8
aag57
a(lp683
F33660.0
aF2.9644
aa(lp684
F54540.0
aF792.39
aa(lp685
F6328.6
aF1.6178
aa(lp686
F76492.0
aF11936.0
aa(lp687
F30848.0
aF3.2613
aag58
a(lp688
F5529.9
aF1.8618
aa(lp689
F52862.0
aF18.754
aa(lp690
F52505.0
aF19.357
aa(lp691
F53658.0
aF17.361
aa(lp692
F32465.0
aF3.0701
aa(lp693
F5190.9
aF1.9543
aa(lp694
F52719.0
aF19.139
aa(lp695
F55474.0
aF803.04
aa(lp696
F58281.0
aF784.23
aa(lp697
F28325.0
aF1347.7
aa(lp698
F48022.0
aF213.83
aa(lp699
F55090.0
aF18.567
aa(lp700
F56196.0
aF775.45
aa(lp701
F7467.6
aF1.4
aa(lp702
F27695.0
aF3.5988
aa(lp703
F28791.0
aF3.511
aa(lp704
F50789.0
aF2008.5
aa(lp705
F5801.6
aF1.7259
aa(lp706
F32233.0
aF3.1626
aa(lp707
F6634.0
aF1.5347
aa(lp708
F82905.0
aF33086.0
aa(lp709
F30705.0
aF3.2506
aa(lp710
F5300.4
aF1.9305
aa(lp711
F41689.0
aF239.02
aag59
a(lp712
F36286.0
aF27.570999999999998
aa(lp713
F55594.0
aF813.39
aa(lp714
F5377.6
aF1.8759
aa(lp715
F7017.7
aF1.5023
aag60
a(lp716
F51649.0
aF19.832
aa(lp717
F50731.0
aF20.16
aa(lp718
F28536.0
aF3.5172
aa(lp719
F31859.0
aF3.2039999999999997
aa(lp720
F80544.0
aF30348.0
aa(lp721
F54938.0
aF759.54
aa(lp722
F7591.0
aF1.3139
aa(lp723
F56353.0
aF805.67
aa(lp724
F49490.0
aF20.154
aa(lp725
F53945.0
aF447.48
aa(lp726
F6251.3
aF1.6295
aa(lp727
F57685.0
aF1722.0
aa(lp728
F59795.0
aF172.82
aa(lp729
F50915.0
aF198.33
aa(lp730
F47353.0
aF514.45
aa(lp731
F62740.0
aF83689.0
aa(lp732
F48093.0
aF174.74
aa(lp733
F55815.0
aF876.54
aa(lp734
F73286.0
aF1183.4
aa(lp735
F57972.0
aF16.279
aa(lp736
F63127.0
aF141.81
aa(lp737
F42239.0
aF21.375
aa(lp738
F39442.0
aF261.79
aa(lp739
F29503.0
aF3.4534
aa(lp740
F29956.0
aF3.3254
aa(lp741
F46137.0
aF22.011999999999997
aa(lp742
F50951.0
aF825.53
aa(lp743
F54676.0
aF16.838
aa(lp744
F53807.0
aF840.33
aa(lp745
F5420.2
aF1.8391
aa(lp746
F6394.5
aF1.6168
aa(lp747
F30830.0
aF3.2615
aa(lp748
F53857.0
aF766.41
aa(lp749
F59539.0
aF175.9
aa(lp750
F30507.0
aF3.2954
aa(lp751
F29871.0
aF3.3572
aa(lp752
F65424.0
aF13340.0
aa(lp753
F56405.0
aF820.87
aa(lp754
F5577.5
aF1.8543
aa(lp755
F26744.0
aF1486.5
aa(lp756
F49519.0
aF860.01
aa(lp757
F54352.0
aF18.575
aag61
a(lp758
F44198.0
aF22.409000000000002
aa(lp759
F47213.0
aF181.57
aa(lp760
F52754.0
aF19.392
aa(lp761
F51216.0
aF176.28
aag62
a(lp762
F6241.1
aF1.6
aa(lp763
F6256.8
aF1.6328
aa(lp764
F30321.0
aF3.4058
aa(lp765
F60895.0
aF15073.0
aa(lp766
F31513.0
aF3.1552
aa(lp767
F44658.0
aF195.48
aag63
a(lp768
F39276.0
aF26.5
aa(lp769
F57085.0
aF85782.0
aa(lp770
F43781.0
aF877.35
aa(lp771
F5351.2
aF1.8451
aa(lp772
F6370.2
aF1.5630000000000002
aag64
a(lp773
F28862.0
aF3.5443
aa(lp774
F44432.0
aF22.500999999999998
aa(lp775
F50224.0
aF838.11
aa(lp776
F57962.0
aF176.22
aa(lp777
F54774.0
aF146.53
aa(lp778
F73975.0
aF27361.0
aa(lp779
F30027.0
aF3.3538
aa(lp780
F28189.0
aF3.5178
aa(lp781
F7266.3
aF1.4241
aa(lp782
F38731.0
aF827.65
aa(lp783
F49609.0
aF887.94
aa(lp784
F47779.0
aF775.03
aa(lp785
F6513.8
aF1.5659
aa(lp786
F56956.0
aF181.4
aa(lp787
F32680.0
aF3.0580000000000003
aa(lp788
F36871.0
aF973.83
aa(lp789
F46248.0
aF522.78
aa(lp790
F52702.0
aF18.764
aa(lp791
F45665.0
aF20.214000000000002
aa(lp792
F59520.0
aF172.09
aa(lp793
F46966.0
aF853.63
aa(lp794
F55048.0
aF18.84
aa(lp795
F48289.0
aF852.67
aa(lp796
F49121.0
aF20.616
aa(lp797
F28871.0
aF3.5410000000000004
aa(lp798
F29973.0
aF3.3283
aa(lp799
F47481.0
aF17940.0
aa(lp800
F56635.0
aF16829.0
aa(lp801
F58614.0
aF169.62
aa(lp802
F31656.0
aF3.1751
aa(lp803
F29849.0
aF3.3491
aa(lp804
F80590.0
aF23656.0
aa(lp805
F30228.0
aF3.3734
aa(lp806
F48852.0
aF821.36
aa(lp807
F54774.0
aF17.333
aa(lp808
F5137.8
aF1.9503
aa(lp809
F5698.4
aF1.8184
aa(lp810
F7136.5
aF1.4391
aa(lp811
F30842.0
aF3.2260000000000004
aa(lp812
F45666.0
aF19.374000000000002
aa(lp813
F59858.0
aF172.84
aa(lp814
F52117.0
aF19.199
aa(lp815
F54479.0
aF824.38
aa(lp816
F56989.0
aF830.78
aa(lp817
F50797.0
aF19.589000000000002
aa(lp818
F30839.0
aF3.3064
aa(lp819
F36078.0
aF1020.6
aa(lp820
F53660.0
aF18.863
aa(lp821
F6858.3
aF1.4572
aa(lp822
F44360.0
aF820.19
aa(lp823
F40972.0
aF835.76
aa(lp824
F30328.0
aF339.94
aa(lp825
F54866.0
aF194.78
aa(lp826
F7928.6
aF1.3264
aag65
a(lp827
F39796.0
aF891.95
aasS'actual_pf'
p828
(lp829
g270
ag606
ag489
ag735
ag193
ag255
ag243
ag644
ag22
ag62
ag60
ag21
ag38
ag40
ag10
ag29
as.