(dp0
S'complaint_data'
p1
(lp2
(lp3
F15059.0
aF63.972
aa(lp4
F14767.0
aF65.39399999999999
aa(lp5
F13475.0
aF68.503
aa(lp6
F20117.0
aF48.45
aa(lp7
F20591.0
aF47.387
aa(lp8
F20167.0
aF49.513999999999996
aa(lp9
F13122.0
aF72.286
aa(lp10
F12144.0
aF74.759
aa(lp11
F14220.0
aF66.596
aa(lp12
F13511.0
aF70.402
aa(lp13
F13565.0
aF68.332
aa(lp14
F13463.0
aF68.497
aasS'convex_hull_y'
p15
(lp16
cnumpy.core.multiarray
scalar
p17
(cnumpy
dtype
p18
(S'f8'
p19
I0
I1
tp20
Rp21
(I3
S'<'
p22
NNNI-1
I-1
I0
tp23
bS'\xb6\xc9E\xe4\xcfA\x11@'
p24
tp25
Rp26
ag17
(g21
S'\xba\xb7\xd2\x9f;\xe8\x10@'
p27
tp28
Rp29
ag17
(g21
S'\x9a\xd0\xe1\x89T\x0b\x0f@'
p30
tp31
Rp32
ag17
(g21
S'\x12\xaf\xed\x84\xe5\xdd\x0e@'
p33
tp34
Rp35
ag17
(g21
S'k{\xa1\xb5\xd17\x0f@'
p36
tp37
Rp38
ag17
(g21
S'\xf7\xa2;\x98]\x1f\x11@'
p39
tp40
Rp41
asS'convex_hull_x'
p42
(lp43
g17
(g21
S'\xacih|&\xcf"@'
p44
tp45
Rp46
ag17
(g21
S'\xcf#\x98P\xf1\x03#@'
p47
tp48
Rp49
ag17
(g21
S'{\x8d$u\x92\xd1#@'
p50
tp51
Rp52
ag17
(g21
S'l\xc1\x8e\xf9~\xdd#@'
p53
tp54
Rp55
ag17
(g21
S'\xe6\x8e\xdf\xd3\xd7\xd2#@'
p56
tp57
Rp58
ag17
(g21
S'\xaa\xa6\x9c\xaa\xce\xf6"@'
p59
tp60
Rp61
asS'current_pf'
p62
(lp63
g7
ag7
asS'all_data_dep'
p64
(lp65
(lp66
F15293.0
aF63.42100000000001
aa(lp67
F14306.0
aF137.43
aa(lp68
F18928.0
aF52.784
aa(lp69
F17592.0
aF172.49
aa(lp70
F13387.0
aF70.633
aa(lp71
F13308.0
aF151.65
aa(lp72
F8158.2
aF247.52
aa(lp73
F12800.0
aF75.382
aa(lp74
F9282.3
aF103.32
aa(lp75
F12469.0
aF162.72
aa(lp76
F11706.0
aF165.69
aa(lp77
F12467.0
aF243.1
aa(lp78
F12421.0
aF76.743
aa(lp79
F12253.0
aF166.92
aa(lp80
F11890.0
aF80.612
aa(lp81
F12313.0
aF244.86
aa(lp82
F11403.0
aF172.53
aa(lp83
F15642.0
aF198.63
aa(lp84
F13955.0
aF69.705
aa(lp85
F8097.0
aF253.1
aa(lp86
F14539.0
aF135.8
aa(lp87
F11978.0
aF244.07
aa(lp88
F15247.0
aF126.32
aa(lp89
F9453.5
aF101.19
aa(lp90
F12346.0
aF165.31
aa(lp91
F12733.0
aF156.0
aa(lp92
F12549.0
aF167.05
aa(lp93
F9375.7
aF101.58
aa(lp94
F12754.0
aF152.37
aa(lp95
F15753.0
aF193.19
aa(lp96
F12142.0
aF163.91
aa(lp97
F11360.0
aF266.53
aa(lp98
F16995.0
aF184.63
aa(lp99
F9333.8
aF102.77
aa(lp100
F12682.0
aF76.464
aa(lp101
F12315.0
aF246.59
aa(lp102
F11411.0
aF263.65
aa(lp103
F13987.0
aF65.751
aa(lp104
F15582.0
aF198.2
aa(lp105
F14207.0
aF69.085
aa(lp106
F12483.0
aF244.52
aa(lp107
F13597.0
aF141.65
aa(lp108
F12967.0
aF150.8
aa(lp109
F8500.0
aF373.12
aa(lp110
F8443.9
aF350.41
aa(lp111
F12657.0
aF157.84
aa(lp112
F12604.0
aF74.836
aa(lp113
F15647.0
aF190.5
aa(lp114
F14184.0
aF137.27
aa(lp115
F19371.0
aF51.331
aa(lp116
F13122.0
aF156.1
aa(lp117
F12992.0
aF155.41
aa(lp118
F13114.0
aF147.66
aa(lp119
F16291.0
aF191.61
aa(lp120
F15980.0
aF192.67
aa(lp121
F18610.0
aF166.37
aa(lp122
F12052.0
aF258.38
aa(lp123
F12279.0
aF165.01
aa(lp124
F14646.0
aF68.492
aa(lp125
F14971.0
aF64.789
aa(lp126
F13687.0
aF226.09
aa(lp127
F14045.0
aF139.91
aa(lp128
F7926.8
aF378.11
aa(lp129
F12056.0
aF246.51
aa(lp130
F8137.3
aF377.23
aa(lp131
F17542.0
aF55.96
aa(lp132
F15855.0
aF191.91
aa(lp133
F13751.0
aF227.76
aa(lp134
F12179.0
aF80.98899999999999
aa(lp135
F11009.0
aF90.522
aa(lp136
F8543.7
aF109.33
aa(lp137
F14808.0
aF137.62
aa(lp138
F12879.0
aF71.95
aa(lp139
F12530.0
aF74.61
aa(lp140
F12881.0
aF154.0
aa(lp141
F9711.3
aF198.34
aa(lp142
F13786.0
aF221.35
aa(lp143
F11656.0
aF169.76
aa(lp144
F13224.0
aF153.92
aa(lp145
F13611.0
aF70.12899999999999
aa(lp146
F12980.0
aF147.42
aa(lp147
F14408.0
aF141.85
aa(lp148
F9876.2
aF196.0
aa(lp149
F9521.7
aF198.07
aa(lp150
F12361.0
aF253.76
aa(lp151
F8123.5
aF249.53
aa(lp152
F11835.0
aF167.86
aa(lp153
F8024.9
aF380.96
aa(lp154
F8584.0
aF113.32
aa(lp155
F11277.0
aF177.47
aa(lp156
F17069.0
aF175.96
aa(lp157
F11573.0
aF167.27
aa(lp158
F9422.9
aF211.82
aa(lp159
F18349.0
aF167.46
aa(lp160
F11873.0
aF263.46
aa(lp161
F12437.0
aF77.372
aa(lp162
F10917.0
aF89.624
aa(lp163
F18259.0
aF173.96
aa(lp164
F12741.0
aF156.58
aa(lp165
F8168.1
aF368.03
aa(lp166
F11518.0
aF83.852
aa(lp167
F11652.0
aF261.55
aa(lp168
F8467.4
aF113.06
aa(lp169
F12827.0
aF237.56
aa(lp170
F14084.0
aF142.6
aa(lp171
F12512.0
aF242.22
aa(lp172
F13909.0
aF144.72
aa(lp173
F12068.0
aF248.13
aa(lp174
F13791.0
aF147.23
aa(lp175
F8495.6
aF112.01
aa(lp176
F13396.0
aF72.962
aa(lp177
F12554.0
aF77.475
aa(lp178
F11303.0
aF85.569
aa(lp179
F11201.0
aF274.71
aa(lp180
F13792.0
aF70.055
aa(lp181
F13891.0
aF141.63
aag3
a(lp182
F9249.4
aF103.98
aa(lp183
F11852.0
aF172.81
aa(lp184
F15488.0
aF203.43
aa(lp185
F8571.8
aF110.88
aa(lp186
F19187.0
aF51.458
aa(lp187
F14318.0
aF68.578
aa(lp188
F8567.2
aF110.88
aa(lp189
F11779.0
aF77.76100000000001
aa(lp190
F13921.0
aF143.79
aa(lp191
F13660.0
aF141.27
aa(lp192
F12279.0
aF240.32
aa(lp193
F13980.0
aF215.67
aa(lp194
F8324.9
aF243.35
aa(lp195
F9575.8
aF199.41
aa(lp196
F15698.0
aF193.97
aa(lp197
F11920.0
aF250.24
aa(lp198
F12748.0
aF76.717
aa(lp199
F8393.1
aF360.55
aa(lp200
F13254.0
aF73.818
aa(lp201
F11672.0
aF267.59
aa(lp202
F15337.0
aF64.027
aa(lp203
F13294.0
aF73.086
aa(lp204
F12824.0
aF156.51
aa(lp205
F11964.0
aF79.851
aa(lp206
F17364.0
aF176.14
aa(lp207
F14719.0
aF65.29899999999999
aa(lp208
F9701.8
aF204.75
aa(lp209
F7941.4
aF387.25
aa(lp210
F12351.0
aF158.01
aa(lp211
F14163.0
aF146.22
aa(lp212
F8080.2
aF251.14
aa(lp213
F17526.0
aF177.35
aa(lp214
F14224.0
aF217.41
aa(lp215
F12217.0
aF79.256
aa(lp216
F8361.9
aF361.94
aa(lp217
F11561.0
aF263.6
aa(lp218
F12724.0
aF72.712
aa(lp219
F11724.0
aF169.37
aa(lp220
F15446.0
aF200.21
aa(lp221
F12160.0
aF244.75
aa(lp222
F13711.0
aF147.74
aa(lp223
F19541.0
aF50.401
aa(lp224
F17079.0
aF184.46
aa(lp225
F10934.0
aF180.51
aa(lp226
F10991.0
aF90.148
aa(lp227
F13095.0
aF151.03
aa(lp228
F11445.0
aF180.03
aa(lp229
F15112.0
aF194.92
aa(lp230
F12717.0
aF233.0
aa(lp231
F11259.0
aF85.93
aa(lp232
F14016.0
aF142.83
aa(lp233
F12336.0
aF76.613
aa(lp234
F12599.0
aF237.2
aa(lp235
F13385.0
aF72.833
aa(lp236
F16364.0
aF189.15
aa(lp237
F7978.3
aF122.71
aa(lp238
F12276.0
aF82.33200000000001
aa(lp239
F13292.0
aF70.041
aa(lp240
F16916.0
aF180.52
aa(lp241
F12529.0
aF154.49
aa(lp242
F7730.2
aF405.5
aa(lp243
F8196.0
aF387.03
aa(lp244
F12464.0
aF242.18
aa(lp245
F11815.0
aF81.21
aa(lp246
F15166.0
aF63.527
aa(lp247
F8404.0
aF114.93
aa(lp248
F11491.0
aF174.37
aa(lp249
F11574.0
aF176.28
aa(lp250
F11811.0
aF165.54
aa(lp251
F13727.0
aF143.56
aa(lp252
F8195.2
aF372.01
aa(lp253
F15150.0
aF203.83
aa(lp254
F18664.0
aF171.8
aa(lp255
F8083.4
aF382.76
aa(lp256
F12033.0
aF249.7
aa(lp257
F13791.0
aF146.97
aa(lp258
F7845.3
aF379.21
aa(lp259
F12790.0
aF75.441
aa(lp260
F11309.0
aF270.13
aa(lp261
F15349.0
aF203.6
aa(lp262
F11898.0
aF80.556
aa(lp263
F14151.0
aF140.68
aa(lp264
F11766.0
aF168.68
aa(lp265
F8511.6
aF360.37
aa(lp266
F13009.0
aF75.12899999999999
aa(lp267
F8357.8
aF109.87
aa(lp268
F8170.9
aF370.08
aa(lp269
F18777.0
aF178.6
aa(lp270
F15373.0
aF203.88
aa(lp271
F12315.0
aF247.84
aa(lp272
F14060.0
aF72.27199999999999
aa(lp273
F17030.0
aF177.82
aa(lp274
F9789.0
aF197.19
aa(lp275
F11577.0
aF176.46
aa(lp276
F15871.0
aF126.39
aa(lp277
F8455.1
aF365.67
aa(lp278
F11681.0
aF163.56
aa(lp279
F11632.0
aF81.601
aa(lp280
F11699.0
aF84.691
aa(lp281
F14041.0
aF217.99
aa(lp282
F12152.0
aF246.02
aa(lp283
F11722.0
aF83.214
aa(lp284
F13976.0
aF67.493
aa(lp285
F12222.0
aF80.21600000000001
aa(lp286
F14130.0
aF222.3
aa(lp287
F13077.0
aF73.09899999999999
aa(lp288
F15392.0
aF196.93
aa(lp289
F15319.0
aF194.8
aa(lp290
F13962.0
aF144.94
aa(lp291
F14905.0
aF64.58800000000001
aa(lp292
F14127.0
aF212.09
aa(lp293
F20356.0
aF48.387
aa(lp294
F12716.0
aF157.12
aa(lp295
F11638.0
aF256.52
aa(lp296
F14573.0
aF68.835
aa(lp297
F13143.0
aF73.065
aa(lp298
F13820.0
aF144.9
aa(lp299
F13395.0
aF150.91
aa(lp300
F9534.9
aF208.18
aa(lp301
F17189.0
aF57.059
aa(lp302
F14223.0
aF67.023
aa(lp303
F16833.0
aF183.64
aa(lp304
F14045.0
aF145.76
aa(lp305
F11690.0
aF83.55799999999999
aa(lp306
F15145.0
aF64.861
aa(lp307
F12097.0
aF252.04
aa(lp308
F11818.0
aF164.83
aa(lp309
F15151.0
aF203.13
aa(lp310
F8483.2
aF115.66
aa(lp311
F12174.0
aF252.57
aa(lp312
F11515.0
aF268.59
aa(lp313
F11549.0
aF84.664
aa(lp314
F11108.0
aF272.23
aa(lp315
F8358.1
aF359.63
aa(lp316
F8198.4
aF372.85
aag4
a(lp317
F14083.0
aF221.51
aa(lp318
F8529.4
aF112.96
aa(lp319
F9656.2
aF197.94
aa(lp320
F11311.0
aF86.368
aa(lp321
F13891.0
aF217.51
aa(lp322
F7896.7
aF383.13
aa(lp323
F15825.0
aF185.04
aa(lp324
F8164.0
aF246.38
aa(lp325
F12990.0
aF72.943
aa(lp326
F15037.0
aF64.194
aa(lp327
F9283.7
aF103.14
aa(lp328
F7954.7
aF126.38
aa(lp329
F15406.0
aF195.39
aa(lp330
F12229.0
aF79.703
aa(lp331
F12739.0
aF156.49
aa(lp332
F11125.0
aF86.779
aa(lp333
F11617.0
aF259.13
aa(lp334
F7845.4
aF126.82
aa(lp335
F12356.0
aF77.938
aa(lp336
F14160.0
aF67.695
aa(lp337
F11483.0
aF85.765
aa(lp338
F13963.0
aF139.24
aa(lp339
F13514.0
aF68.725
aa(lp340
F18663.0
aF166.98
aa(lp341
F14385.0
aF135.92
aa(lp342
F16955.0
aF183.04
aa(lp343
F11151.0
aF269.9
aa(lp344
F17736.0
aF176.97
aa(lp345
F11782.0
aF80.944
aa(lp346
F12891.0
aF77.633
aa(lp347
F11655.0
aF169.22
aa(lp348
F17254.0
aF177.23
aa(lp349
F14365.0
aF143.06
aa(lp350
F12515.0
aF248.54
aa(lp351
F11501.0
aF171.66
aa(lp352
F8476.8
aF242.01
aa(lp353
F11067.0
aF87.06
aa(lp354
F8379.6
aF357.55
aa(lp355
F12460.0
aF244.31
aa(lp356
F11731.0
aF173.04
aa(lp357
F14810.0
aF139.85
aa(lp358
F11637.0
aF171.71
aa(lp359
F17738.0
aF176.25
aa(lp360
F12674.0
aF150.2
aa(lp361
F14584.0
aF66.234
aa(lp362
F14350.0
aF137.56
aa(lp363
F11816.0
aF169.11
aa(lp364
F9649.2
aF201.81
aa(lp365
F19209.0
aF51.318000000000005
aa(lp366
F13093.0
aF154.87
aa(lp367
F12844.0
aF74.176
aa(lp368
F14175.0
aF135.47
aa(lp369
F11595.0
aF170.79
aa(lp370
F14311.0
aF141.58
aa(lp371
F9536.1
aF204.73
aa(lp372
F12231.0
aF243.66
aa(lp373
F13927.0
aF66.105
aa(lp374
F11924.0
aF175.49
aa(lp375
F12198.0
aF253.06
aa(lp376
F13087.0
aF151.11
aa(lp377
F8074.2
aF124.25
aa(lp378
F11641.0
aF83.95100000000001
aa(lp379
F10817.0
aF92.744
aa(lp380
F16386.0
aF191.05
aa(lp381
F20495.0
aF49.016999999999996
aa(lp382
F9083.2
aF106.7
aa(lp383
F13630.0
aF143.3
aa(lp384
F13279.0
aF70.733
aa(lp385
F11400.0
aF174.2
aa(lp386
F12551.0
aF153.7
aag5
a(lp387
F20050.0
aF51.36600000000001
aa(lp388
F14975.0
aF65.207
aa(lp389
F18019.0
aF173.48
aa(lp390
F11195.0
aF179.17
aa(lp391
F9506.0
aF203.82
aa(lp392
F13273.0
aF71.152
aa(lp393
F14099.0
aF68.71300000000001
aa(lp394
F12327.0
aF251.28
aa(lp395
F8411.9
aF365.13
aa(lp396
F14290.0
aF211.17
aa(lp397
F18529.0
aF167.39
aa(lp398
F8524.5
aF372.9
aa(lp399
F7878.8
aF125.61
aa(lp400
F12830.0
aF154.32
aa(lp401
F15773.0
aF201.11
aa(lp402
F13906.0
aF67.546
aa(lp403
F14101.0
aF70.73100000000001
aa(lp404
F16954.0
aF184.92
aa(lp405
F9682.5
aF200.58
aa(lp406
F13742.0
aF144.26
aa(lp407
F12901.0
aF77.71
aa(lp408
F15001.0
aF66.233
aa(lp409
F17809.0
aF173.96
aa(lp410
F14557.0
aF69.437
aa(lp411
F12293.0
aF161.1
aa(lp412
F13433.0
aF70.547
aa(lp413
F11645.0
aF171.71
aa(lp414
F15245.0
aF199.96
aa(lp415
F19733.0
aF49.527
aa(lp416
F8207.6
aF255.33
aa(lp417
F12806.0
aF154.68
aa(lp418
F11524.0
aF170.12
aa(lp419
F11455.0
aF83.516
aa(lp420
F9787.4
aF200.6
aa(lp421
F10925.0
aF274.27
aa(lp422
F12604.0
aF78.001
aa(lp423
F8015.4
aF248.27
aa(lp424
F8135.8
aF380.16
aa(lp425
F14876.0
aF200.34
aa(lp426
F12652.0
aF75.422
aa(lp427
F12026.0
aF258.27
aa(lp428
F8538.4
aF110.74
aa(lp429
F11620.0
aF81.587
aa(lp430
F11604.0
aF82.823
aa(lp431
F14733.0
aF65.498
aa(lp432
F12107.0
aF248.1
aa(lp433
F13802.0
aF139.24
aa(lp434
F12999.0
aF152.14
aa(lp435
F11795.0
aF259.26
aa(lp436
F12790.0
aF156.57
aa(lp437
F11668.0
aF82.671
aa(lp438
F8440.4
aF113.82
aa(lp439
F12901.0
aF152.29
aag6
a(lp440
F12532.0
aF153.15
aa(lp441
F18140.0
aF169.91
aa(lp442
F9742.7
aF203.4
aa(lp443
F11528.0
aF266.13
aa(lp444
F11742.0
aF166.74
aa(lp445
F17944.0
aF172.88
aa(lp446
F15528.0
aF196.24
aa(lp447
F12585.0
aF239.16
aa(lp448
F11490.0
aF278.64
aa(lp449
F14210.0
aF68.822
aa(lp450
F17478.0
aF55.122
aa(lp451
F11394.0
aF178.65
aa(lp452
F12247.0
aF158.94
aa(lp453
F20432.0
aF48.214
aa(lp454
F13050.0
aF145.75
aa(lp455
F13405.0
aF71.339
aa(lp456
F14411.0
aF69.1
aa(lp457
F13418.0
aF72.155
aa(lp458
F14178.0
aF68.567
aa(lp459
F9334.2
aF102.94
aa(lp460
F8600.9
aF111.07
aa(lp461
F13104.0
aF70.247
aa(lp462
F12665.0
aF74.205
aa(lp463
F12305.0
aF82.948
aa(lp464
F17294.0
aF184.68
aag7
a(lp465
F19671.0
aF50.391000000000005
aa(lp466
F12835.0
aF72.203
aa(lp467
F14471.0
aF135.24
aa(lp468
F13915.0
aF69.791
aa(lp469
F12296.0
aF246.51
aa(lp470
F10820.0
aF93.632
aa(lp471
F13238.0
aF71.22800000000001
aa(lp472
F8560.2
aF354.29
aa(lp473
F13594.0
aF144.91
aa(lp474
F12418.0
aF164.9
aa(lp475
F8019.9
aF247.42
aa(lp476
F12322.0
aF153.88
aa(lp477
F11864.0
aF167.52
aa(lp478
F11891.0
aF259.29
aa(lp479
F12655.0
aF239.77
aa(lp480
F15026.0
aF202.62
aa(lp481
F16949.0
aF189.3
aa(lp482
F14589.0
aF65.733
aa(lp483
F14316.0
aF137.2
aa(lp484
F12366.0
aF76.828
aa(lp485
F10803.0
aF91.932
aa(lp486
F7945.6
aF250.3
aa(lp487
F2122.2
aF167.26
aa(lp488
F12141.0
aF79.583
aa(lp489
F17433.0
aF177.14
aa(lp490
F11154.0
aF87.62
aa(lp491
F12351.0
aF241.38
aa(lp492
F13906.0
aF70.048
aa(lp493
F12390.0
aF78.109
aa(lp494
F9213.3
aF102.99
aa(lp495
F14623.0
aF137.48
aa(lp496
F11475.0
aF263.58
aa(lp497
F14395.0
aF206.36
aa(lp498
F12106.0
aF79.89
aa(lp499
F13893.0
aF68.601
aa(lp500
F12273.0
aF78.982
aa(lp501
F14550.0
aF137.82
aa(lp502
F15722.0
aF203.06
aa(lp503
F12282.0
aF240.34
aa(lp504
F11845.0
aF258.05
aa(lp505
F11751.0
aF82.42
aa(lp506
F12235.0
aF246.0
aa(lp507
F14570.0
aF66.392
aa(lp508
F14145.0
aF208.05
aa(lp509
F8282.6
aF113.69
aa(lp510
F8206.2
aF242.81
aa(lp511
F14311.0
aF134.94
aa(lp512
F14707.0
aF132.91
aa(lp513
F13339.0
aF154.39
aa(lp514
F11788.0
aF172.61
aa(lp515
F12704.0
aF74.668
aa(lp516
F13047.0
aF147.88
aa(lp517
F11950.0
aF167.23
aa(lp518
F10871.0
aF90.738
aa(lp519
F7851.3
aF262.75
aa(lp520
F20534.0
aF49.505
aa(lp521
F13906.0
aF143.74
aa(lp522
F14131.0
aF218.18
aa(lp523
F15503.0
aF193.07
aa(lp524
F13767.0
aF147.79
aa(lp525
F20536.0
aF47.513000000000005
aa(lp526
F14910.0
aF131.78
aa(lp527
F14284.0
aF143.69
aa(lp528
F20134.0
aF51.406000000000006
aa(lp529
F8567.1
aF110.72
aa(lp530
F11572.0
aF173.7
aa(lp531
F13865.0
aF215.98
aa(lp532
F13875.0
aF143.54
aa(lp533
F12610.0
aF79.831
aa(lp534
F14311.0
aF138.01
aa(lp535
F12062.0
aF79.76
aa(lp536
F17079.0
aF180.64
aa(lp537
F18343.0
aF159.53
aa(lp538
F13938.0
aF213.61
aa(lp539
F13970.0
aF223.61
aa(lp540
F11241.0
aF179.53
aa(lp541
F12962.0
aF72.683
aa(lp542
F11589.0
aF172.21
aa(lp543
F12907.0
aF148.98
aa(lp544
F18409.0
aF170.51
aa(lp545
F12814.0
aF76.921
aa(lp546
F14713.0
aF135.85
aa(lp547
F13983.0
aF214.56
aa(lp548
F13554.0
aF69.196
aa(lp549
F12771.0
aF72.043
aa(lp550
F11921.0
aF170.53
aa(lp551
F11488.0
aF172.87
aa(lp552
F8305.2
aF115.51
aa(lp553
F12171.0
aF81.11
aa(lp554
F8007.0
aF257.3
aa(lp555
F13628.0
aF68.597
aa(lp556
F17512.0
aF172.99
aa(lp557
F13625.0
aF71.58800000000001
aa(lp558
F14052.0
aF211.81
aa(lp559
F8231.7
aF362.87
aa(lp560
F13701.0
aF146.25
aa(lp561
F11808.0
aF254.04
aa(lp562
F14290.0
aF68.155
aa(lp563
F10793.0
aF92.613
aa(lp564
F13658.0
aF223.86
aa(lp565
F13830.0
aF219.69
aa(lp566
F13094.0
aF74.428
aa(lp567
F9557.2
aF201.76
aa(lp568
F9260.0
aF104.57
aa(lp569
F15572.0
aF195.33
aa(lp570
F11603.0
aF172.51
aa(lp571
F17206.0
aF186.35
aa(lp572
F13432.0
aF69.73899999999999
aa(lp573
F12150.0
aF243.51
aa(lp574
F14361.0
aF67.604
aa(lp575
F12721.0
aF77.152
aa(lp576
F11813.0
aF166.26
aa(lp577
F11667.0
aF82.684
aa(lp578
F13589.0
aF144.86
aa(lp579
F12422.0
aF242.85
aa(lp580
F11937.0
aF163.4
aa(lp581
F12465.0
aF243.2
aa(lp582
F11594.0
aF255.23
aa(lp583
F9395.3
aF104.4
aa(lp584
F12307.0
aF79.414
aa(lp585
F12088.0
aF165.58
aa(lp586
F12207.0
aF166.29
aa(lp587
F11235.0
aF85.49600000000001
aa(lp588
F13154.0
aF150.98
aa(lp589
F15955.0
aF200.74
aa(lp590
F7810.2
aF127.93
aa(lp591
F11572.0
aF80.73899999999999
aa(lp592
F8344.1
aF363.01
aa(lp593
F8444.1
aF111.72
aa(lp594
F9398.1
aF202.45
aa(lp595
F12728.0
aF73.452
aa(lp596
F13109.0
aF70.066
aa(lp597
F8083.9
aF124.77
aa(lp598
F12072.0
aF251.81
aa(lp599
F12007.0
aF165.0
aa(lp600
F13800.0
aF142.73
aa(lp601
F15681.0
aF203.01
aa(lp602
F12108.0
aF78.132
aa(lp603
F11123.0
aF88.986
aa(lp604
F15494.0
aF199.53
aa(lp605
F13499.0
aF220.31
aa(lp606
F13699.0
aF223.01
aa(lp607
F9730.6
aF199.44
aa(lp608
F11323.0
aF86.081
aa(lp609
F12408.0
aF159.7
aa(lp610
F11929.0
aF166.68
aa(lp611
F14171.0
aF144.12
aa(lp612
F12877.0
aF150.37
aa(lp613
F11988.0
aF241.75
aa(lp614
F11551.0
aF171.29
aa(lp615
F12597.0
aF80.093
aa(lp616
F14343.0
aF67.01100000000001
aa(lp617
F12074.0
aF80.847
aa(lp618
F11813.0
aF167.22
aa(lp619
F13986.0
aF202.97
aa(lp620
F14216.0
aF138.64
aa(lp621
F16854.0
aF181.01
aa(lp622
F15578.0
aF127.42
aa(lp623
F13188.0
aF73.832
aa(lp624
F14197.0
aF69.457
aa(lp625
F15370.0
aF196.87
aa(lp626
F16684.0
aF59.876999999999995
aa(lp627
F15413.0
aF131.71
aa(lp628
F8333.2
aF371.39
aa(lp629
F11271.0
aF181.91
aa(lp630
F12633.0
aF78.619
aa(lp631
F16777.0
aF188.56
aa(lp632
F20415.0
aF47.652
aa(lp633
F11357.0
aF275.88
aa(lp634
F11795.0
aF83.76899999999999
aa(lp635
F12812.0
aF73.119
aa(lp636
F12455.0
aF73.217
aa(lp637
F8442.0
aF109.39
aa(lp638
F13221.0
aF150.61
aa(lp639
F8674.8
aF231.9
aa(lp640
F17049.0
aF176.54
aa(lp641
F11417.0
aF172.71
aa(lp642
F12624.0
aF241.7
aa(lp643
F8413.5
aF360.16
aa(lp644
F11676.0
aF256.9
aa(lp645
F11650.0
aF263.14
aa(lp646
F8444.7
aF361.36
aa(lp647
F11437.0
aF177.01
aa(lp648
F13268.0
aF147.81
aa(lp649
F14302.0
aF67.396
aa(lp650
F18778.0
aF162.55
aa(lp651
F11739.0
aF82.245
aa(lp652
F8426.9
aF361.58
aa(lp653
F19614.0
aF48.667
aa(lp654
F8517.7
aF362.15
aa(lp655
F12742.0
aF159.03
aa(lp656
F11218.0
aF179.02
aa(lp657
F11756.0
aF166.8
aa(lp658
F13359.0
aF231.07
aa(lp659
F18040.0
aF175.91
aa(lp660
F8146.0
aF250.08
aa(lp661
F10063.0
aF197.63
aa(lp662
F12419.0
aF245.43
aa(lp663
F13029.0
aF153.21
aa(lp664
F13148.0
aF71.17399999999999
aa(lp665
F12904.0
aF149.38
aa(lp666
F13944.0
aF138.31
aa(lp667
F15491.0
aF194.22
aa(lp668
F13643.0
aF143.02
aa(lp669
F12418.0
aF246.82
aa(lp670
F7855.3
aF377.63
aa(lp671
F7939.4
aF379.33
aa(lp672
F13046.0
aF153.25
aa(lp673
F12602.0
aF158.23
aa(lp674
F14117.0
aF68.127
aa(lp675
F9267.3
aF107.04
aa(lp676
F7975.1
aF372.51
aa(lp677
F15287.0
aF200.77
aa(lp678
F13646.0
aF145.26
aa(lp679
F12499.0
aF162.46
aa(lp680
F7954.8
aF379.24
aa(lp681
F12697.0
aF74.464
aa(lp682
F15741.0
aF199.05
aa(lp683
F7811.1
aF127.36
aa(lp684
F7914.2
aF130.0
aa(lp685
F14750.0
aF133.89
aa(lp686
F13551.0
aF71.47
aa(lp687
F11645.0
aF168.07
aa(lp688
F13599.0
aF73.403
aa(lp689
F11332.0
aF267.57
aa(lp690
F8111.1
aF374.92
aa(lp691
F13426.0
aF141.57
aa(lp692
F8236.0
aF241.58
aa(lp693
F15574.0
aF203.43
aa(lp694
F10979.0
aF89.199
aag8
a(lp695
F13778.0
aF67.548
aa(lp696
F18972.0
aF167.87
aag9
a(lp697
F12480.0
aF159.84
aa(lp698
F11384.0
aF177.38
aa(lp699
F15095.0
aF131.58
aa(lp700
F11558.0
aF81.884
aa(lp701
F12478.0
aF165.57
aa(lp702
F12844.0
aF153.55
aa(lp703
F13652.0
aF221.59
aa(lp704
F11345.0
aF260.53
aa(lp705
F12699.0
aF161.35
aa(lp706
F12192.0
aF78.38
aa(lp707
F13643.0
aF144.77
aa(lp708
F11496.0
aF174.97
aa(lp709
F11828.0
aF263.26
aa(lp710
F11535.0
aF165.34
aa(lp711
F12489.0
aF240.55
aa(lp712
F8229.4
aF245.2
aa(lp713
F8077.3
aF251.79
aa(lp714
F8398.6
aF239.7
aa(lp715
F7890.0
aF126.63
aa(lp716
F14421.0
aF142.43
aa(lp717
F12233.0
aF78.571
aa(lp718
F12957.0
aF73.267
aa(lp719
F11772.0
aF82.35799999999999
aa(lp720
F15256.0
aF129.03
aa(lp721
F8363.8
aF373.86
aa(lp722
F17812.0
aF172.6
aa(lp723
F12583.0
aF72.016
aa(lp724
F12555.0
aF244.31
aa(lp725
F11326.0
aF273.88
aa(lp726
F13913.0
aF214.76
aa(lp727
F15353.0
aF196.48
aa(lp728
F8592.3
aF108.42
aa(lp729
F18965.0
aF51.98
aa(lp730
F12004.0
aF260.77
aa(lp731
F13286.0
aF141.22
aa(lp732
F11316.0
aF172.47
aa(lp733
F11185.0
aF86.291
aa(lp734
F7975.7
aF255.27
aa(lp735
F9819.2
aF196.16
aa(lp736
F9912.1
aF195.05
aa(lp737
F7752.5
aF401.67
aa(lp738
F14748.0
aF65.825
aag10
a(lp739
F16054.0
aF184.06
aa(lp740
F11639.0
aF172.21
aa(lp741
F11957.0
aF81.38600000000001
aag11
a(lp742
F7858.1
aF387.38
aa(lp743
F15483.0
aF203.68
aa(lp744
F15383.0
aF196.52
aa(lp745
F13618.0
aF145.04
aa(lp746
F12451.0
aF245.09
aa(lp747
F13672.0
aF223.3
aa(lp748
F13584.0
aF141.77
aa(lp749
F8212.6
aF245.08
aa(lp750
F13327.0
aF69.52199999999999
aa(lp751
F11973.0
aF80.767
aa(lp752
F13866.0
aF147.11
aa(lp753
F12693.0
aF71.982
aa(lp754
F12241.0
aF163.21
aa(lp755
F12856.0
aF72.372
aa(lp756
F14532.0
aF65.505
aa(lp757
F10750.0
aF90.00399999999999
aa(lp758
F12605.0
aF159.36
aa(lp759
F11321.0
aF272.01
aa(lp760
F13846.0
aF142.06
aa(lp761
F13148.0
aF149.72
aa(lp762
F12010.0
aF79.661
aa(lp763
F8084.2
aF123.81
aa(lp764
F12386.0
aF77.368
aa(lp765
F11524.0
aF173.52
aa(lp766
F8417.0
aF356.03
aa(lp767
F17086.0
aF178.92
aa(lp768
F11761.0
aF167.26
aa(lp769
F14871.0
aF198.13
aa(lp770
F8214.7
aF249.49
aa(lp771
F14458.0
aF136.56
aa(lp772
F12463.0
aF79.078
aa(lp773
F12095.0
aF79.646
aa(lp774
F14036.0
aF210.6
aa(lp775
F15352.0
aF202.15
aa(lp776
F15663.0
aF125.43
aa(lp777
F11680.0
aF257.98
aa(lp778
F11877.0
aF167.73
aa(lp779
F14244.0
aF140.87
aa(lp780
F20178.0
aF48.336999999999996
aa(lp781
F12535.0
aF160.22
aa(lp782
F11792.0
aF264.09
aa(lp783
F15329.0
aF137.4
aa(lp784
F14160.0
aF143.35
aa(lp785
F13824.0
aF69.907
aa(lp786
F11053.0
aF186.79
aa(lp787
F17853.0
aF173.45
aa(lp788
F17286.0
aF181.25
aa(lp789
F11758.0
aF168.51
aa(lp790
F17299.0
aF55.711000000000006
aa(lp791
F12181.0
aF249.93
aa(lp792
F16569.0
aF190.43
aa(lp793
F14008.0
aF68.083
aa(lp794
F13810.0
aF147.99
aa(lp795
F15161.0
aF202.01
aa(lp796
F8207.4
aF373.63
aa(lp797
F7768.4
aF390.46
aa(lp798
F14436.0
aF137.28
aa(lp799
F13862.0
aF212.71
aa(lp800
F15531.0
aF202.91
aa(lp801
F13861.0
aF66.109
aa(lp802
F9661.6
aF202.41
aa(lp803
F11674.0
aF270.36
aa(lp804
F13979.0
aF144.14
aa(lp805
F14249.0
aF207.63
aa(lp806
F14041.0
aF67.485
aa(lp807
F13981.0
aF222.08
aa(lp808
F12240.0
aF163.52
aa(lp809
F14757.0
aF132.54
aa(lp810
F11537.0
aF176.59
aa(lp811
F14811.0
aF132.72
aa(lp812
F8280.0
aF114.51
aa(lp813
F7959.8
aF254.98
aa(lp814
F8533.0
aF352.64
aa(lp815
F13737.0
aF141.78
aa(lp816
F12397.0
aF79.414
aa(lp817
F14277.0
aF68.234
aa(lp818
F15770.0
aF193.73
aa(lp819
F13549.0
aF144.8
aa(lp820
F14194.0
aF216.76
aa(lp821
F8184.2
aF371.71
aa(lp822
F12790.0
aF75.418
aa(lp823
F14392.0
aF140.46
aa(lp824
F14968.0
aF127.25
aa(lp825
F11493.0
aF169.03
aa(lp826
F19268.0
aF51.911
aa(lp827
F13940.0
aF72.766
aa(lp828
F18575.0
aF178.9
aa(lp829
F17092.0
aF179.91
aa(lp830
F8198.2
aF378.6
aa(lp831
F13614.0
aF218.1
aa(lp832
F13013.0
aF153.89
aa(lp833
F15523.0
aF127.32
aa(lp834
F10718.0
aF89.321
aa(lp835
F11595.0
aF247.79
aa(lp836
F17406.0
aF54.938
aa(lp837
F11982.0
aF79.374
aa(lp838
F19063.0
aF53.326
aa(lp839
F11939.0
aF253.39
aa(lp840
F12864.0
aF149.1
aa(lp841
F10644.0
aF92.735
aa(lp842
F12302.0
aF77.046
aa(lp843
F12730.0
aF76.43
aa(lp844
F8300.5
aF112.2
aa(lp845
F12903.0
aF71.984
aa(lp846
F9884.0
aF193.31
aa(lp847
F12108.0
aF79.968
aa(lp848
F14251.0
aF214.7
aa(lp849
F12317.0
aF162.45
aa(lp850
F14230.0
aF139.0
aa(lp851
F11100.0
aF88.20200000000001
aa(lp852
F12778.0
aF151.39
aa(lp853
F11688.0
aF165.08
aa(lp854
F8134.6
aF371.67
aa(lp855
F15478.0
aF203.55
aa(lp856
F15471.0
aF125.77
aa(lp857
F12824.0
aF151.61
aa(lp858
F11777.0
aF172.76
aa(lp859
F14686.0
aF65.76
aa(lp860
F14702.0
aF65.645
aa(lp861
F15587.0
aF129.74
aa(lp862
F12539.0
aF239.62
aa(lp863
F11683.0
aF81.16
aa(lp864
F12446.0
aF161.59
aa(lp865
F11856.0
aF164.9
aa(lp866
F13341.0
aF68.589
aa(lp867
F13031.0
aF153.92
aa(lp868
F12410.0
aF241.56
aa(lp869
F14327.0
aF67.328
aa(lp870
F7965.2
aF124.28
aa(lp871
F7879.3
aF376.89
aa(lp872
F13516.0
aF71.818
aa(lp873
F11508.0
aF261.59
aa(lp874
F11749.0
aF264.86
aa(lp875
F12240.0
aF160.41
aa(lp876
F8506.0
aF113.18
aa(lp877
F12043.0
aF252.08
aa(lp878
F11693.0
aF81.686
aa(lp879
F14853.0
aF212.77
aa(lp880
F11841.0
aF259.01
aa(lp881
F12237.0
aF77.458
aa(lp882
F18379.0
aF168.9
aa(lp883
F7982.3
aF378.11
aa(lp884
F12534.0
aF154.19
aa(lp885
F14507.0
aF142.06
aa(lp886
F11367.0
aF268.87
aa(lp887
F11521.0
aF273.84
aa(lp888
F16959.0
aF56.933
aa(lp889
F8656.6
aF110.3
aa(lp890
F11821.0
aF258.78
aa(lp891
F9745.7
aF201.18
aa(lp892
F11349.0
aF272.31
aa(lp893
F13773.0
aF147.37
aa(lp894
F11901.0
aF81.936
aa(lp895
F13713.0
aF222.1
aa(lp896
F11642.0
aF260.33
aa(lp897
F13634.0
aF219.15
aa(lp898
F14910.0
aF67.445
aa(lp899
F12325.0
aF165.61
aa(lp900
F8479.3
aF111.58
aa(lp901
F11077.0
aF257.28
aa(lp902
F15101.0
aF202.33
aa(lp903
F12465.0
aF157.74
aa(lp904
F14019.0
aF135.04
aa(lp905
F13750.0
aF145.65
aa(lp906
F14557.0
aF66.947
aa(lp907
F12561.0
aF79.292
aa(lp908
F11409.0
aF264.59
aa(lp909
F13270.0
aF151.92
aa(lp910
F12303.0
aF76.528
aa(lp911
F12119.0
aF253.7
aa(lp912
F7999.9
aF384.8
aa(lp913
F14074.0
aF69.475
aa(lp914
F15317.0
aF199.73
aa(lp915
F8442.9
aF239.71
aa(lp916
F9697.1
aF201.07
aa(lp917
F12301.0
aF166.15
aa(lp918
F18708.0
aF165.25
aag12
a(lp919
F14095.0
aF141.07
aa(lp920
F12305.0
aF77.264
aa(lp921
F16022.0
aF191.65
aa(lp922
F19710.0
aF49.453
aa(lp923
F19610.0
aF49.111000000000004
aa(lp924
F14722.0
aF66.798
aa(lp925
F13677.0
aF73.65
aa(lp926
F15139.0
aF131.67
aa(lp927
F12047.0
aF252.08
aa(lp928
F11542.0
aF262.7
aa(lp929
F12927.0
aF153.82
aa(lp930
F12742.0
aF238.06
aa(lp931
F15084.0
aF132.03
aa(lp932
F11816.0
aF256.25
aa(lp933
F11965.0
aF257.83
aa(lp934
F8056.0
aF124.54
aa(lp935
F14476.0
aF136.85
aa(lp936
F13579.0
aF145.34
aa(lp937
F11968.0
aF256.13
aa(lp938
F12561.0
aF159.21
aa(lp939
F14718.0
aF135.21
aa(lp940
F11900.0
aF255.07
aa(lp941
F14805.0
aF68.305
aa(lp942
F12221.0
aF79.187
aa(lp943
F8491.4
aF367.32
aa(lp944
F17633.0
aF182.47
aa(lp945
F11301.0
aF275.85
aa(lp946
F11215.0
aF185.16
aa(lp947
F14456.0
aF135.19
aa(lp948
F7600.2
aF259.56
aa(lp949
F13615.0
aF147.56
aa(lp950
F13908.0
aF146.26
aa(lp951
F17089.0
aF178.04
aa(lp952
F13068.0
aF73.47800000000001
aa(lp953
F13730.0
aF147.69
aa(lp954
F15224.0
aF205.93
aa(lp955
F11850.0
aF255.85
aag13
a(lp956
F17083.0
aF57.549
aa(lp957
F15787.0
aF191.95
aa(lp958
F8473.0
aF365.42
aa(lp959
F13662.0
aF148.99
aa(lp960
F12338.0
aF163.93
aa(lp961
F18315.0
aF176.25
aa(lp962
F12754.0
aF72.6
aa(lp963
F12289.0
aF236.69
aa(lp964
F11070.0
aF276.85
aa(lp965
F11934.0
aF246.94
aa(lp966
F11461.0
aF271.83
aa(lp967
F12422.0
aF160.17
aa(lp968
F7862.6
aF382.13
aa(lp969
F14608.0
aF65.23
aa(lp970
F12541.0
aF153.27
aa(lp971
F12581.0
aF158.91
aa(lp972
F14258.0
aF138.47
aa(lp973
F8458.9
aF238.33
aa(lp974
F8395.2
aF352.61
aa(lp975
F12825.0
aF152.6
aa(lp976
F10979.0
aF90.24
aa(lp977
F11192.0
aF278.14
aa(lp978
F11763.0
aF81.158
aa(lp979
F12873.0
aF73.094
aa(lp980
F12128.0
aF161.23
aa(lp981
F10839.0
aF91.76700000000001
aa(lp982
F15339.0
aF123.24
aa(lp983
F13996.0
aF70.993
aa(lp984
F12735.0
aF155.2
aa(lp985
F11682.0
aF259.61
aa(lp986
F15546.0
aF131.99
aa(lp987
F12476.0
aF163.99
aa(lp988
F9705.7
aF202.82
aa(lp989
F11421.0
aF273.97
aa(lp990
F8360.5
aF364.65
aa(lp991
F12797.0
aF147.79
aa(lp992
F14672.0
aF66.689
aa(lp993
F18422.0
aF163.12
aa(lp994
F12678.0
aF77.633
aa(lp995
F8544.9
aF114.01
aa(lp996
F7828.6
aF129.22
aa(lp997
F13463.0
aF228.15
aa(lp998
F11302.0
aF83.44200000000001
aa(lp999
F11880.0
aF255.51
aa(lp1000
F20353.0
aF48.677
aa(lp1001
F12372.0
aF251.47
aa(lp1002
F13419.0
aF221.61
aa(lp1003
F11983.0
aF80.941
aa(lp1004
F11969.0
aF249.68
aa(lp1005
F12835.0
aF153.19
aa(lp1006
F12295.0
aF162.83
aa(lp1007
F16455.0
aF61.412
aa(lp1008
F11972.0
aF78.883
aa(lp1009
F11781.0
aF258.81
aa(lp1010
F14967.0
aF204.87
aag14
a(lp1011
F10703.0
aF92.15
aa(lp1012
F12828.0
aF152.93
aa(lp1013
F11980.0
aF78.92399999999999
aa(lp1014
F18196.0
aF169.88
aa(lp1015
F12518.0
aF154.39
aa(lp1016
F16990.0
aF177.94
aa(lp1017
F11672.0
aF267.8
aa(lp1018
F11254.0
aF175.1
aa(lp1019
F13453.0
aF217.05
aa(lp1020
F12580.0
aF252.44
aa(lp1021
F14091.0
aF215.56
aa(lp1022
F12585.0
aF75.039
aa(lp1023
F12503.0
aF80.717
aa(lp1024
F14215.0
aF138.06
aa(lp1025
F11912.0
aF255.57
aa(lp1026
F14527.0
aF67.116
aa(lp1027
F11428.0
aF172.9
aa(lp1028
F17892.0
aF172.78
aa(lp1029
F19372.0
aF50.673
aa(lp1030
F9503.6
aF203.99
aa(lp1031
F8945.8
aF110.33
aa(lp1032
F15889.0
aF189.54
aa(lp1033
F13663.0
aF142.71
aa(lp1034
F10874.0
aF90.62
aa(lp1035
F11941.0
aF255.92
aa(lp1036
F12456.0
aF80.408
aa(lp1037
F13318.0
aF224.17
aa(lp1038
F18889.0
aF52.376999999999995
aa(lp1039
F8059.8
aF363.97
aa(lp1040
F9574.4
aF206.54
aa(lp1041
F13143.0
aF145.23
aa(lp1042
F13943.0
aF141.27
aa(lp1043
F11615.0
aF265.34
aa(lp1044
F14230.0
aF139.76
aa(lp1045
F14745.0
aF138.28
aa(lp1046
F11463.0
aF172.79
aa(lp1047
F12599.0
aF159.83
aa(lp1048
F13193.0
aF149.17
aa(lp1049
F13058.0
aF73.809
aa(lp1050
F13052.0
aF72.387
aa(lp1051
F17130.0
aF60.02
aa(lp1052
F14121.0
aF137.87
aa(lp1053
F19992.0
aF47.622
aa(lp1054
F16393.0
aF61.68
aa(lp1055
F13496.0
aF214.85
aa(lp1056
F8238.6
aF246.56
aa(lp1057
F11542.0
aF267.34
aa(lp1058
F12959.0
aF76.212
aa(lp1059
F12524.0
aF157.2
aa(lp1060
F8100.0
aF115.72
aa(lp1061
F8556.9
aF111.33
aa(lp1062
F11772.0
aF175.23
aa(lp1063
F11785.0
aF163.55
aa(lp1064
F17194.0
aF186.42
aa(lp1065
F11738.0
aF259.03
aa(lp1066
F15403.0
aF205.09
aa(lp1067
F9897.6
aF196.87
aa(lp1068
F14161.0
aF136.24
aa(lp1069
F14617.0
aF138.01
aa(lp1070
F8097.9
aF247.37
aa(lp1071
F15554.0
aF197.87
aa(lp1072
F11313.0
aF260.59
aa(lp1073
F13868.0
aF213.32
aa(lp1074
F12486.0
aF163.58
aa(lp1075
F12656.0
aF158.11
aa(lp1076
F13293.0
aF143.77
aa(lp1077
F17497.0
aF54.146
aa(lp1078
F9551.3
aF197.83
aa(lp1079
F11687.0
aF263.87
aa(lp1080
F14620.0
aF134.29
aa(lp1081
F8012.6
aF126.01
aa(lp1082
F14742.0
aF66.96600000000001
aa(lp1083
F8153.9
aF380.27
aa(lp1084
F14557.0
aF133.22
aa(lp1085
F12287.0
aF249.69
aa(lp1086
F18716.0
aF169.76
aa(lp1087
F13714.0
aF216.59
aa(lp1088
F10620.0
aF92.693
aa(lp1089
F14328.0
aF67.434
aa(lp1090
F12691.0
aF163.03
aa(lp1091
F11317.0
aF84.69200000000001
aa(lp1092
F8517.5
aF236.68
aa(lp1093
F12174.0
aF240.7
aa(lp1094
F15617.0
aF201.6
aa(lp1095
F12798.0
aF149.21
aa(lp1096
F8528.8
aF106.99
aa(lp1097
F13097.0
aF147.47
aa(lp1098
F9023.6
aF110.07
aa(lp1099
F8316.5
aF366.08
aa(lp1100
F15870.0
aF190.26
aa(lp1101
F19935.0
aF51.31100000000001
aa(lp1102
F15822.0
aF191.57
aa(lp1103
F9314.8
aF102.73
aa(lp1104
F16825.0
aF60.04600000000001
aa(lp1105
F11801.0
aF170.98
aa(lp1106
F13623.0
aF150.31
aa(lp1107
F8407.0
aF366.26
aa(lp1108
F12952.0
aF73.688
aa(lp1109
F15767.0
aF199.75
aa(lp1110
F12170.0
aF76.017
aa(lp1111
F8423.9
aF112.78
aa(lp1112
F11442.0
aF173.82
aa(lp1113
F14304.0
aF135.43
aa(lp1114
F11497.0
aF259.74
aa(lp1115
F13722.0
aF218.52
aa(lp1116
F12553.0
aF160.87
aa(lp1117
F18717.0
aF163.22
aa(lp1118
F12018.0
aF247.0
aa(lp1119
F11605.0
aF253.86
aa(lp1120
F11453.0
aF270.58
aa(lp1121
F17418.0
aF55.343999999999994
aa(lp1122
F8507.8
aF109.16
aa(lp1123
F11847.0
aF250.2
aa(lp1124
F13479.0
aF71.964
aa(lp1125
F11627.0
aF257.8
aa(lp1126
F12135.0
aF167.02
aa(lp1127
F12288.0
aF162.39
aa(lp1128
F14753.0
aF142.82
aa(lp1129
F7860.1
aF375.15
aa(lp1130
F14549.0
aF139.9
aa(lp1131
F12621.0
aF161.8
aa(lp1132
F11650.0
aF263.15
aa(lp1133
F17898.0
aF54.633
aasS'actual_pf'
p1134
(lp1135
g7
as.