(dp0
S'complaint_data'
p1
(lp2
(lp3
F19333.0
aF176.63
aa(lp4
F22060.0
aF176.14
aa(lp5
F22255.0
aF185.37
aa(lp6
F21433.0
aF167.49
aa(lp7
F21629.0
aF162.25
aa(lp8
F21406.0
aF166.54
aa(lp9
F21004.0
aF165.18
aa(lp10
F19203.0
aF190.63
aa(lp11
F20636.0
aF180.59
aa(lp12
F21842.0
aF153.76
aa(lp13
F19818.0
aF185.14
aa(lp14
F21412.0
aF188.77
aa(lp15
F19895.0
aF181.35
aa(lp16
F22298.0
aF166.1
aa(lp17
F21396.0
aF161.71
aa(lp18
F20674.0
aF158.35
aa(lp19
F22887.0
aF172.74
aa(lp20
F21605.0
aF160.5
aa(lp21
F20371.0
aF173.53
aa(lp22
F20360.0
aF174.83
aa(lp23
F21595.0
aF165.35
aa(lp24
F22119.0
aF155.28
aa(lp25
F21847.0
aF168.13
aa(lp26
F20209.0
aF185.56
aa(lp27
F20391.0
aF176.12
aa(lp28
F21828.0
aF156.42
aa(lp29
F20024.0
aF176.57
aa(lp30
F21302.0
aF170.52
aa(lp31
F22391.0
aF168.34
aa(lp32
F22171.0
aF171.01
aa(lp33
F21488.0
aF169.08
aa(lp34
F21687.0
aF164.28
aasS'convex_hull_y'
p35
(lp36
cnumpy.core.multiarray
scalar
p37
(cnumpy
dtype
p38
(S'f8'
p39
I0
I1
tp40
Rp41
(I3
S'<'
p42
NNNI-1
I-1
I0
tp43
bS'\x11\xf9\xa0\xa7W\x00\x15@'
p44
tp45
Rp46
ag37
(g41
S'.<\x8d\t<\xb2\x14@'
p47
tp48
Rp49
ag37
(g41
S'\x8e\xfb\x05\xf8\\B\x14@'
p50
tp51
Rp52
ag37
(g41
S'<\xf3X\x0c>$\x14@'
p53
tp54
Rp55
ag37
(g41
S'\xfd\xd3\xd0\xc1P.\x14@'
p56
tp57
Rp58
ag37
(g41
S'X\x89\xa63n\x9b\x14@'
p59
tp60
Rp61
ag37
(g41
S'\xea&\xc9\xb8\xb0\xe3\x14@'
p62
tp63
Rp64
ag37
(g41
S'\x8b\xe2\xf3RM\xf6\x14@'
p65
tp66
Rp67
asS'convex_hull_x'
p68
(lp69
g37
(g41
S'\x94\x8fF\xc7\xc3\xb9#@'
p70
tp71
Rp72
ag37
(g41
S'\xac\xe9\xcd\x1d8\xbd#@'
p73
tp74
Rp75
ag37
(g41
S'\x1d\xf5\xd2?\x8e\xdf#@'
p76
tp77
Rp78
ag37
(g41
S'\xf3\x96@\xaf\xb1\xfb#@'
p79
tp80
Rp81
ag37
(g41
S'm\x95t|%\x02$@'
p82
tp83
Rp84
ag37
(g41
S'U\x93\x8d?\x9f\x13$@'
p85
tp86
Rp87
ag37
(g41
S'\xd4\x839\xecH\x05$@'
p88
tp89
Rp90
ag37
(g41
S'\x81\xb3u\x8d\x83\xf1#@'
p91
tp92
Rp93
asS'current_pf'
p94
(lp95
(lp96
F22799.0
aF156.83
aag96
ag96
ag96
ag96
ag96
ag96
a(lp97
F23075.0
aF158.68
aasS'all_data_dep'
p98
(lp99
(lp100
F13003.0
aF236.51
aa(lp101
F14269.0
aF222.82
aa(lp102
F14952.0
aF211.67
aa(lp103
F16336.0
aF208.52
aa(lp104
F22063.0
aF161.93
aa(lp105
F21293.0
aF172.79
aa(lp106
F3146.1
aF926.97
aa(lp107
F13978.0
aF239.83
aa(lp108
F17414.0
aF189.04
aa(lp109
F579.38
aF6812.1
aa(lp110
F14237.0
aF236.34
aa(lp111
F11601.0
aF286.42
aa(lp112
F11537.0
aF292.69
aa(lp113
F2965.1
aF837.77
aa(lp114
F19167.0
aF188.14
aa(lp115
F17908.0
aF207.82
aa(lp116
F18746.0
aF177.55
aa(lp117
F18098.0
aF193.22
aa(lp118
F16533.0
aF212.25
aa(lp119
F14066.0
aF232.12
aa(lp120
F15404.0
aF222.95
aag3
a(lp121
F16214.0
aF210.27
aa(lp122
F19321.0
aF188.85
aa(lp123
F15411.0
aF203.24
aa(lp124
F15577.0
aF216.81
aa(lp125
F19480.0
aF188.78
aa(lp126
F12029.0
aF276.04
aa(lp127
F17570.0
aF193.77
aa(lp128
F16580.0
aF197.74
aa(lp129
F449.12
aF8028.7
aa(lp130
F12879.0
aF259.1
aa(lp131
F12609.0
aF275.32
aa(lp132
F8928.5
aF354.78
aa(lp133
F20802.0
aF175.36
aa(lp134
F21082.0
aF177.91
aa(lp135
F20030.0
aF199.68
aa(lp136
F17112.0
aF195.79
aa(lp137
F15861.0
aF204.87
aa(lp138
F18431.0
aF183.2
aag4
a(lp139
F14845.0
aF232.94
aa(lp140
F9671.6
aF353.56
aa(lp141
F14542.0
aF210.82
aa(lp142
F19437.0
aF177.05
aa(lp143
F14279.0
aF222.97
aa(lp144
F18510.0
aF181.3
aa(lp145
F17310.0
aF205.18
aa(lp146
F19756.0
aF220.6
aa(lp147
F12308.0
aF255.93
aag5
a(lp148
F18040.0
aF193.07
aa(lp149
F3393.4
aF781.84
aa(lp150
F9792.8
aF322.8
aa(lp151
F8823.4
aF383.41
aa(lp152
F20720.0
aF183.96
aa(lp153
F17202.0
aF205.13
aa(lp154
F3099.8
aF787.33
aa(lp155
F12285.0
aF288.02
aa(lp156
F13997.0
aF228.11
aa(lp157
F3074.8
aF789.44
aa(lp158
F19893.0
aF180.32
aa(lp159
F14834.0
aF221.29
aa(lp160
F16367.0
aF199.33
aa(lp161
F15345.0
aF231.34
aa(lp162
F13309.0
aF237.03
aa(lp163
F20669.0
aF179.62
aa(lp164
F14833.0
aF225.02
aa(lp165
F13938.0
aF245.03
aa(lp166
F15186.0
aF203.89
aa(lp167
F15740.0
aF221.27
aa(lp168
F20071.0
aF171.34
aa(lp169
F19148.0
aF171.1
aa(lp170
F18926.0
aF185.28
aag97
a(lp171
F17532.0
aF199.11
aa(lp172
F19702.0
aF185.05
aa(lp173
F512.44
aF5550.6
aa(lp174
F17619.0
aF210.39
aa(lp175
F14072.0
aF225.86
aa(lp176
F14198.0
aF228.45
aa(lp177
F20288.0
aF160.6
aa(lp178
F3056.3
aF857.09
aa(lp179
F3032.4
aF806.81
aa(lp180
F16101.0
aF221.88
aa(lp181
F21201.0
aF174.55
aa(lp182
F15911.0
aF219.19
aa(lp183
F20090.0
aF179.74
aa(lp184
F19489.0
aF180.86
aa(lp185
F18384.0
aF230.66
aa(lp186
F12513.0
aF267.68
aa(lp187
F13658.0
aF241.24
aa(lp188
F15042.0
aF210.11
aa(lp189
F14978.0
aF228.83
aa(lp190
F681.59
aF5946.3
aa(lp191
F3077.6
aF805.8
aa(lp192
F2958.6
aF869.31
aa(lp193
F17740.0
aF180.0
aa(lp194
F3321.6
aF772.51
aa(lp195
F19514.0
aF161.74
aa(lp196
F18938.0
aF165.46
aa(lp197
F19529.0
aF169.53
aa(lp198
F402.53
aF8797.5
aa(lp199
F13336.0
aF241.62
aa(lp200
F16770.0
aF211.03
aa(lp201
F12962.0
aF253.55
aa(lp202
F14791.0
aF214.05
aa(lp203
F19247.0
aF178.88
aa(lp204
F16112.0
aF198.53
aa(lp205
F17759.0
aF207.33
aag6
a(lp206
F13955.0
aF219.31
aa(lp207
F20572.0
aF179.37
aa(lp208
F18004.0
aF219.26
aa(lp209
F17881.0
aF182.27
aa(lp210
F15183.0
aF200.64
aa(lp211
F19531.0
aF173.48
aa(lp212
F17728.0
aF204.74
aa(lp213
F12555.0
aF258.72
aa(lp214
F553.53
aF7139.4
aa(lp215
F19845.0
aF176.05
aa(lp216
F9017.3
aF361.64
aa(lp217
F20923.0
aF152.44
aa(lp218
F8220.5
aF404.54
aa(lp219
F9996.4
aF359.59
aa(lp220
F19495.0
aF190.78
aa(lp221
F16379.0
aF198.23
aa(lp222
F12321.0
aF252.99
aa(lp223
F17027.0
aF194.44
aa(lp224
F17349.0
aF186.54
aa(lp225
F16926.0
aF198.63
aa(lp226
F18691.0
aF191.71
aa(lp227
F16490.0
aF203.5
aa(lp228
F16316.0
aF193.64
aa(lp229
F12743.0
aF251.42
aa(lp230
F18561.0
aF201.79
aa(lp231
F567.94
aF5515.8
aa(lp232
F19633.0
aF177.95
aa(lp233
F20246.0
aF174.74
aa(lp234
F16895.0
aF181.01
aa(lp235
F17128.0
aF208.42
aa(lp236
F15545.0
aF221.02
aa(lp237
F17303.0
aF197.55
aa(lp238
F17332.0
aF196.91
aa(lp239
F15370.0
aF217.43
aa(lp240
F16256.0
aF194.45
aa(lp241
F15180.0
aF200.2
aa(lp242
F12472.0
aF259.6
aa(lp243
F15831.0
aF223.23
aa(lp244
F3213.4
aF735.29
aa(lp245
F9865.6
aF339.19
aa(lp246
F18479.0
aF189.62
aa(lp247
F18002.0
aF207.85
aa(lp248
F22430.0
aF160.14
aa(lp249
F16427.0
aF198.4
aag7
a(lp250
F17411.0
aF198.24
aa(lp251
F10182.0
aF325.3
aa(lp252
F15182.0
aF225.96
aa(lp253
F14421.0
aF224.68
aa(lp254
F21684.0
aF175.82
aa(lp255
F19954.0
aF193.66
aa(lp256
F9295.4
aF336.72
aa(lp257
F20425.0
aF167.99
aa(lp258
F19536.0
aF187.32
aa(lp259
F19422.0
aF180.35
aa(lp260
F18222.0
aF199.7
aa(lp261
F433.29
aF7637.4
aa(lp262
F18177.0
aF200.89
aa(lp263
F17559.0
aF213.37
aa(lp264
F16390.0
aF189.62
aa(lp265
F14816.0
aF248.53
aa(lp266
F20916.0
aF204.49
aa(lp267
F18191.0
aF198.56
aa(lp268
F14860.0
aF224.41
aa(lp269
F19050.0
aF173.08
aa(lp270
F13210.0
aF260.7
aa(lp271
F2988.8
aF882.21
aa(lp272
F18801.0
aF194.37
aa(lp273
F15014.0
aF216.29
aa(lp274
F19658.0
aF188.02
aa(lp275
F20402.0
aF185.48
aa(lp276
F16515.0
aF201.3
aag8
a(lp277
F13460.0
aF231.53
aa(lp278
F19555.0
aF176.29
aa(lp279
F17395.0
aF195.07
aa(lp280
F18073.0
aF172.4
aa(lp281
F20132.0
aF172.29
aa(lp282
F17373.0
aF194.83
aa(lp283
F14891.0
aF196.59
aa(lp284
F3173.7
aF874.34
aa(lp285
F15810.0
aF202.69
aa(lp286
F13566.0
aF240.13
aa(lp287
F14153.0
aF239.8
aa(lp288
F13422.0
aF250.23
aa(lp289
F8326.6
aF370.78
aa(lp290
F18971.0
aF168.22
aa(lp291
F15607.0
aF205.96
aa(lp292
F18904.0
aF207.41
aa(lp293
F15360.0
aF219.72
aa(lp294
F14505.0
aF227.55
aa(lp295
F18609.0
aF179.77
aa(lp296
F14633.0
aF218.59
aag9
a(lp297
F13741.0
aF236.59
aa(lp298
F17701.0
aF193.79
aa(lp299
F3304.3
aF741.87
aa(lp300
F16550.0
aF225.83
aa(lp301
F20694.0
aF161.8
aa(lp302
F14743.0
aF241.03
aa(lp303
F19112.0
aF192.52
aa(lp304
F13030.0
aF260.79
aa(lp305
F20070.0
aF179.05
aag10
a(lp306
F14704.0
aF218.17
aa(lp307
F3084.3
aF819.15
aa(lp308
F14432.0
aF243.22
aa(lp309
F18616.0
aF190.96
aa(lp310
F18792.0
aF194.7
aa(lp311
F18873.0
aF189.94
aa(lp312
F17694.0
aF187.47
aa(lp313
F17456.0
aF192.31
aa(lp314
F3286.9
aF750.82
aa(lp315
F15530.0
aF209.63
aa(lp316
F16783.0
aF211.13
aa(lp317
F16738.0
aF221.13
aa(lp318
F17639.0
aF179.81
aa(lp319
F3283.9
aF763.71
aa(lp320
F12985.0
aF247.85
aa(lp321
F17963.0
aF178.49
aa(lp322
F19592.0
aF162.97
aa(lp323
F18421.0
aF177.34
aa(lp324
F19162.0
aF189.93
aa(lp325
F14252.0
aF206.88
aa(lp326
F20159.0
aF172.33
aa(lp327
F17888.0
aF203.63
aa(lp328
F16924.0
aF207.96
aa(lp329
F12591.0
aF247.43
aa(lp330
F628.94
aF5072.2
aa(lp331
F2892.1
aF784.93
aa(lp332
F3008.9
aF955.96
aa(lp333
F17240.0
aF186.49
aa(lp334
F21811.0
aF153.72
aa(lp335
F18238.0
aF206.1
aa(lp336
F19893.0
aF192.96
aa(lp337
F19826.0
aF167.6
aa(lp338
F14363.0
aF221.96
aa(lp339
F15287.0
aF213.8
aa(lp340
F18624.0
aF191.35
aa(lp341
F339.76
aF8318.7
aa(lp342
F16945.0
aF217.96
aa(lp343
F15659.0
aF207.25
aa(lp344
F16135.0
aF206.76
aa(lp345
F8337.3
aF394.28
aa(lp346
F12995.0
aF249.77
aa(lp347
F19530.0
aF185.53
aa(lp348
F12046.0
aF251.15
aa(lp349
F19414.0
aF179.52
aa(lp350
F20168.0
aF176.73
aa(lp351
F13537.0
aF243.27
aa(lp352
F18961.0
aF176.39
aa(lp353
F16913.0
aF195.85
aa(lp354
F9999.3
aF336.43
aag11
a(lp355
F607.29
aF6151.0
aa(lp356
F19479.0
aF177.6
aa(lp357
F19980.0
aF175.03
aa(lp358
F21975.0
aF148.88
aa(lp359
F18180.0
aF199.41
aa(lp360
F17926.0
aF192.56
aa(lp361
F17823.0
aF190.81
aa(lp362
F18214.0
aF179.54
aa(lp363
F19788.0
aF174.54
aa(lp364
F15682.0
aF216.74
aa(lp365
F8785.9
aF362.94
aa(lp366
F17966.0
aF204.85
aa(lp367
F17538.0
aF188.25
aag12
a(lp368
F3059.8
aF854.01
aa(lp369
F16851.0
aF214.25
aa(lp370
F434.0
aF7092.8
aa(lp371
F18751.0
aF193.39
aa(lp372
F18769.0
aF186.53
aa(lp373
F19227.0
aF194.02
aa(lp374
F16195.0
aF204.42
aa(lp375
F16253.0
aF216.46
aa(lp376
F12533.0
aF246.22
aa(lp377
F15336.0
aF213.83
aa(lp378
F452.0
aF6381.3
aa(lp379
F19847.0
aF178.65
aa(lp380
F19500.0
aF186.76
aa(lp381
F22459.0
aF172.35
aa(lp382
F19744.0
aF205.88
aa(lp383
F14792.0
aF209.99
aa(lp384
F558.38
aF6291.2
aa(lp385
F458.25
aF7869.6
aa(lp386
F17696.0
aF206.15
aa(lp387
F16347.0
aF213.1
aa(lp388
F18567.0
aF192.2
aa(lp389
F20863.0
aF183.9
aa(lp390
F16280.0
aF197.91
aa(lp391
F19439.0
aF187.92
aa(lp392
F3009.6
aF942.92
aa(lp393
F13393.0
aF243.11
aa(lp394
F12185.0
aF261.68
aa(lp395
F19408.0
aF170.62
aa(lp396
F16328.0
aF208.73
aa(lp397
F19103.0
aF172.01
aa(lp398
F3231.3
aF807.8
aa(lp399
F18969.0
aF194.84
aa(lp400
F20106.0
aF174.8
aa(lp401
F16262.0
aF206.77
aa(lp402
F17479.0
aF195.46
aa(lp403
F3341.6
aF779.94
aa(lp404
F18707.0
aF198.29
aa(lp405
F13621.0
aF240.8
aa(lp406
F17453.0
aF193.94
aa(lp407
F17062.0
aF185.28
aa(lp408
F310.06
aF9421.0
aa(lp409
F16330.0
aF216.8
aa(lp410
F18746.0
aF192.25
aa(lp411
F19647.0
aF169.28
aa(lp412
F14072.0
aF222.17
aa(lp413
F3035.6
aF816.61
aa(lp414
F21155.0
aF175.06
aa(lp415
F17809.0
aF196.96
aa(lp416
F15648.0
aF212.93
aa(lp417
F19502.0
aF167.61
aa(lp418
F14072.0
aF250.76
aa(lp419
F17818.0
aF176.92
aa(lp420
F16526.0
aF190.44
aa(lp421
F20223.0
aF169.62
aa(lp422
F19574.0
aF186.71
aa(lp423
F9769.1
aF325.13
aa(lp424
F16869.0
aF216.81
aa(lp425
F15720.0
aF204.86
aa(lp426
F15676.0
aF206.94
aa(lp427
F16226.0
aF205.96
aa(lp428
F13259.0
aF238.38
aa(lp429
F14253.0
aF247.47
aa(lp430
F15837.0
aF217.33
aa(lp431
F18268.0
aF200.34
aa(lp432
F17840.0
aF183.29
aa(lp433
F18655.0
aF175.34
aa(lp434
F619.18
aF4173.2
aa(lp435
F18255.0
aF169.0
aa(lp436
F15290.0
aF222.45
aa(lp437
F18056.0
aF176.21
aa(lp438
F12158.0
aF264.35
aa(lp439
F18282.0
aF181.31
aa(lp440
F16004.0
aF202.22
aa(lp441
F8800.9
aF360.35
aa(lp442
F19955.0
aF182.25
aa(lp443
F17788.0
aF206.04
aa(lp444
F13816.0
aF251.82
aa(lp445
F19615.0
aF168.46
aa(lp446
F13222.0
aF259.18
aa(lp447
F3072.2
aF791.1
aa(lp448
F9491.4
aF342.07
aa(lp449
F9179.4
aF350.32
aa(lp450
F15568.0
aF227.4
aa(lp451
F18400.0
aF195.01
aa(lp452
F2898.3
aF932.47
aa(lp453
F3234.8
aF819.08
aa(lp454
F20134.0
aF170.21
aa(lp455
F9805.8
aF335.85
aa(lp456
F20673.0
aF183.41
aa(lp457
F15517.0
aF215.88
aa(lp458
F19391.0
aF182.76
aa(lp459
F365.07
aF9098.9
aa(lp460
F15394.0
aF224.92
aa(lp461
F21176.0
aF174.91
aa(lp462
F2980.0
aF912.21
aa(lp463
F16861.0
aF189.71
aa(lp464
F488.69
aF7129.9
aa(lp465
F3148.3
aF818.28
aa(lp466
F3158.9
aF813.99
aa(lp467
F14956.0
aF217.23
aa(lp468
F16033.0
aF225.89
aa(lp469
F16197.0
aF223.22
aa(lp470
F14959.0
aF228.82
aa(lp471
F17323.0
aF197.1
aa(lp472
F14334.0
aF248.43
aa(lp473
F12419.0
aF249.4
aa(lp474
F11514.0
aF283.68
aa(lp475
F17943.0
aF189.89
aa(lp476
F18227.0
aF191.82
aa(lp477
F9314.4
aF359.04
aa(lp478
F19236.0
aF206.19
aa(lp479
F19775.0
aF188.06
aa(lp480
F14244.0
aF240.76
aa(lp481
F16512.0
aF218.93
aa(lp482
F16159.0
aF210.41
aa(lp483
F16802.0
aF216.0
aa(lp484
F19959.0
aF183.08
aa(lp485
F20649.0
aF177.56
aa(lp486
F18007.0
aF204.66
aa(lp487
F12759.0
aF258.19
aa(lp488
F3037.1
aF920.68
aa(lp489
F17630.0
aF176.34
aa(lp490
F13797.0
aF237.17
aa(lp491
F18144.0
aF200.7
aa(lp492
F16406.0
aF195.69
aa(lp493
F19717.0
aF169.4
aa(lp494
F9806.9
aF318.21
aa(lp495
F18579.0
aF182.91
aa(lp496
F18674.0
aF187.41
aa(lp497
F17982.0
aF185.49
aa(lp498
F3185.1
aF756.12
aa(lp499
F20231.0
aF179.91
aa(lp500
F19777.0
aF178.55
aa(lp501
F20060.0
aF174.71
aa(lp502
F17306.0
aF204.47
aa(lp503
F18608.0
aF221.8
aa(lp504
F15312.0
aF217.38
aa(lp505
F18754.0
aF189.01
aa(lp506
F16296.0
aF214.04
aa(lp507
F20473.0
aF165.86
aa(lp508
F16927.0
aF209.78
aa(lp509
F2906.4
aF927.94
aa(lp510
F19176.0
aF173.24
aa(lp511
F16818.0
aF222.3
aa(lp512
F18929.0
aF192.09
aa(lp513
F15248.0
aF215.14
aa(lp514
F14577.0
aF228.04
aa(lp515
F18951.0
aF185.0
aa(lp516
F14485.0
aF215.06
aa(lp517
F16081.0
aF223.09
aa(lp518
F20094.0
aF167.28
aa(lp519
F18325.0
aF199.12
aag13
a(lp520
F15512.0
aF212.82
aa(lp521
F19334.0
aF179.21
aa(lp522
F15768.0
aF229.09
aa(lp523
F9038.4
aF349.51
aa(lp524
F18964.0
aF170.48
aa(lp525
F14088.0
aF230.73
aa(lp526
F10818.0
aF316.58
aa(lp527
F8297.3
aF386.33
aa(lp528
F14214.0
aF234.25
aa(lp529
F3145.2
aF895.01
aa(lp530
F20492.0
aF165.89
aa(lp531
F12993.0
aF247.2
aa(lp532
F19434.0
aF180.54
aa(lp533
F17815.0
aF170.33
aa(lp534
F20182.0
aF170.91
aa(lp535
F9215.1
aF350.13
aa(lp536
F13232.0
aF245.1
aa(lp537
F20111.0
aF173.76
aa(lp538
F19623.0
aF176.51
aa(lp539
F16116.0
aF201.93
aa(lp540
F16371.0
aF201.8
aa(lp541
F14204.0
aF250.52
aa(lp542
F19373.0
aF171.58
aa(lp543
F16950.0
aF224.92
aa(lp544
F564.53
aF5758.6
aa(lp545
F16846.0
aF206.99
aa(lp546
F15333.0
aF212.5
aa(lp547
F19247.0
aF189.93
aa(lp548
F470.94
aF6694.7
aa(lp549
F14958.0
aF230.14
aa(lp550
F15595.0
aF212.96
aa(lp551
F13998.0
aF218.03
aag14
a(lp552
F17128.0
aF209.43
aa(lp553
F19289.0
aF176.63
aa(lp554
F20710.0
aF177.62
aa(lp555
F18910.0
aF201.25
aa(lp556
F3243.1
aF758.18
aa(lp557
F17484.0
aF196.27
aa(lp558
F15850.0
aF234.81
aa(lp559
F14442.0
aF214.87
aag15
a(lp560
F16427.0
aF201.43
aa(lp561
F2917.5
aF911.22
aa(lp562
F13645.0
aF223.74
aa(lp563
F19656.0
aF172.61
aa(lp564
F14659.0
aF207.97
aa(lp565
F17595.0
aF192.87
aa(lp566
F14668.0
aF243.64
aa(lp567
F12958.0
aF257.84
aa(lp568
F16556.0
aF213.66
aa(lp569
F18602.0
aF179.39
aag16
a(lp570
F8587.7
aF377.76
aa(lp571
F17067.0
aF198.14
aa(lp572
F20216.0
aF185.46
aa(lp573
F20460.0
aF187.65
aa(lp574
F14404.0
aF224.17
aa(lp575
F17204.0
aF204.36
aa(lp576
F13164.0
aF244.6
aa(lp577
F19032.0
aF170.73
aa(lp578
F15377.0
aF217.16
aa(lp579
F20582.0
aF177.56
aa(lp580
F16616.0
aF217.77
aa(lp581
F18829.0
aF166.87
aa(lp582
F14735.0
aF222.12
aa(lp583
F20294.0
aF166.84
aa(lp584
F13665.0
aF247.65
aa(lp585
F17466.0
aF192.62
aa(lp586
F8439.5
aF391.66
aa(lp587
F15210.0
aF201.94
aa(lp588
F11370.0
aF282.9
aa(lp589
F12233.0
aF269.46
aa(lp590
F12760.0
aF243.76
aa(lp591
F19814.0
aF191.11
aa(lp592
F14814.0
aF214.45
aa(lp593
F2853.9
aF925.21
aa(lp594
F19116.0
aF182.39
aa(lp595
F18983.0
aF190.41
aa(lp596
F600.81
aF6438.1
aa(lp597
F16529.0
aF206.59
aa(lp598
F18941.0
aF178.26
aa(lp599
F8724.8
aF380.16
aa(lp600
F11726.0
aF287.88
aa(lp601
F18753.0
aF182.53
aa(lp602
F16940.0
aF195.91
aa(lp603
F9527.2
aF357.96
aa(lp604
F20818.0
aF172.75
aa(lp605
F17883.0
aF193.69
aa(lp606
F19203.0
aF191.8
aa(lp607
F16973.0
aF205.63
aa(lp608
F21385.0
aF186.39
aa(lp609
F13484.0
aF246.75
aa(lp610
F19354.0
aF201.68
aa(lp611
F17239.0
aF185.27
aa(lp612
F17646.0
aF210.41
aa(lp613
F14161.0
aF238.75
aa(lp614
F14062.0
aF240.61
aa(lp615
F16851.0
aF192.84
aag17
a(lp616
F17610.0
aF200.53
aa(lp617
F13940.0
aF226.85
aa(lp618
F18035.0
aF183.24
aa(lp619
F14631.0
aF214.6
aa(lp620
F19629.0
aF189.2
aa(lp621
F17687.0
aF205.63
aa(lp622
F18331.0
aF198.49
aa(lp623
F20017.0
aF184.2
aa(lp624
F3154.5
aF776.68
aa(lp625
F17653.0
aF194.27
aa(lp626
F19459.0
aF169.25
aa(lp627
F13319.0
aF244.38
aa(lp628
F20166.0
aF155.54
aa(lp629
F19698.0
aF177.73
aa(lp630
F15810.0
aF228.3
aa(lp631
F8506.4
aF352.62
aa(lp632
F18891.0
aF183.68
aa(lp633
F15581.0
aF185.58
aa(lp634
F9093.2
aF355.89
aa(lp635
F19334.0
aF173.59
aa(lp636
F19953.0
aF165.94
aa(lp637
F12244.0
aF251.8
aa(lp638
F18636.0
aF168.4
aa(lp639
F15856.0
aF202.08
aa(lp640
F15529.0
aF218.6
aa(lp641
F16596.0
aF187.27
aa(lp642
F16277.0
aF212.64
aa(lp643
F14036.0
aF236.23
aa(lp644
F3036.7
aF798.57
aa(lp645
F642.12
aF5976.3
aa(lp646
F15573.0
aF219.55
aa(lp647
F19435.0
aF217.76
aa(lp648
F15170.0
aF216.28
aa(lp649
F9911.0
aF358.43
aa(lp650
F20744.0
aF168.1
aa(lp651
F15172.0
aF201.62
aa(lp652
F3049.8
aF933.84
aa(lp653
F9685.8
aF324.44
aa(lp654
F20574.0
aF178.1
aa(lp655
F3032.6
aF855.55
aa(lp656
F19457.0
aF188.04
aa(lp657
F16032.0
aF205.54
aa(lp658
F19206.0
aF177.95
aa(lp659
F17449.0
aF189.07
aa(lp660
F19040.0
aF187.35
aa(lp661
F13119.0
aF266.57
aa(lp662
F17493.0
aF186.91
aa(lp663
F14151.0
aF227.36
aa(lp664
F16755.0
aF195.36
aa(lp665
F17520.0
aF215.87
aa(lp666
F17707.0
aF197.79
aa(lp667
F20019.0
aF185.49
aa(lp668
F17375.0
aF181.86
aa(lp669
F15607.0
aF224.25
aa(lp670
F17518.0
aF193.89
aa(lp671
F12554.0
aF267.27
aa(lp672
F13709.0
aF241.27
aa(lp673
F16116.0
aF201.95
aa(lp674
F18353.0
aF203.26
aa(lp675
F15037.0
aF208.78
aa(lp676
F15613.0
aF215.8
aa(lp677
F16195.0
aF195.66
aa(lp678
F2958.1
aF932.37
aa(lp679
F14224.0
aF225.61
aa(lp680
F559.75
aF6228.3
aa(lp681
F20839.0
aF164.74
aa(lp682
F21456.0
aF162.78
aa(lp683
F14009.0
aF225.28
aa(lp684
F392.71
aF8358.5
aa(lp685
F19208.0
aF175.4
aa(lp686
F16763.0
aF195.99
aa(lp687
F12239.0
aF263.31
aa(lp688
F11975.0
aF282.78
aa(lp689
F3096.6
aF882.97
aa(lp690
F16029.0
aF254.05
aa(lp691
F17259.0
aF193.78
aa(lp692
F17031.0
aF197.09
aa(lp693
F15332.0
aF212.66
aa(lp694
F17857.0
aF197.01
aa(lp695
F18594.0
aF175.62
aa(lp696
F13816.0
aF250.23
aa(lp697
F13958.0
aF241.05
aa(lp698
F9285.2
aF331.36
aa(lp699
F19623.0
aF186.37
aa(lp700
F18573.0
aF185.3
aa(lp701
F12331.0
aF265.24
aa(lp702
F3401.1
aF792.82
aa(lp703
F18404.0
aF192.67
aa(lp704
F20405.0
aF178.17
aa(lp705
F19593.0
aF183.14
aa(lp706
F17404.0
aF176.71
aa(lp707
F18388.0
aF187.7
aa(lp708
F14373.0
aF227.96
aa(lp709
F21759.0
aF174.67
aa(lp710
F20974.0
aF175.37
aa(lp711
F14385.0
aF228.0
aa(lp712
F2981.1
aF829.61
aa(lp713
F2935.9
aF959.69
aa(lp714
F19421.0
aF191.47
aa(lp715
F12596.0
aF260.77
aa(lp716
F13805.0
aF248.23
aa(lp717
F19196.0
aF184.24
aa(lp718
F14346.0
aF216.52
aa(lp719
F16561.0
aF208.98
aa(lp720
F3307.0
aF759.06
aa(lp721
F21126.0
aF168.49
aa(lp722
F3259.9
aF748.03
aa(lp723
F14629.0
aF253.32
aa(lp724
F19578.0
aF194.42
aa(lp725
F2958.2
aF963.07
aa(lp726
F16961.0
aF206.56
aa(lp727
F515.12
aF6573.1
aa(lp728
F3027.8
aF832.18
aa(lp729
F12715.0
aF254.45
aa(lp730
F17659.0
aF184.96
aa(lp731
F19286.0
aF163.71
aa(lp732
F16487.0
aF191.92
aa(lp733
F18081.0
aF182.57
aa(lp734
F14622.0
aF220.23
aa(lp735
F14360.0
aF239.35
aa(lp736
F19275.0
aF172.32
aa(lp737
F19044.0
aF186.0
aa(lp738
F3127.7
aF775.05
aa(lp739
F17396.0
aF220.63
aa(lp740
F21044.0
aF164.44
aa(lp741
F20034.0
aF182.58
aa(lp742
F13287.0
aF239.06
aa(lp743
F21156.0
aF164.13
aa(lp744
F17086.0
aF205.78
aa(lp745
F21809.0
aF172.16
aa(lp746
F19076.0
aF175.27
aa(lp747
F14224.0
aF227.65
aa(lp748
F18744.0
aF184.53
aa(lp749
F11995.0
aF284.51
aa(lp750
F20398.0
aF177.98
aa(lp751
F18948.0
aF191.5
aa(lp752
F17471.0
aF204.21
aa(lp753
F20476.0
aF191.77
aa(lp754
F21489.0
aF165.71
aa(lp755
F17245.0
aF204.39
aa(lp756
F20988.0
aF164.47
aa(lp757
F17097.0
aF236.21
aag18
a(lp758
F18797.0
aF172.09
aa(lp759
F18676.0
aF189.39
aa(lp760
F16355.0
aF209.23
aa(lp761
F16423.0
aF190.95
aa(lp762
F13984.0
aF227.01
aa(lp763
F17669.0
aF197.21
aa(lp764
F16099.0
aF204.13
aa(lp765
F12668.0
aF251.24
aag19
a(lp766
F21070.0
aF157.21
aa(lp767
F21178.0
aF152.89
aa(lp768
F22419.0
aF176.65
aa(lp769
F15612.0
aF217.24
aa(lp770
F15580.0
aF212.94
aa(lp771
F15909.0
aF219.19
aa(lp772
F20095.0
aF176.3
aa(lp773
F17820.0
aF189.06
aa(lp774
F3291.8
aF780.65
aa(lp775
F16060.0
aF226.78
aa(lp776
F9114.0
aF348.7
aa(lp777
F15583.0
aF223.3
aa(lp778
F8602.2
aF397.62
aa(lp779
F14225.0
aF221.94
aa(lp780
F3100.2
aF801.39
aa(lp781
F19409.0
aF183.12
aa(lp782
F14237.0
aF226.72
aa(lp783
F14618.0
aF217.07
aa(lp784
F17799.0
aF184.34
aa(lp785
F3076.1
aF856.32
aa(lp786
F20710.0
aF174.7
aa(lp787
F15743.0
aF201.25
aa(lp788
F12804.0
aF250.71
aa(lp789
F14237.0
aF223.74
aa(lp790
F16084.0
aF221.76
aa(lp791
F13562.0
aF241.96
aa(lp792
F16290.0
aF222.01
aa(lp793
F12467.0
aF270.93
aa(lp794
F17107.0
aF213.73
aa(lp795
F19563.0
aF186.97
aa(lp796
F18883.0
aF171.99
aa(lp797
F17876.0
aF200.75
aa(lp798
F21246.0
aF167.25
aa(lp799
F16840.0
aF201.65
aa(lp800
F17472.0
aF212.51
aa(lp801
F14720.0
aF224.19
aa(lp802
F20419.0
aF169.51
aa(lp803
F19697.0
aF183.34
aa(lp804
F20164.0
aF185.57
aa(lp805
F600.53
aF6012.5
aa(lp806
F16819.0
aF213.84
aa(lp807
F17395.0
aF189.31
aa(lp808
F13776.0
aF239.88
aa(lp809
F12558.0
aF244.74
aa(lp810
F18001.0
aF197.89
aa(lp811
F12687.0
aF245.38
aa(lp812
F20500.0
aF172.16
aa(lp813
F3045.4
aF797.0
aa(lp814
F19428.0
aF178.11
aa(lp815
F9101.3
aF362.29
aa(lp816
F15596.0
aF221.13
aa(lp817
F13946.0
aF233.96
aa(lp818
F19873.0
aF175.07
aa(lp819
F15912.0
aF205.28
aa(lp820
F3438.6
aF748.1
aa(lp821
F17681.0
aF178.08
aa(lp822
F15143.0
aF199.7
aa(lp823
F15624.0
aF219.74
aa(lp824
F20038.0
aF168.69
aa(lp825
F17433.0
aF185.36
aa(lp826
F19424.0
aF181.75
aa(lp827
F17870.0
aF209.21
aa(lp828
F18231.0
aF196.1
aa(lp829
F15925.0
aF228.68
aa(lp830
F12539.0
aF240.6
aa(lp831
F19303.0
aF169.5
aa(lp832
F16542.0
aF208.06
aa(lp833
F20395.0
aF187.93
aa(lp834
F8941.5
aF376.93
aa(lp835
F15386.0
aF225.32
aa(lp836
F14443.0
aF230.79
aa(lp837
F3136.9
aF821.6
aa(lp838
F19464.0
aF180.53
aa(lp839
F16742.0
aF210.53
aa(lp840
F12349.0
aF254.6
aa(lp841
F18862.0
aF190.63
aa(lp842
F20426.0
aF178.93
aa(lp843
F13982.0
aF226.03
aa(lp844
F18605.0
aF180.45
aa(lp845
F15741.0
aF223.32
aa(lp846
F14672.0
aF225.94
aa(lp847
F18913.0
aF184.11
aa(lp848
F21262.0
aF179.24
aa(lp849
F20259.0
aF188.99
aa(lp850
F16610.0
aF217.29
aa(lp851
F19784.0
aF173.4
aa(lp852
F16733.0
aF210.48
aa(lp853
F16179.0
aF197.99
aa(lp854
F19892.0
aF178.59
aa(lp855
F14983.0
aF218.91
aa(lp856
F15891.0
aF198.18
aa(lp857
F19144.0
aF192.49
aa(lp858
F17656.0
aF190.21
aa(lp859
F18113.0
aF183.38
aa(lp860
F16035.0
aF203.96
aa(lp861
F15548.0
aF213.08
aa(lp862
F2934.9
aF837.33
aa(lp863
F14275.0
aF224.04
aa(lp864
F15222.0
aF217.56
aa(lp865
F14181.0
aF238.17
aa(lp866
F18676.0
aF174.21
aa(lp867
F20945.0
aF161.78
aa(lp868
F13566.0
aF246.83
aa(lp869
F14253.0
aF225.36
aa(lp870
F15193.0
aF225.42
aa(lp871
F18028.0
aF179.13
aa(lp872
F17995.0
aF217.53
aa(lp873
F16882.0
aF195.61
aa(lp874
F12896.0
aF247.46
aa(lp875
F12693.0
aF247.98
aa(lp876
F8381.5
aF402.22
aa(lp877
F21317.0
aF168.06
aa(lp878
F22124.0
aF148.88
aa(lp879
F15781.0
aF223.04
aa(lp880
F14295.0
aF229.42
aa(lp881
F13630.0
aF228.6
aa(lp882
F15110.0
aF230.85
aa(lp883
F14891.0
aF217.78
aa(lp884
F17044.0
aF208.85
aa(lp885
F16810.0
aF198.19
aa(lp886
F18980.0
aF163.43
aa(lp887
F12414.0
aF260.98
aa(lp888
F16530.0
aF204.54
aa(lp889
F8006.2
aF419.16
aa(lp890
F18238.0
aF190.93
aag20
a(lp891
F9228.7
aF359.3
aa(lp892
F18716.0
aF181.76
aa(lp893
F21615.0
aF163.52
aa(lp894
F12779.0
aF242.99
aa(lp895
F19090.0
aF179.29
aa(lp896
F12344.0
aF243.08
aa(lp897
F449.06
aF7756.5
aa(lp898
F14273.0
aF230.71
aa(lp899
F9560.1
aF368.29
aa(lp900
F17333.0
aF198.12
aa(lp901
F18203.0
aF187.03
aa(lp902
F8807.9
aF365.54
aa(lp903
F20307.0
aF183.41
aa(lp904
F586.88
aF6634.3
aa(lp905
F3174.3
aF802.5
aa(lp906
F20253.0
aF184.74
aa(lp907
F17468.0
aF199.58
aa(lp908
F12032.0
aF275.01
aa(lp909
F18706.0
aF177.54
aa(lp910
F18518.0
aF169.09
aa(lp911
F18996.0
aF175.97
aa(lp912
F21237.0
aF150.5
aa(lp913
F13128.0
aF240.19
aa(lp914
F15591.0
aF201.09
aa(lp915
F16268.0
aF204.98
aa(lp916
F19668.0
aF167.11
aa(lp917
F575.38
aF6187.6
aa(lp918
F15960.0
aF224.49
aa(lp919
F16835.0
aF192.88
aa(lp920
F18441.0
aF187.9
aa(lp921
F15186.0
aF215.93
aa(lp922
F20584.0
aF198.8
aa(lp923
F19705.0
aF174.85
aa(lp924
F16881.0
aF207.97
aa(lp925
F19995.0
aF187.02
aa(lp926
F20350.0
aF184.46
aa(lp927
F15194.0
aF217.83
aa(lp928
F19210.0
aF178.14
aa(lp929
F3050.5
aF848.72
aa(lp930
F18338.0
aF207.11
aa(lp931
F13858.0
aF243.6
aa(lp932
F12938.0
aF267.28
aa(lp933
F2936.1
aF944.68
aa(lp934
F19128.0
aF185.12
aa(lp935
F18941.0
aF172.92
aa(lp936
F17662.0
aF201.49
aa(lp937
F3267.1
aF794.02
aa(lp938
F19562.0
aF171.72
aa(lp939
F16335.0
aF200.46
aa(lp940
F20326.0
aF176.34
aa(lp941
F20055.0
aF173.45
aa(lp942
F16678.0
aF186.04
aa(lp943
F19286.0
aF175.81
aa(lp944
F15029.0
aF225.43
aa(lp945
F18652.0
aF184.15
aa(lp946
F3246.4
aF746.88
aa(lp947
F18242.0
aF183.88
aa(lp948
F18628.0
aF184.06
aa(lp949
F3243.1
aF789.55
aa(lp950
F375.41
aF7905.4
aa(lp951
F14937.0
aF231.47
aa(lp952
F17221.0
aF203.77
aa(lp953
F20028.0
aF192.44
aa(lp954
F15739.0
aF220.35
aa(lp955
F17365.0
aF185.84
aa(lp956
F18060.0
aF178.85
aag21
a(lp957
F17973.0
aF201.85
aa(lp958
F18380.0
aF191.8
aa(lp959
F21021.0
aF151.23
aa(lp960
F19847.0
aF170.76
aa(lp961
F565.82
aF6729.5
aa(lp962
F15856.0
aF206.58
aag22
a(lp963
F16402.0
aF193.27
aa(lp964
F20678.0
aF193.39
aa(lp965
F16742.0
aF221.21
aa(lp966
F13771.0
aF231.09
aa(lp967
F20391.0
aF168.52
aag23
a(lp968
F18417.0
aF174.34
aa(lp969
F14391.0
aF220.76
aa(lp970
F18042.0
aF199.53
aa(lp971
F16557.0
aF202.01
aa(lp972
F19256.0
aF200.02
aa(lp973
F15654.0
aF220.2
aa(lp974
F22101.0
aF187.55
aa(lp975
F13013.0
aF257.58
aa(lp976
F19565.0
aF178.14
aa(lp977
F407.65
aF7631.9
aa(lp978
F16674.0
aF191.74
aa(lp979
F2969.8
aF923.39
aa(lp980
F18081.0
aF183.8
aa(lp981
F19468.0
aF179.44
aa(lp982
F15688.0
aF209.71
aa(lp983
F13854.0
aF236.01
aa(lp984
F13429.0
aF243.7
aa(lp985
F20757.0
aF179.77
aa(lp986
F9863.8
aF337.42
aa(lp987
F19030.0
aF205.3
aa(lp988
F14985.0
aF209.07
aa(lp989
F9611.9
aF326.17
aa(lp990
F13775.0
aF228.97
aa(lp991
F20117.0
aF186.26
aa(lp992
F17727.0
aF182.72
aa(lp993
F15459.0
aF211.54
aa(lp994
F3122.1
aF801.62
aa(lp995
F21098.0
aF166.01
aa(lp996
F3033.4
aF807.41
aa(lp997
F2987.4
aF917.76
aa(lp998
F13781.0
aF247.06
aa(lp999
F19251.0
aF178.05
aa(lp1000
F16693.0
aF190.83
aag24
a(lp1001
F19349.0
aF194.77
aa(lp1002
F19412.0
aF171.73
aa(lp1003
F19187.0
aF168.97
aa(lp1004
F9113.5
aF346.29
aa(lp1005
F20372.0
aF183.94
aa(lp1006
F19018.0
aF196.45
aa(lp1007
F3067.6
aF826.82
aa(lp1008
F9119.2
aF343.7
aa(lp1009
F13426.0
aF241.89
aa(lp1010
F16310.0
aF205.86
aa(lp1011
F13363.0
aF237.3
aa(lp1012
F15830.0
aF208.02
aa(lp1013
F9045.7
aF378.0
aa(lp1014
F13297.0
aF252.01
aa(lp1015
F17703.0
aF187.12
aa(lp1016
F18139.0
aF183.61
aa(lp1017
F9488.6
aF335.92
aa(lp1018
F15361.0
aF212.77
aa(lp1019
F14644.0
aF240.27
aa(lp1020
F2901.4
aF969.27
aa(lp1021
F18493.0
aF194.98
aa(lp1022
F3115.5
aF816.13
aa(lp1023
F16671.0
aF216.34
aa(lp1024
F16840.0
aF189.32
aa(lp1025
F20069.0
aF186.99
aa(lp1026
F16592.0
aF205.46
aa(lp1027
F17085.0
aF212.64
aa(lp1028
F18031.0
aF196.48
aa(lp1029
F12603.0
aF237.77
aa(lp1030
F11914.0
aF274.71
aa(lp1031
F13653.0
aF232.69
aa(lp1032
F12999.0
aF237.04
aa(lp1033
F18218.0
aF184.29
aa(lp1034
F16129.0
aF209.67
aa(lp1035
F19835.0
aF182.61
aa(lp1036
F19353.0
aF175.48
aa(lp1037
F15851.0
aF213.26
aa(lp1038
F2900.9
aF860.72
aa(lp1039
F14911.0
aF216.68
aa(lp1040
F20077.0
aF177.23
aa(lp1041
F16059.0
aF214.64
aa(lp1042
F13479.0
aF243.11
aa(lp1043
F15014.0
aF207.14
aa(lp1044
F3232.2
aF782.25
aa(lp1045
F12566.0
aF272.99
aa(lp1046
F3056.1
aF795.38
aa(lp1047
F15192.0
aF214.55
aa(lp1048
F9523.8
aF341.67
aag25
a(lp1049
F19705.0
aF183.72
aa(lp1050
F288.56
aF7908.9
aa(lp1051
F17616.0
aF207.75
aa(lp1052
F19524.0
aF195.03
aa(lp1053
F15131.0
aF222.82
aa(lp1054
F20414.0
aF183.81
aa(lp1055
F19619.0
aF185.54
aa(lp1056
F18934.0
aF202.99
aa(lp1057
F17827.0
aF193.23
aa(lp1058
F17343.0
aF202.27
aa(lp1059
F19128.0
aF175.79
aa(lp1060
F16825.0
aF218.02
aa(lp1061
F15492.0
aF220.87
aa(lp1062
F11633.0
aF273.81
aa(lp1063
F9361.5
aF336.16
aa(lp1064
F3117.1
aF745.67
aa(lp1065
F18437.0
aF190.42
aa(lp1066
F17715.0
aF201.36
aa(lp1067
F15416.0
aF206.68
aa(lp1068
F3062.4
aF801.36
aa(lp1069
F2954.8
aF948.42
aa(lp1070
F20909.0
aF165.71
aa(lp1071
F19227.0
aF166.98
aa(lp1072
F19675.0
aF192.49
aa(lp1073
F19475.0
aF186.05
aa(lp1074
F13170.0
aF246.1
aa(lp1075
F671.12
aF5990.3
aa(lp1076
F20587.0
aF168.9
aa(lp1077
F14536.0
aF225.14
aa(lp1078
F17561.0
aF192.48
aa(lp1079
F19108.0
aF179.76
aa(lp1080
F19214.0
aF170.21
aa(lp1081
F12773.0
aF243.79
aa(lp1082
F16480.0
aF214.24
aa(lp1083
F9545.5
aF343.65
aa(lp1084
F16567.0
aF199.75
aa(lp1085
F3250.2
aF773.71
aa(lp1086
F15828.0
aF221.2
aa(lp1087
F2790.8
aF932.62
aa(lp1088
F15295.0
aF212.99
aa(lp1089
F17033.0
aF188.47
aa(lp1090
F15775.0
aF205.4
aa(lp1091
F18044.0
aF186.58
aa(lp1092
F19311.0
aF222.4
aa(lp1093
F15676.0
aF226.06
aa(lp1094
F12493.0
aF261.6
aa(lp1095
F19243.0
aF178.45
aa(lp1096
F2919.8
aF845.39
aa(lp1097
F8904.2
aF342.47
aa(lp1098
F19245.0
aF185.93
aa(lp1099
F11395.0
aF285.58
aa(lp1100
F18298.0
aF163.24
aa(lp1101
F16913.0
aF208.07
aa(lp1102
F17417.0
aF206.11
aa(lp1103
F13883.0
aF240.04
aa(lp1104
F3014.6
aF859.05
aa(lp1105
F9039.4
aF344.91
aag26
a(lp1106
F3122.8
aF841.94
aa(lp1107
F15818.0
aF197.06
aa(lp1108
F16383.0
aF207.91
aag27
a(lp1109
F3027.8
aF921.52
aa(lp1110
F17097.0
aF218.23
aa(lp1111
F20451.0
aF171.79
aa(lp1112
F20971.0
aF165.65
aa(lp1113
F2985.2
aF768.3
aa(lp1114
F16267.0
aF241.35
aa(lp1115
F18076.0
aF195.47
aa(lp1116
F12887.0
aF243.89
aa(lp1117
F17926.0
aF189.41
aa(lp1118
F3221.8
aF770.14
aa(lp1119
F16245.0
aF205.76
aa(lp1120
F3042.7
aF833.36
aa(lp1121
F9270.5
aF338.59
aa(lp1122
F20435.0
aF185.76
aa(lp1123
F16596.0
aF206.31
aa(lp1124
F12490.0
aF247.31
aa(lp1125
F18330.0
aF196.8
aa(lp1126
F16554.0
aF201.82
aa(lp1127
F16573.0
aF197.92
aa(lp1128
F16456.0
aF201.11
aa(lp1129
F13056.0
aF239.95
aa(lp1130
F19937.0
aF171.24
aa(lp1131
F605.41
aF6333.2
aa(lp1132
F15164.0
aF226.93
aa(lp1133
F17760.0
aF190.93
aa(lp1134
F15472.0
aF217.54
aa(lp1135
F13024.0
aF249.22
aa(lp1136
F19780.0
aF173.96
aa(lp1137
F16247.0
aF214.49
aa(lp1138
F15836.0
aF204.49
aag28
a(lp1139
F16121.0
aF199.59
aa(lp1140
F17640.0
aF200.79
aa(lp1141
F15648.0
aF228.73
aa(lp1142
F20591.0
aF170.97
aa(lp1143
F2952.8
aF953.22
aa(lp1144
F17685.0
aF211.49
aa(lp1145
F3404.9
aF747.75
aag29
a(lp1146
F19047.0
aF178.17
aa(lp1147
F12429.0
aF247.83
aa(lp1148
F16037.0
aF205.89
aa(lp1149
F21285.0
aF169.17
aa(lp1150
F19942.0
aF196.24
aa(lp1151
F17953.0
aF188.61
aa(lp1152
F18515.0
aF173.34
aa(lp1153
F3207.9
aF851.97
aag96
a(lp1154
F14354.0
aF232.15
aa(lp1155
F15152.0
aF229.64
aa(lp1156
F13889.0
aF226.81
aa(lp1157
F17959.0
aF179.07
aa(lp1158
F18647.0
aF209.34
aa(lp1159
F16945.0
aF210.6
aa(lp1160
F15596.0
aF201.36
aa(lp1161
F20157.0
aF168.73
aa(lp1162
F9977.5
aF316.06
aa(lp1163
F8853.8
aF354.76
aa(lp1164
F3196.8
aF792.48
aa(lp1165
F19895.0
aF175.71
aa(lp1166
F18139.0
aF174.71
aa(lp1167
F2990.2
aF906.51
aa(lp1168
F9372.9
aF361.65
aa(lp1169
F12297.0
aF275.28
aa(lp1170
F15979.0
aF201.95
aa(lp1171
F21112.0
aF170.49
aa(lp1172
F18581.0
aF183.62
aa(lp1173
F15661.0
aF228.41
aa(lp1174
F12864.0
aF248.52
aa(lp1175
F17784.0
aF189.72
aa(lp1176
F14910.0
aF229.53
aa(lp1177
F17503.0
aF204.08
aa(lp1178
F16853.0
aF241.67
aag30
a(lp1179
F19498.0
aF179.64
aa(lp1180
F12491.0
aF261.6
aa(lp1181
F17554.0
aF185.15
aa(lp1182
F19812.0
aF180.47
aa(lp1183
F15559.0
aF216.05
aa(lp1184
F16985.0
aF185.27
aa(lp1185
F17455.0
aF199.5
aa(lp1186
F19209.0
aF184.26
aa(lp1187
F16618.0
aF204.52
aa(lp1188
F16747.0
aF198.78
aa(lp1189
F3115.9
aF815.55
aa(lp1190
F582.82
aF6109.2
aa(lp1191
F3257.4
aF806.53
aa(lp1192
F394.88
aF7252.0
aa(lp1193
F21086.0
aF162.27
aa(lp1194
F14545.0
aF220.19
aa(lp1195
F15827.0
aF213.03
aa(lp1196
F19344.0
aF181.95
aa(lp1197
F17602.0
aF202.18
aa(lp1198
F18710.0
aF179.83
aa(lp1199
F16165.0
aF214.51
aa(lp1200
F16080.0
aF222.37
aa(lp1201
F12043.0
aF254.55
aa(lp1202
F17268.0
aF197.42
aa(lp1203
F416.31
aF7782.2
aa(lp1204
F12813.0
aF243.89
aa(lp1205
F9294.6
aF355.02
aa(lp1206
F13055.0
aF247.74
aa(lp1207
F19893.0
aF175.26
aa(lp1208
F12068.0
aF263.26
aa(lp1209
F15960.0
aF196.1
aa(lp1210
F15571.0
aF221.22
aa(lp1211
F3297.9
aF752.06
aa(lp1212
F19708.0
aF158.53
aa(lp1213
F3107.6
aF850.37
aa(lp1214
F17917.0
aF198.19
aa(lp1215
F19581.0
aF175.88
aa(lp1216
F17098.0
aF201.15
aa(lp1217
F14991.0
aF214.92
aa(lp1218
F12719.0
aF245.87
aa(lp1219
F19504.0
aF159.93
aa(lp1220
F19884.0
aF187.56
aa(lp1221
F22323.0
aF173.09
aa(lp1222
F19409.0
aF194.12
aa(lp1223
F17993.0
aF197.27
aa(lp1224
F17164.0
aF200.03
aa(lp1225
F13780.0
aF233.4
aa(lp1226
F18204.0
aF188.49
aa(lp1227
F14763.0
aF208.71
aa(lp1228
F17492.0
aF212.48
aa(lp1229
F17917.0
aF177.54
aa(lp1230
F12781.0
aF250.88
aa(lp1231
F15407.0
aF209.92
aa(lp1232
F14984.0
aF212.78
aa(lp1233
F13092.0
aF249.67
aa(lp1234
F16210.0
aF213.07
aa(lp1235
F17585.0
aF194.87
aa(lp1236
F18144.0
aF183.74
aa(lp1237
F16631.0
aF207.19
aa(lp1238
F20325.0
aF150.78
aa(lp1239
F18242.0
aF192.63
aa(lp1240
F20963.0
aF170.36
aa(lp1241
F20833.0
aF173.95
aa(lp1242
F19424.0
aF185.42
aa(lp1243
F18839.0
aF193.46
aa(lp1244
F3377.4
aF739.18
aa(lp1245
F19432.0
aF180.34
aa(lp1246
F717.75
aF6070.1
aa(lp1247
F18362.0
aF178.51
aa(lp1248
F667.35
aF5665.9
aa(lp1249
F14500.0
aF229.24
aag31
a(lp1250
F20683.0
aF171.45
aa(lp1251
F15091.0
aF228.56
aa(lp1252
F420.81
aF6962.9
aa(lp1253
F15884.0
aF199.69
aa(lp1254
F18358.0
aF167.79
aa(lp1255
F21221.0
aF171.2
aa(lp1256
F21072.0
aF163.99
aa(lp1257
F17772.0
aF190.27
aa(lp1258
F19379.0
aF179.67
aa(lp1259
F19548.0
aF189.32
aa(lp1260
F19473.0
aF162.89
aa(lp1261
F15819.0
aF197.37
aa(lp1262
F17780.0
aF192.18
aa(lp1263
F18590.0
aF193.02
aa(lp1264
F14913.0
aF221.1
aa(lp1265
F16983.0
aF201.08
aa(lp1266
F17834.0
aF179.98
aa(lp1267
F19152.0
aF183.64
aa(lp1268
F3126.8
aF825.33
aa(lp1269
F15337.0
aF219.85
aa(lp1270
F13554.0
aF237.44
aa(lp1271
F12766.0
aF255.09
aa(lp1272
F19200.0
aF183.1
aa(lp1273
F17707.0
aF202.68
aa(lp1274
F16283.0
aF215.49
aa(lp1275
F13006.0
aF253.35
aa(lp1276
F3105.0
aF818.54
aa(lp1277
F15841.0
aF219.31
aa(lp1278
F14879.0
aF224.85
aa(lp1279
F17647.0
aF194.17
aa(lp1280
F15296.0
aF207.54
aa(lp1281
F16482.0
aF209.67
aa(lp1282
F18847.0
aF186.86
aa(lp1283
F12453.0
aF274.3
aa(lp1284
F14548.0
aF232.12
aa(lp1285
F365.31
aF7893.6
aa(lp1286
F15496.0
aF208.09
aa(lp1287
F16286.0
aF186.2
aa(lp1288
F18059.0
aF207.27
aa(lp1289
F16708.0
aF188.86
aa(lp1290
F12969.0
aF266.64
aa(lp1291
F21412.0
aF169.27
aa(lp1292
F18875.0
aF189.26
aa(lp1293
F18295.0
aF187.85
aa(lp1294
F19350.0
aF217.33
aag32
a(lp1295
F12168.0
aF268.84
aa(lp1296
F19287.0
aF194.14
aa(lp1297
F13023.0
aF237.15
aa(lp1298
F16918.0
aF209.14
aa(lp1299
F3341.7
aF763.75
aa(lp1300
F13273.0
aF245.45
aa(lp1301
F9717.5
aF316.82
aa(lp1302
F9461.5
aF349.23
aa(lp1303
F15472.0
aF217.16
aa(lp1304
F3136.4
aF763.98
aa(lp1305
F18216.0
aF178.78
aa(lp1306
F18560.0
aF180.7
aa(lp1307
F17151.0
aF198.51
aa(lp1308
F16004.0
aF211.99
aa(lp1309
F12617.0
aF252.95
aa(lp1310
F15168.0
aF222.38
aa(lp1311
F17943.0
aF189.84
aa(lp1312
F18865.0
aF199.41
aa(lp1313
F16268.0
aF210.49
aa(lp1314
F19103.0
aF192.35
aa(lp1315
F18585.0
aF182.07
aa(lp1316
F12507.0
aF260.97
aa(lp1317
F20317.0
aF186.57
aa(lp1318
F18960.0
aF190.85
aa(lp1319
F14497.0
aF222.5
aa(lp1320
F561.06
aF6205.9
aa(lp1321
F3138.6
aF775.97
aa(lp1322
F7905.6
aF416.37
aa(lp1323
F13217.0
aF238.17
aa(lp1324
F14916.0
aF228.45
aa(lp1325
F19635.0
aF169.76
aa(lp1326
F13015.0
aF254.37
aa(lp1327
F18559.0
aF178.78
aa(lp1328
F18354.0
aF189.74
aa(lp1329
F13847.0
aF242.95
aa(lp1330
F8935.8
aF332.06
aa(lp1331
F14984.0
aF218.27
aa(lp1332
F20515.0
aF169.13
aa(lp1333
F17673.0
aF205.44
aa(lp1334
F17134.0
aF210.88
aa(lp1335
F9356.2
aF331.87
aa(lp1336
F20035.0
aF183.51
aa(lp1337
F18535.0
aF188.22
aa(lp1338
F20358.0
aF165.67
aa(lp1339
F14598.0
aF221.46
aa(lp1340
F3058.1
aF941.23
aa(lp1341
F19994.0
aF159.31
aa(lp1342
F19639.0
aF204.91
aa(lp1343
F18424.0
aF184.65
aa(lp1344
F15208.0
aF213.92
aa(lp1345
F579.53
aF4820.2
aa(lp1346
F2927.1
aF923.01
aa(lp1347
F13608.0
aF233.05
aa(lp1348
F19284.0
aF170.67
aa(lp1349
F19047.0
aF182.28
aag33
a(lp1350
F15466.0
aF220.31
aa(lp1351
F13749.0
aF224.36
aag34
a(lp1352
F20593.0
aF186.5
aa(lp1353
F19933.0
aF180.42
aa(lp1354
F3425.3
aF724.93
aa(lp1355
F21822.0
aF176.48
aa(lp1356
F20312.0
aF168.15
aa(lp1357
F13256.0
aF243.86
aa(lp1358
F19001.0
aF176.54
aa(lp1359
F19510.0
aF173.89
aa(lp1360
F17208.0
aF191.22
aa(lp1361
F2890.0
aF962.59
aa(lp1362
F9799.9
aF315.4
aa(lp1363
F14658.0
aF247.88
aa(lp1364
F460.81
aF8761.6
aa(lp1365
F15583.0
aF232.8
aa(lp1366
F18113.0
aF200.19
aa(lp1367
F20591.0
aF173.86
aa(lp1368
F16743.0
aF192.05
aa(lp1369
F18696.0
aF179.8
aa(lp1370
F12359.0
aF260.07
aa(lp1371
F20300.0
aF172.5
aa(lp1372
F20225.0
aF174.24
aa(lp1373
F16493.0
aF196.33
aa(lp1374
F3044.9
aF833.58
aa(lp1375
F16981.0
aF207.94
aa(lp1376
F20247.0
aF165.53
aa(lp1377
F12203.0
aF248.93
aa(lp1378
F19013.0
aF177.87
aa(lp1379
F18268.0
aF196.77
aa(lp1380
F19967.0
aF184.23
aa(lp1381
F17261.0
aF201.94
aa(lp1382
F13744.0
aF249.61
aa(lp1383
F3271.9
aF776.86
aa(lp1384
F20338.0
aF168.89
aa(lp1385
F20586.0
aF178.32
aa(lp1386
F19199.0
aF184.12
aa(lp1387
F567.93
aF6402.4
aa(lp1388
F19579.0
aF194.19
aa(lp1389
F15173.0
aF254.59
aa(lp1390
F20561.0
aF169.34
aa(lp1391
F19484.0
aF174.59
aa(lp1392
F20907.0
aF163.76
aa(lp1393
F20852.0
aF174.72
aa(lp1394
F19757.0
aF187.79
aa(lp1395
F20703.0
aF167.8
aa(lp1396
F17249.0
aF191.29
aa(lp1397
F12954.0
aF255.64
aa(lp1398
F9137.1
aF337.37
aa(lp1399
F3206.2
aF798.38
aa(lp1400
F18807.0
aF189.21
aa(lp1401
F17653.0
aF185.06
aa(lp1402
F14336.0
aF224.22
aa(lp1403
F19269.0
aF193.05
aa(lp1404
F21148.0
aF164.47
aa(lp1405
F17962.0
aF176.82
aa(lp1406
F9943.0
aF345.64
aa(lp1407
F14679.0
aF221.0
aa(lp1408
F19693.0
aF161.26
aasS'actual_pf'
p1409
(lp1410
g878
ag96
ag97
as.