(dp0
S'./Data/results_wc-c3-3d-c1/'
p1
(dp2
S'0.08'
p3
ccopy_reg
_reconstructor
p4
(c__main__
container
p5
c__builtin__
object
p6
Ntp7
Rp8
(dp9
S'evals'
p10
(lp11
I239
aI90
aI157
aI245
aI242
aI244
aI50
aI244
aI53
aI68
aI242
aI247
aI119
aI97
aI246
aI56
aI75
aI245
aI245
aI61
aI104
aI48
aI244
aI113
aI57
aI109
aI77
aI61
aI78
aI171
aI88
aI246
aI241
aI58
aI237
aI175
aI97
aI44
aI66
aI45
asS'epsilon_value'
p12
g3
sS'pfs'
p13
(lp14
I68
aI242
aI247
aI119
aI97
aI246
aI56
aI75
aI245
aI245
aI239
aI61
aI104
aI48
aI244
aI113
aI57
aI109
aI77
aI61
aI78
aI90
aI171
aI88
aI246
aI241
aI58
aI237
aI175
aI97
aI44
aI66
aI157
aI45
aI245
aI242
aI244
aI50
aI244
aI53
asS'name'
p15
g1
sbsS'0.2'
p16
g4
(g5
g6
Ntp17
Rp18
(dp19
g10
(lp20
I57
aI84
aI243
aI40
aI242
aI58
aI114
aI75
aI236
aI39
aI110
aI47
aI242
aI69
aI242
aI36
aI42
aI244
aI60
aI46
aI43
aI146
aI242
aI68
aI41
aI60
aI63
aI245
aI88
aI233
aI42
aI158
aI53
aI54
aI36
aI45
aI43
aI53
aI47
aI39
asg12
g16
sg13
(lp21
I39
aI110
aI47
aI242
aI69
aI242
aI36
aI42
aI244
aI60
aI57
aI46
aI43
aI146
aI242
aI68
aI41
aI60
aI63
aI245
aI88
aI84
aI233
aI42
aI158
aI53
aI54
aI36
aI45
aI43
aI53
aI47
aI243
aI39
aI40
aI242
aI58
aI114
aI75
aI236
asg15
g1
sbsS'0.02'
p22
g4
(g5
g6
Ntp23
Rp24
(dp25
g10
(lp26
I282
aI53
aI244
aI78
aI50
aI93
aI210
aI257
aI351
aI80
aI251
aI135
aI260
aI59
aI97
aI348
aI75
aI56
aI352
aI248
aI63
aI137
aI49
aI354
aI80
aI248
aI296
aI255
aI101
aI65
aI245
aI264
aI351
aI249
aI58
aI246
aI103
aI324
aI262
aI350
asg12
g22
sg13
(lp27
I80
aI251
aI135
aI260
aI59
aI97
aI348
aI75
aI56
aI352
aI282
aI248
aI63
aI137
aI49
aI354
aI80
aI248
aI296
aI255
aI101
aI53
aI65
aI245
aI264
aI351
aI249
aI58
aI246
aI103
aI324
aI262
aI244
aI350
aI78
aI50
aI93
aI210
aI257
aI351
asg15
g1
sbsS'0.3'
p28
g4
(g5
g6
Ntp29
Rp30
(dp31
g10
(lp32
I113
aI109
aI124
aI46
aI39
aI127
aI55
aI89
aI98
aI128
aI120
aI99
aI121
aI141
aI50
aI73
aI33
aI116
aI138
aI104
aI42
aI135
aI70
aI33
aI127
aI173
aI101
aI130
aI32
aI48
aI41
aI136
aI159
aI32
aI39
aI134
aI41
aI35
aI101
aI138
asg12
g28
sg13
(lp33
I128
aI120
aI99
aI121
aI141
aI50
aI73
aI33
aI116
aI138
aI113
aI104
aI42
aI135
aI70
aI33
aI127
aI173
aI101
aI130
aI32
aI109
aI48
aI41
aI136
aI159
aI32
aI39
aI134
aI41
aI35
aI101
aI124
aI138
aI46
aI39
aI127
aI55
aI89
aI98
asg15
g1
sbsS'0.01'
p34
g4
(g5
g6
Ntp35
Rp36
(dp37
g10
(lp38
I65
aI51
aI357
aI62
aI131
aI287
aI260
aI72
aI246
aI87
aI273
aI53
aI333
aI249
aI256
aI352
aI248
aI257
aI123
aI256
aI108
aI334
aI364
aI249
aI56
aI258
aI54
aI71
aI109
aI307
aI108
aI347
aI131
aI79
aI159
aI246
aI314
aI74
aI348
aI253
asg12
g34
sg13
(lp39
I87
aI273
aI53
aI333
aI249
aI256
aI352
aI248
aI257
aI123
aI65
aI256
aI108
aI334
aI364
aI249
aI56
aI258
aI54
aI71
aI109
aI51
aI307
aI108
aI347
aI131
aI79
aI159
aI246
aI314
aI74
aI348
aI357
aI253
aI62
aI131
aI287
aI260
aI72
aI246
asg15
g1
sbsS'0.04'
p40
g4
(g5
g6
Ntp41
Rp42
(dp43
g10
(lp44
I53
aI291
aI247
aI263
aI49
aI57
aI68
aI247
aI244
aI118
aI86
aI98
aI248
aI353
aI248
aI254
aI271
aI335
aI80
aI222
aI245
aI49
aI86
aI316
aI237
aI256
aI68
aI46
aI50
aI55
aI67
aI93
aI58
aI264
aI44
aI243
aI244
aI80
aI244
aI84
asg12
g40
sg13
(lp45
I118
aI86
aI98
aI248
aI353
aI248
aI254
aI271
aI335
aI80
aI53
aI222
aI245
aI49
aI86
aI316
aI237
aI256
aI68
aI46
aI50
aI291
aI55
aI67
aI93
aI58
aI264
aI44
aI243
aI244
aI80
aI244
aI247
aI84
aI263
aI49
aI57
aI68
aI247
aI244
asg15
g1
sbsS'0.16'
p46
g4
(g5
g6
Ntp47
Rp48
(dp49
g10
(lp50
I120
aI38
aI51
aI72
aI74
aI50
aI83
aI47
aI35
aI244
aI65
aI45
aI53
aI74
aI244
aI49
aI189
aI46
aI137
aI44
aI125
aI37
aI41
aI93
aI241
aI87
aI59
aI37
aI40
aI245
aI243
aI94
aI43
aI244
aI50
aI106
aI139
aI96
aI41
aI242
asg12
g46
sg13
(lp51
I244
aI65
aI45
aI53
aI74
aI244
aI49
aI189
aI46
aI137
aI120
aI44
aI125
aI37
aI41
aI93
aI241
aI87
aI59
aI37
aI40
aI38
aI245
aI243
aI94
aI43
aI244
aI50
aI106
aI139
aI96
aI41
aI51
aI242
aI72
aI74
aI50
aI83
aI47
aI35
asg15
g1
sbsS'0.12'
p52
g4
(g5
g6
Ntp53
Rp54
(dp55
g10
(lp56
I137
aI46
aI91
aI50
aI244
aI85
aI244
aI163
aI246
aI247
aI190
aI32
aI247
aI85
aI244
aI134
aI42
aI59
aI77
aI147
aI36
aI43
aI244
aI75
aI82
aI57
aI244
aI92
aI240
aI246
aI243
aI184
aI47
aI77
aI56
aI242
aI244
aI54
aI45
aI243
asg12
g52
sg13
(lp57
I247
aI190
aI32
aI247
aI85
aI244
aI134
aI42
aI59
aI77
aI137
aI147
aI36
aI43
aI244
aI75
aI82
aI57
aI244
aI92
aI240
aI46
aI246
aI243
aI184
aI47
aI77
aI56
aI242
aI244
aI54
aI45
aI91
aI243
aI50
aI244
aI85
aI244
aI163
aI246
asg15
g1
sbssS'./Data/results_wc+sol-3d-c4/'
p58
(dp59
S'0.08'
p60
g4
(g5
g6
Ntp61
Rp62
(dp63
g10
(lp64
I104
aI58
aI140
aI171
aI97
aI102
aI86
aI74
aI138
aI119
aI97
aI195
aI86
aI40
aI167
aI145
aI91
aI93
aI137
aI50
aI96
aI68
aI91
aI64
aI196
aI65
aI196
aI122
aI142
aI66
aI98
aI75
aI70
aI67
aI99
aI97
aI90
aI118
aI77
aI80
asg12
g60
sg13
(lp65
I119
aI97
aI195
aI86
aI40
aI167
aI145
aI91
aI93
aI137
aI104
aI50
aI96
aI68
aI91
aI64
aI196
aI65
aI196
aI122
aI142
aI58
aI66
aI98
aI75
aI70
aI67
aI99
aI97
aI90
aI118
aI77
aI140
aI80
aI171
aI97
aI102
aI86
aI74
aI138
asg15
g58
sbsS'0.2'
p66
g4
(g5
g6
Ntp67
Rp68
(dp69
g10
(lp70
I60
aI111
aI76
aI61
aI56
aI94
aI56
aI77
aI80
aI105
aI67
aI53
aI55
aI82
aI100
aI108
aI160
aI119
aI77
aI94
aI76
aI196
aI39
aI122
aI70
aI62
aI128
aI50
aI54
aI70
aI84
aI67
aI51
aI75
aI196
aI80
aI54
aI193
aI102
aI104
asg12
g66
sg13
(lp71
I105
aI67
aI53
aI55
aI82
aI100
aI108
aI160
aI119
aI77
aI60
aI94
aI76
aI196
aI39
aI122
aI70
aI62
aI128
aI50
aI54
aI111
aI70
aI84
aI67
aI51
aI75
aI196
aI80
aI54
aI193
aI102
aI76
aI104
aI61
aI56
aI94
aI56
aI77
aI80
asg15
g58
sbsS'0.02'
p72
g4
(g5
g6
Ntp73
Rp74
(dp75
g10
(lp76
I101
aI111
aI55
aI58
aI193
aI85
aI134
aI102
aI119
aI164
aI81
aI158
aI129
aI161
aI161
aI144
aI161
aI56
aI75
aI73
aI143
aI193
aI129
aI127
aI89
aI155
aI66
aI89
aI91
aI73
aI105
aI94
aI117
aI62
aI196
aI139
aI140
aI92
aI196
aI101
asg12
g72
sg13
(lp77
I164
aI81
aI158
aI129
aI161
aI161
aI144
aI161
aI56
aI75
aI101
aI73
aI143
aI193
aI129
aI127
aI89
aI155
aI66
aI89
aI91
aI111
aI73
aI105
aI94
aI117
aI62
aI196
aI139
aI140
aI92
aI196
aI55
aI101
aI58
aI193
aI85
aI134
aI102
aI119
asg15
g58
sbsS'0.3'
p78
g4
(g5
g6
Ntp79
Rp80
(dp81
g10
(lp82
I39
aI55
aI93
aI40
aI113
aI45
aI89
aI65
aI74
aI41
aI56
aI53
aI59
aI196
aI90
aI64
aI59
aI77
aI58
aI137
aI85
aI75
aI121
aI62
aI61
aI82
aI159
aI75
aI62
aI196
aI40
aI51
aI88
aI86
aI64
aI94
aI47
aI73
aI97
aI48
asg12
g78
sg13
(lp83
I41
aI56
aI53
aI59
aI196
aI90
aI64
aI59
aI77
aI58
aI39
aI137
aI85
aI75
aI121
aI62
aI61
aI82
aI159
aI75
aI62
aI55
aI196
aI40
aI51
aI88
aI86
aI64
aI94
aI47
aI73
aI97
aI93
aI48
aI40
aI113
aI45
aI89
aI65
aI74
asg15
g58
sbsS'0.01'
p84
g4
(g5
g6
Ntp85
Rp86
(dp87
g10
(lp88
I147
aI145
aI186
aI75
aI176
aI196
aI182
aI112
aI55
aI92
aI140
aI143
aI105
aI140
aI69
aI83
aI69
aI179
aI101
aI105
aI196
aI145
aI111
aI151
aI193
aI152
aI178
aI194
aI124
aI95
aI98
aI102
aI130
aI196
aI98
aI157
aI132
aI105
aI101
aI111
asg12
g84
sg13
(lp89
I92
aI140
aI143
aI105
aI140
aI69
aI83
aI69
aI179
aI101
aI147
aI105
aI196
aI145
aI111
aI151
aI193
aI152
aI178
aI194
aI124
aI145
aI95
aI98
aI102
aI130
aI196
aI98
aI157
aI132
aI105
aI101
aI186
aI111
aI75
aI176
aI196
aI182
aI112
aI55
asg15
g58
sbsS'0.04'
p90
g4
(g5
g6
Ntp91
Rp92
(dp93
g10
(lp94
I177
aI145
aI103
aI120
aI154
aI122
aI74
aI105
aI94
aI138
aI81
aI88
aI118
aI66
aI196
aI119
aI194
aI196
aI79
aI196
aI162
aI194
aI66
aI156
aI88
aI84
aI159
aI150
aI92
aI196
aI86
aI111
aI129
aI45
aI131
aI195
aI116
aI73
aI116
aI37
asg12
g90
sg13
(lp95
I138
aI81
aI88
aI118
aI66
aI196
aI119
aI194
aI196
aI79
aI177
aI196
aI162
aI194
aI66
aI156
aI88
aI84
aI159
aI150
aI92
aI145
aI196
aI86
aI111
aI129
aI45
aI131
aI195
aI116
aI73
aI116
aI103
aI37
aI120
aI154
aI122
aI74
aI105
aI94
asg15
g58
sbsS'0.16'
p96
g4
(g5
g6
Ntp97
Rp98
(dp99
g10
(lp100
I112
aI120
aI63
aI30
aI109
aI69
aI66
aI87
aI57
aI62
aI59
aI131
aI51
aI124
aI77
aI119
aI75
aI196
aI40
aI48
aI64
aI160
aI63
aI54
aI52
aI49
aI98
aI79
aI75
aI53
aI164
aI105
aI164
aI70
aI145
aI111
aI115
aI101
aI58
aI82
asg12
g96
sg13
(lp101
I62
aI59
aI131
aI51
aI124
aI77
aI119
aI75
aI196
aI40
aI112
aI48
aI64
aI160
aI63
aI54
aI52
aI49
aI98
aI79
aI75
aI120
aI53
aI164
aI105
aI164
aI70
aI145
aI111
aI115
aI101
aI58
aI63
aI82
aI30
aI109
aI69
aI66
aI87
aI57
asg15
g58
sbsS'0.12'
p102
g4
(g5
g6
Ntp103
Rp104
(dp105
g10
(lp106
I92
aI95
aI122
aI178
aI75
aI53
aI31
aI43
aI90
aI83
aI98
aI60
aI166
aI34
aI73
aI196
aI85
aI54
aI69
aI172
aI96
aI72
aI184
aI52
aI192
aI134
aI57
aI69
aI80
aI170
aI62
aI95
aI63
aI62
aI57
aI100
aI70
aI131
aI116
aI111
asg12
g102
sg13
(lp107
I83
aI98
aI60
aI166
aI34
aI73
aI196
aI85
aI54
aI69
aI92
aI172
aI96
aI72
aI184
aI52
aI192
aI134
aI57
aI69
aI80
aI95
aI170
aI62
aI95
aI63
aI62
aI57
aI100
aI70
aI131
aI116
aI122
aI111
aI178
aI75
aI53
aI31
aI43
aI90
asg15
g58
sbssS'./Data/results_sol-6d-c2/'
p108
(dp109
S'0.08'
p110
g4
(g5
g6
Ntp111
Rp112
(dp113
g10
(lp114
I457
aI2866
aI261
aI156
aI362
aI188
aI197
aI584
aI237
aI2866
aI196
aI314
aI91
aI150
aI205
aI250
aI306
aI225
aI190
asg12
g110
sg13
(lp115
I2866
aI196
aI314
aI91
aI150
aI205
aI250
aI306
aI225
aI43
aI457
aI2866
aI261
aI156
aI362
aI188
aI197
aI584
aI237
asg15
g108
sbsS'0.2'
p116
g4
(g5
g6
Ntp117
Rp118
(dp119
g10
(lp120
I231
aI307
aI156
aI208
aI92
aI200
aI201
aI361
aI2866
aI178
aI362
aI344
aI345
aI223
aI222
aI159
aI177
aI119
aI115
asg12
g116
sg13
(lp121
I178
aI362
aI344
aI345
aI223
aI222
aI159
aI177
aI119
aI115
aI231
aI307
aI156
aI208
aI92
aI200
aI201
aI361
aI2866
asg15
g108
sbsS'0.02'
p122
g4
(g5
g6
Ntp123
Rp124
(dp125
g10
(lp126
I2866
aI279
aI2866
aI201
aI254
aI506
aI425
aI239
aI334
aI212
aI366
aI2866
aI366
aI247
aI377
aI394
aI251
aI316
aI431
asg12
g122
sg13
(lp127
I212
aI366
aI2866
aI366
aI247
aI377
aI394
aI251
aI316
aI431
aI2866
aI279
aI2866
aI201
aI254
aI506
aI425
aI239
aI334
asg15
g108
sbsS'0.3'
p128
g4
(g5
g6
Ntp129
Rp130
(dp131
g10
(lp132
I265
aI213
aI1029
aI179
aI252
aI170
aI498
aI288
aI181
aI2866
aI180
aI459
aI208
aI280
aI330
aI663
aI119
aI143
aI133
asg12
g128
sg13
(lp133
I2866
aI180
aI459
aI208
aI280
aI330
aI663
aI119
aI143
aI133
aI265
aI213
aI1029
aI179
aI252
aI170
aI498
aI288
aI181
asg15
g108
sbsS'0.01'
p134
g4
(g5
g6
Ntp135
Rp136
(dp137
g10
(lp138
I2866
aI143
aI583
aI215
aI365
aI585
aI365
aI200
aI212
aI2866
aI374
aI303
aI168
aI373
aI218
aI2866
aI2866
aI313
aI2866
asg12
g134
sg13
(lp139
I2866
aI374
aI303
aI168
aI373
aI218
aI2866
aI2866
aI313
aI2866
aI2866
aI143
aI583
aI215
aI365
aI585
aI365
aI200
aI212
asg15
g108
sbsS'0.04'
p140
g4
(g5
g6
Ntp141
Rp142
(dp143
g10
(lp144
I130
aI653
aI119
aI383
aI196
aI322
aI442
aI361
aI370
aI395
aI231
aI463
aI244
aI223
aI233
aI287
aI205
aI578
aI389
asg12
g140
sg13
(lp145
I395
aI231
aI463
aI244
aI223
aI233
aI287
aI205
aI578
aI389
aI130
aI653
aI119
aI383
aI196
aI322
aI442
aI361
aI370
asg15
g108
sbsS'0.16'
p146
g4
(g5
g6
Ntp147
Rp148
(dp149
g10
(lp150
I92
aI207
aI368
aI187
aI122
aI142
aI500
aI262
aI234
aI191
aI240
aI204
aI290
aI178
aI307
aI142
aI247
aI213
aI189
asg12
g146
sg13
(lp151
I191
aI240
aI204
aI290
aI178
aI307
aI142
aI247
aI213
aI54
aI92
aI207
aI368
aI187
aI122
aI142
aI500
aI262
aI234
asg15
g108
sbsS'0.12'
p152
g4
(g5
g6
Ntp153
Rp154
(dp155
g10
(lp156
I324
aI223
aI562
aI360
aI126
aI398
aI2866
aI156
aI321
aI123
aI278
aI311
aI169
aI462
aI205
aI107
aI228
aI279
aI2866
asg12
g152
sg13
(lp157
I123
aI278
aI311
aI169
aI462
aI205
aI107
aI228
aI279
aI2866
aI324
aI223
aI562
aI360
aI126
aI398
aI2866
aI156
aI321
asg15
g108
sbssS'./Data/results_wc-3d-c4/'
p158
(dp159
S'0.08'
p160
g4
(g5
g6
Ntp161
Rp162
(dp163
g10
(lp164
I336
aI121
aI30
aI129
aI63
aI155
aI84
aI276
aI272
aI88
aI89
aI653
aI77
aI222
aI62
aI756
aI142
aI41
aI66
aI33
aI57
aI84
aI154
aI177
aI47
aI55
aI92
aI52
aI61
aI319
aI756
aI30
aI68
aI95
aI57
aI645
aI67
aI37
aI400
aI85
asg12
g160
sg13
(lp165
I88
aI89
aI653
aI77
aI222
aI62
aI756
aI142
aI41
aI66
aI336
aI33
aI57
aI84
aI154
aI177
aI47
aI55
aI92
aI52
aI61
aI121
aI319
aI756
aI30
aI68
aI95
aI57
aI645
aI67
aI37
aI400
aI30
aI85
aI129
aI63
aI155
aI84
aI276
aI272
asg15
g158
sbsS'0.2'
p166
g4
(g5
g6
Ntp167
Rp168
(dp169
g10
(lp170
I41
aI41
aI112
aI55
aI39
aI30
aI274
aI54
aI52
aI122
aI81
aI68
aI108
aI41
aI47
aI56
aI96
aI77
aI30
aI46
aI86
aI128
aI44
aI81
aI35
aI68
aI40
aI100
aI30
aI57
aI54
aI53
aI106
aI130
aI30
aI103
aI34
aI99
aI104
aI137
asg12
g166
sg13
(lp171
I122
aI81
aI68
aI108
aI41
aI47
aI56
aI96
aI77
aI30
aI41
aI46
aI86
aI128
aI44
aI81
aI35
aI68
aI40
aI100
aI30
aI41
aI57
aI54
aI53
aI106
aI130
aI30
aI103
aI34
aI99
aI104
aI112
aI137
aI55
aI39
aI30
aI274
aI54
aI52
asg15
g158
sbsS'0.02'
p172
g4
(g5
g6
Ntp173
Rp174
(dp175
g10
(lp176
I161
aI51
aI142
aI56
aI298
aI354
aI123
aI306
aI207
aI66
aI79
aI52
aI59
aI118
aI131
aI125
aI112
aI157
aI88
aI88
aI68
aI115
aI82
aI121
aI336
aI345
aI92
aI92
aI101
aI226
aI94
aI368
aI245
aI201
aI75
aI77
aI124
aI154
aI115
aI133
asg12
g172
sg13
(lp177
I66
aI79
aI52
aI59
aI118
aI131
aI125
aI112
aI157
aI88
aI161
aI88
aI68
aI115
aI82
aI121
aI336
aI345
aI92
aI92
aI101
aI51
aI226
aI94
aI368
aI245
aI201
aI75
aI77
aI124
aI154
aI115
aI142
aI133
aI56
aI298
aI354
aI123
aI306
aI207
asg15
g158
sbsS'0.3'
p178
g4
(g5
g6
Ntp179
Rp180
(dp181
g10
(lp182
I53
aI45
aI53
aI74
aI97
aI69
aI44
aI57
aI40
aI43
aI114
aI52
aI37
aI113
aI86
aI44
aI111
aI77
aI81
aI44
aI55
aI39
aI321
aI44
aI54
aI71
aI97
aI37
aI30
aI100
aI38
aI51
aI50
aI69
aI45
aI30
aI113
aI125
aI88
aI63
asg12
g178
sg13
(lp183
I43
aI114
aI52
aI37
aI113
aI86
aI44
aI111
aI77
aI81
aI53
aI44
aI55
aI39
aI321
aI44
aI54
aI71
aI97
aI37
aI30
aI45
aI100
aI38
aI51
aI50
aI69
aI45
aI30
aI113
aI125
aI88
aI53
aI63
aI74
aI97
aI69
aI44
aI57
aI40
asg15
g158
sbsS'0.01'
p184
g4
(g5
g6
Ntp185
Rp186
(dp187
g10
(lp188
I128
aI279
aI365
aI62
aI570
aI56
aI71
aI300
aI50
aI615
aI445
aI236
aI340
aI262
aI756
aI622
aI220
aI181
aI73
aI206
aI63
aI485
aI206
aI136
aI370
aI59
aI252
aI328
aI153
aI197
aI210
aI149
aI80
aI122
aI66
aI243
aI99
aI271
aI70
aI469
asg12
g184
sg13
(lp189
I615
aI445
aI236
aI340
aI262
aI756
aI622
aI220
aI181
aI73
aI128
aI206
aI63
aI485
aI206
aI136
aI370
aI59
aI252
aI328
aI153
aI279
aI197
aI210
aI149
aI80
aI122
aI66
aI243
aI99
aI271
aI70
aI365
aI469
aI62
aI570
aI56
aI71
aI300
aI50
asg15
g158
sbsS'0.04'
p190
g4
(g5
g6
Ntp191
Rp192
(dp193
g10
(lp194
I306
aI58
aI45
aI120
aI68
aI39
aI338
aI87
aI51
aI35
aI129
aI59
aI50
aI491
aI174
aI103
aI63
aI138
aI30
aI412
aI314
aI62
aI124
aI78
aI41
aI160
aI130
aI117
aI64
aI64
aI73
aI97
aI95
aI355
aI91
aI86
aI141
aI59
aI162
aI58
asg12
g190
sg13
(lp195
I35
aI129
aI59
aI50
aI491
aI174
aI103
aI63
aI138
aI30
aI306
aI412
aI314
aI62
aI124
aI78
aI41
aI160
aI130
aI117
aI64
aI58
aI64
aI73
aI97
aI95
aI355
aI91
aI86
aI141
aI59
aI162
aI45
aI58
aI120
aI68
aI39
aI338
aI87
aI51
asg15
g158
sbsS'0.16'
p196
g4
(g5
g6
Ntp197
Rp198
(dp199
g10
(lp200
I68
aI55
aI66
aI48
aI62
aI73
aI49
aI64
aI79
aI58
aI420
aI47
aI54
aI114
aI49
aI64
aI91
aI142
aI55
aI30
aI55
aI81
aI41
aI79
aI50
aI30
aI82
aI162
aI66
aI323
aI30
aI38
aI69
aI239
aI69
aI75
aI53
aI103
aI540
aI72
asg12
g196
sg13
(lp201
I58
aI420
aI47
aI54
aI114
aI49
aI64
aI91
aI142
aI55
aI68
aI30
aI55
aI81
aI41
aI79
aI50
aI30
aI82
aI162
aI66
aI55
aI323
aI30
aI38
aI69
aI239
aI69
aI75
aI53
aI103
aI540
aI66
aI72
aI48
aI62
aI73
aI49
aI64
aI79
asg15
g158
sbsS'0.12'
p202
g4
(g5
g6
Ntp203
Rp204
(dp205
g10
(lp206
I94
aI130
aI68
aI53
aI53
aI67
aI110
aI298
aI89
aI41
aI72
aI756
aI323
aI46
aI80
aI58
aI114
aI564
aI177
aI116
aI38
aI129
aI56
aI164
aI57
aI30
aI235
aI93
aI59
aI49
aI47
aI165
aI66
aI60
aI73
aI39
aI44
aI58
aI167
aI48
asg12
g202
sg13
(lp207
I41
aI72
aI756
aI323
aI46
aI80
aI58
aI114
aI564
aI177
aI94
aI116
aI38
aI129
aI56
aI164
aI57
aI30
aI235
aI93
aI59
aI130
aI49
aI47
aI165
aI66
aI60
aI73
aI39
aI44
aI58
aI167
aI68
aI48
aI53
aI53
aI67
aI110
aI298
aI89
asg15
g158
sbssS'./Data/results_wc+wc-3d-c4/'
p208
(dp209
S'0.08'
p210
g4
(g5
g6
Ntp211
Rp212
(dp213
g10
(lp214
I186
aI57
aI86
aI135
aI69
aI141
aI50
aI196
aI83
aI157
aI51
aI150
aI96
aI144
aI98
aI78
aI54
aI91
aI88
aI79
aI65
aI196
aI96
aI113
aI52
aI122
aI196
aI58
aI116
aI148
aI96
aI65
aI57
aI73
aI137
aI47
aI191
aI46
aI88
aI65
asg12
g210
sg13
(lp215
I157
aI51
aI150
aI96
aI144
aI98
aI78
aI54
aI91
aI88
aI186
aI79
aI65
aI196
aI96
aI113
aI52
aI122
aI196
aI58
aI116
aI57
aI148
aI96
aI65
aI57
aI73
aI137
aI47
aI191
aI46
aI88
aI86
aI65
aI135
aI69
aI141
aI50
aI196
aI83
asg15
g208
sbsS'0.2'
p216
g4
(g5
g6
Ntp217
Rp218
(dp219
g10
(lp220
I50
aI76
aI57
aI136
aI136
aI196
aI46
aI55
aI136
aI96
aI168
aI64
aI58
aI93
aI90
aI84
aI119
aI90
aI93
aI191
aI66
aI79
aI54
aI49
aI73
aI57
aI47
aI90
aI71
aI56
aI66
aI55
aI44
aI64
aI89
aI61
aI55
aI37
aI69
aI124
asg12
g216
sg13
(lp221
I96
aI168
aI64
aI58
aI93
aI90
aI84
aI119
aI90
aI93
aI50
aI191
aI66
aI79
aI54
aI49
aI73
aI57
aI47
aI90
aI71
aI76
aI56
aI66
aI55
aI44
aI64
aI89
aI61
aI55
aI37
aI69
aI57
aI124
aI136
aI136
aI196
aI46
aI55
aI136
asg15
g208
sbsS'0.02'
p222
g4
(g5
g6
Ntp223
Rp224
(dp225
g10
(lp226
I131
aI110
aI132
aI60
aI196
aI173
aI148
aI95
aI117
aI84
aI86
aI190
aI157
aI70
aI118
aI109
aI178
aI81
aI142
aI110
aI57
aI82
aI85
aI153
aI105
aI157
aI166
aI152
aI94
aI177
aI153
aI146
aI162
aI56
aI196
aI100
aI91
aI146
aI84
aI149
asg12
g222
sg13
(lp227
I84
aI86
aI190
aI157
aI70
aI118
aI109
aI178
aI81
aI142
aI131
aI110
aI57
aI82
aI85
aI153
aI105
aI157
aI166
aI152
aI94
aI110
aI177
aI153
aI146
aI162
aI56
aI196
aI100
aI91
aI146
aI84
aI132
aI149
aI60
aI196
aI173
aI148
aI95
aI117
asg15
g208
sbsS'0.3'
p228
g4
(g5
g6
Ntp229
Rp230
(dp231
g10
(lp232
I55
aI110
aI60
aI61
aI56
aI128
aI91
aI171
aI76
aI54
aI104
aI36
aI97
aI126
aI168
aI58
aI59
aI76
aI196
aI84
aI64
aI53
aI47
aI93
aI56
aI63
aI77
aI69
aI70
aI105
aI65
aI65
aI56
aI71
aI86
aI36
aI196
aI54
aI64
aI57
asg12
g228
sg13
(lp233
I54
aI104
aI36
aI97
aI126
aI168
aI58
aI59
aI76
aI196
aI55
aI84
aI64
aI53
aI47
aI93
aI56
aI63
aI77
aI69
aI70
aI110
aI105
aI65
aI65
aI56
aI71
aI86
aI36
aI196
aI54
aI64
aI60
aI57
aI61
aI56
aI128
aI91
aI171
aI76
asg15
g208
sbsS'0.01'
p234
g4
(g5
g6
Ntp235
Rp236
(dp237
g10
(lp238
I85
aI174
aI89
aI114
aI127
aI90
aI174
aI122
aI127
aI82
aI125
aI196
aI196
aI54
aI49
aI117
aI119
aI99
aI161
aI100
aI72
aI145
aI113
aI120
aI102
aI194
aI157
aI105
aI67
aI186
aI97
aI196
aI111
aI168
aI187
aI176
aI177
aI84
aI132
aI97
asg12
g234
sg13
(lp239
I82
aI125
aI196
aI196
aI54
aI49
aI117
aI119
aI99
aI161
aI85
aI100
aI72
aI145
aI113
aI120
aI102
aI194
aI157
aI105
aI67
aI174
aI186
aI97
aI196
aI111
aI168
aI187
aI176
aI177
aI84
aI132
aI89
aI97
aI114
aI127
aI90
aI174
aI122
aI127
asg15
g208
sbsS'0.04'
p240
g4
(g5
g6
Ntp241
Rp242
(dp243
g10
(lp244
I115
aI58
aI92
aI191
aI62
aI48
aI83
aI181
aI71
aI67
aI131
aI152
aI141
aI63
aI87
aI99
aI69
aI113
aI106
aI99
aI126
aI131
aI128
aI196
aI196
aI97
aI80
aI54
aI156
aI105
aI133
aI93
aI91
aI155
aI196
aI140
aI127
aI111
aI183
aI105
asg12
g240
sg13
(lp245
I67
aI131
aI152
aI141
aI63
aI87
aI99
aI69
aI113
aI106
aI115
aI99
aI126
aI131
aI128
aI196
aI196
aI97
aI80
aI54
aI156
aI58
aI105
aI133
aI93
aI91
aI155
aI196
aI140
aI127
aI111
aI183
aI92
aI105
aI191
aI62
aI48
aI83
aI181
aI71
asg15
g208
sbsS'0.16'
p246
g4
(g5
g6
Ntp247
Rp248
(dp249
g10
(lp250
I53
aI63
aI59
aI196
aI136
aI97
aI77
aI62
aI196
aI153
aI39
aI126
aI83
aI39
aI112
aI71
aI125
aI97
aI50
aI73
aI81
aI96
aI173
aI75
aI70
aI51
aI74
aI78
aI69
aI68
aI69
aI66
aI120
aI75
aI140
aI81
aI56
aI69
aI89
aI150
asg12
g246
sg13
(lp251
I153
aI39
aI126
aI83
aI39
aI112
aI71
aI125
aI97
aI50
aI53
aI73
aI81
aI96
aI173
aI75
aI70
aI51
aI74
aI78
aI69
aI63
aI68
aI69
aI66
aI120
aI75
aI140
aI81
aI56
aI69
aI89
aI59
aI150
aI196
aI136
aI97
aI77
aI62
aI196
asg15
g208
sbsS'0.12'
p252
g4
(g5
g6
Ntp253
Rp254
(dp255
g10
(lp256
I71
aI196
aI46
aI51
aI59
aI104
aI145
aI104
aI85
aI56
aI96
aI65
aI59
aI94
aI87
aI146
aI66
aI150
aI47
aI94
aI110
aI87
aI64
aI106
aI172
aI99
aI126
aI196
aI127
aI63
aI60
aI78
aI196
aI69
aI116
aI101
aI191
aI69
aI99
aI167
asg12
g252
sg13
(lp257
I56
aI96
aI65
aI59
aI94
aI87
aI146
aI66
aI150
aI47
aI71
aI94
aI110
aI87
aI64
aI106
aI172
aI99
aI126
aI196
aI127
aI196
aI63
aI60
aI78
aI196
aI69
aI116
aI101
aI191
aI69
aI99
aI46
aI167
aI51
aI59
aI104
aI145
aI104
aI85
asg15
g208
sbssS'./Data/results_wc+rs-3d-c4/'
p258
(dp259
S'0.08'
p260
g4
(g5
g6
Ntp261
Rp262
(dp263
g10
(lp264
I72
aI196
aI72
aI126
aI100
aI95
aI196
aI99
aI92
aI52
aI68
aI196
aI128
aI132
aI49
aI75
aI196
aI66
aI139
aI114
aI106
aI158
aI46
aI77
aI59
aI56
aI176
aI105
aI196
aI102
aI124
aI121
aI122
aI103
aI78
aI79
aI85
aI196
aI74
aI51
asg12
g260
sg13
(lp265
I52
aI68
aI196
aI128
aI132
aI49
aI75
aI196
aI66
aI139
aI72
aI114
aI106
aI158
aI46
aI77
aI59
aI56
aI176
aI105
aI196
aI196
aI102
aI124
aI121
aI122
aI103
aI78
aI79
aI85
aI196
aI74
aI72
aI51
aI126
aI100
aI95
aI196
aI99
aI92
asg15
g258
sbsS'0.2'
p266
g4
(g5
g6
Ntp267
Rp268
(dp269
g10
(lp270
I122
aI80
aI87
aI54
aI45
aI63
aI96
aI56
aI102
aI67
aI196
aI133
aI137
aI75
aI49
aI196
aI68
aI82
aI75
aI98
aI47
aI61
aI99
aI75
aI196
aI94
aI42
aI139
aI61
aI138
aI55
aI76
aI79
aI62
aI136
aI55
aI49
aI185
aI77
aI147
asg12
g266
sg13
(lp271
I67
aI196
aI133
aI137
aI75
aI49
aI196
aI68
aI82
aI75
aI122
aI98
aI47
aI61
aI99
aI75
aI196
aI94
aI42
aI139
aI61
aI80
aI138
aI55
aI76
aI79
aI62
aI136
aI55
aI49
aI185
aI77
aI87
aI147
aI54
aI45
aI63
aI96
aI56
aI102
asg15
g258
sbsS'0.02'
p272
g4
(g5
g6
Ntp273
Rp274
(dp275
g10
(lp276
I93
aI174
aI125
aI96
aI72
aI99
aI157
aI185
aI92
aI62
aI83
aI92
aI140
aI181
aI135
aI161
aI175
aI80
aI169
aI153
aI124
aI82
aI142
aI102
aI139
aI111
aI107
aI196
aI67
aI175
aI82
aI102
aI185
aI50
aI165
aI85
aI91
aI65
aI196
aI112
asg12
g272
sg13
(lp277
I62
aI83
aI92
aI140
aI181
aI135
aI161
aI175
aI80
aI169
aI93
aI153
aI124
aI82
aI142
aI102
aI139
aI111
aI107
aI196
aI67
aI174
aI175
aI82
aI102
aI185
aI50
aI165
aI85
aI91
aI65
aI196
aI125
aI112
aI96
aI72
aI99
aI157
aI185
aI92
asg15
g258
sbsS'0.3'
p278
g4
(g5
g6
Ntp279
Rp280
(dp281
g10
(lp282
I96
aI73
aI87
aI76
aI71
aI51
aI81
aI74
aI78
aI58
aI70
aI61
aI196
aI44
aI86
aI71
aI64
aI102
aI59
aI36
aI61
aI71
aI48
aI103
aI85
aI61
aI59
aI87
aI59
aI73
aI59
aI95
aI107
aI87
aI41
aI74
aI63
aI42
aI60
aI118
asg12
g278
sg13
(lp283
I58
aI70
aI61
aI196
aI44
aI86
aI71
aI64
aI102
aI59
aI96
aI36
aI61
aI71
aI48
aI103
aI85
aI61
aI59
aI87
aI59
aI73
aI73
aI59
aI95
aI107
aI87
aI41
aI74
aI63
aI42
aI60
aI87
aI118
aI76
aI71
aI51
aI81
aI74
aI78
asg15
g258
sbsS'0.01'
p284
g4
(g5
g6
Ntp285
Rp286
(dp287
g10
(lp288
I94
aI92
aI186
aI118
aI113
aI194
aI120
aI159
aI164
aI106
aI167
aI80
aI91
aI109
aI143
aI196
aI83
aI195
aI137
aI152
aI193
aI148
aI185
aI107
aI133
aI120
aI95
aI111
aI132
aI147
aI105
aI186
aI143
aI146
aI153
aI139
aI182
aI118
aI127
aI196
asg12
g284
sg13
(lp289
I106
aI167
aI80
aI91
aI109
aI143
aI196
aI83
aI195
aI137
aI94
aI152
aI193
aI148
aI185
aI107
aI133
aI120
aI95
aI111
aI132
aI92
aI147
aI105
aI186
aI143
aI146
aI153
aI139
aI182
aI118
aI127
aI186
aI196
aI118
aI113
aI194
aI120
aI159
aI164
asg15
g258
sbsS'0.04'
p290
g4
(g5
g6
Ntp291
Rp292
(dp293
g10
(lp294
I112
aI104
aI141
aI90
aI142
aI126
aI107
aI146
aI114
aI96
aI74
aI127
aI126
aI110
aI90
aI149
aI78
aI97
aI122
aI89
aI140
aI88
aI172
aI143
aI196
aI41
aI47
aI164
aI126
aI151
aI157
aI93
aI103
aI196
aI156
aI96
aI100
aI173
aI102
aI64
asg12
g290
sg13
(lp295
I96
aI74
aI127
aI126
aI110
aI90
aI149
aI78
aI97
aI122
aI112
aI89
aI140
aI88
aI172
aI143
aI196
aI41
aI47
aI164
aI126
aI104
aI151
aI157
aI93
aI103
aI196
aI156
aI96
aI100
aI173
aI102
aI141
aI64
aI90
aI142
aI126
aI107
aI146
aI114
asg15
g258
sbsS'0.16'
p296
g4
(g5
g6
Ntp297
Rp298
(dp299
g10
(lp300
I55
aI72
aI196
aI40
aI89
aI190
aI57
aI68
aI196
aI124
aI46
aI59
aI138
aI139
aI89
aI62
aI196
aI74
aI52
aI62
aI196
aI59
aI82
aI90
aI125
aI65
aI162
aI60
aI93
aI120
aI93
aI116
aI184
aI85
aI104
aI69
aI196
aI82
aI74
aI104
asg12
g296
sg13
(lp301
I124
aI46
aI59
aI138
aI139
aI89
aI62
aI196
aI74
aI52
aI55
aI62
aI196
aI59
aI82
aI90
aI125
aI65
aI162
aI60
aI93
aI72
aI120
aI93
aI116
aI184
aI85
aI104
aI69
aI196
aI82
aI74
aI196
aI104
aI40
aI89
aI190
aI57
aI68
aI196
asg15
g258
sbsS'0.12'
p302
g4
(g5
g6
Ntp303
Rp304
(dp305
g10
(lp306
I108
aI67
aI55
aI64
aI145
aI61
aI84
aI60
aI146
aI113
aI179
aI64
aI78
aI113
aI51
aI69
aI31
aI76
aI62
aI62
aI64
aI74
aI80
aI59
aI109
aI194
aI102
aI80
aI196
aI70
aI62
aI117
aI89
aI52
aI81
aI153
aI76
aI194
aI59
aI88
asg12
g302
sg13
(lp307
I113
aI179
aI64
aI78
aI113
aI51
aI69
aI31
aI76
aI62
aI108
aI62
aI64
aI74
aI80
aI59
aI109
aI194
aI102
aI80
aI196
aI67
aI70
aI62
aI117
aI89
aI52
aI81
aI153
aI76
aI194
aI59
aI55
aI88
aI64
aI145
aI61
aI84
aI60
aI146
asg15
g258
sbssS'./Data/results_wc-c1-3d-c1/'
p308
(dp309
S'0.08'
p310
g4
(g5
g6
Ntp311
Rp312
(dp313
g10
(lp314
I91
aI92
aI124
aI77
aI193
aI150
aI63
aI93
aI184
aI160
aI186
aI122
aI186
aI67
aI76
aI83
aI82
aI56
aI87
aI186
aI77
aI182
aI181
aI77
aI127
aI48
aI62
aI189
aI183
aI189
aI63
aI56
aI60
aI72
aI77
aI189
aI55
aI84
aI56
aI83
asg12
g310
sg13
(lp315
I160
aI186
aI122
aI186
aI67
aI76
aI83
aI82
aI56
aI87
aI91
aI186
aI77
aI182
aI181
aI77
aI127
aI48
aI62
aI189
aI183
aI92
aI189
aI63
aI56
aI60
aI72
aI77
aI189
aI55
aI84
aI56
aI124
aI83
aI77
aI193
aI150
aI63
aI93
aI184
asg15
g308
sbsS'0.2'
p316
g4
(g5
g6
Ntp317
Rp318
(dp319
g10
(lp320
I56
aI97
aI52
aI67
aI46
aI65
aI77
aI49
aI71
aI95
aI48
aI61
aI57
aI77
aI52
aI70
aI34
aI76
aI93
aI82
aI82
aI37
aI49
aI68
aI53
aI70
aI76
aI78
aI47
aI47
aI76
aI75
aI85
aI104
aI79
aI80
aI88
aI87
aI51
aI54
asg12
g316
sg13
(lp321
I95
aI48
aI61
aI57
aI77
aI52
aI70
aI34
aI76
aI93
aI56
aI82
aI82
aI37
aI49
aI68
aI53
aI70
aI76
aI78
aI47
aI97
aI47
aI76
aI75
aI85
aI104
aI79
aI80
aI88
aI87
aI51
aI52
aI54
aI67
aI46
aI65
aI77
aI49
aI71
asg15
g308
sbsS'0.02'
p322
g4
(g5
g6
Ntp323
Rp324
(dp325
g10
(lp326
I95
aI67
aI101
aI178
aI73
aI94
aI67
aI77
aI60
aI186
aI55
aI195
aI93
aI112
aI42
aI77
aI92
aI90
aI77
aI86
aI182
aI108
aI126
aI198
aI117
aI77
aI83
aI69
aI183
aI69
aI66
aI182
aI104
aI89
aI106
aI77
aI85
aI77
aI94
aI88
asg12
g322
sg13
(lp327
I186
aI55
aI195
aI93
aI112
aI42
aI77
aI92
aI90
aI77
aI95
aI86
aI182
aI108
aI126
aI198
aI117
aI77
aI83
aI69
aI183
aI67
aI69
aI66
aI182
aI104
aI89
aI106
aI77
aI85
aI77
aI94
aI101
aI88
aI178
aI73
aI94
aI67
aI77
aI60
asg15
g308
sbsS'0.3'
p328
g4
(g5
g6
Ntp329
Rp330
(dp331
g10
(lp332
I55
aI72
aI78
aI46
aI42
aI77
aI74
aI77
aI43
aI49
aI59
aI75
aI57
aI76
aI76
aI75
aI38
aI74
aI76
aI37
aI77
aI69
aI76
aI36
aI43
aI54
aI43
aI75
aI77
aI75
aI77
aI71
aI67
aI76
aI76
aI53
aI79
aI75
aI73
aI72
asg12
g328
sg13
(lp333
I49
aI59
aI75
aI57
aI76
aI76
aI75
aI38
aI74
aI76
aI55
aI37
aI77
aI69
aI76
aI36
aI43
aI54
aI43
aI75
aI77
aI72
aI75
aI77
aI71
aI67
aI76
aI76
aI53
aI79
aI75
aI73
aI78
aI72
aI46
aI42
aI77
aI74
aI77
aI43
asg15
g308
sbsS'0.01'
p334
g4
(g5
g6
Ntp335
Rp336
(dp337
g10
(lp338
I77
aI132
aI193
aI180
aI73
aI107
aI184
aI115
aI123
aI106
aI182
aI104
aI184
aI183
aI97
aI194
aI68
aI99
aI131
aI129
aI65
aI58
aI100
aI89
aI186
aI112
aI57
aI132
aI186
aI184
aI114
aI58
aI77
aI100
aI155
aI142
aI49
aI55
aI49
aI62
asg12
g334
sg13
(lp339
I106
aI182
aI104
aI184
aI183
aI97
aI194
aI68
aI99
aI131
aI77
aI129
aI65
aI58
aI100
aI89
aI186
aI112
aI57
aI132
aI186
aI132
aI184
aI114
aI58
aI77
aI100
aI155
aI142
aI49
aI55
aI49
aI193
aI62
aI180
aI73
aI107
aI184
aI115
aI123
asg15
g308
sbsS'0.04'
p340
g4
(g5
g6
Ntp341
Rp342
(dp343
g10
(lp344
I103
aI48
aI80
aI67
aI83
aI89
aI77
aI81
aI181
aI91
aI108
aI182
aI64
aI87
aI55
aI88
aI101
aI89
aI69
aI41
aI184
aI114
aI76
aI42
aI192
aI128
aI93
aI114
aI100
aI86
aI53
aI77
aI77
aI169
aI183
aI63
aI196
aI115
aI50
aI88
asg12
g340
sg13
(lp345
I91
aI108
aI182
aI64
aI87
aI55
aI88
aI101
aI89
aI69
aI103
aI41
aI184
aI114
aI76
aI42
aI192
aI128
aI93
aI114
aI100
aI48
aI86
aI53
aI77
aI77
aI169
aI183
aI63
aI196
aI115
aI50
aI80
aI88
aI67
aI83
aI89
aI77
aI81
aI181
asg15
g308
sbsS'0.16'
p346
g4
(g5
g6
Ntp347
Rp348
(dp349
g10
(lp350
I77
aI145
aI44
aI76
aI95
aI76
aI77
aI182
aI68
aI72
aI133
aI67
aI95
aI78
aI77
aI94
aI76
aI50
aI93
aI97
aI52
aI42
aI72
aI68
aI73
aI77
aI34
aI35
aI50
aI103
aI99
aI181
aI41
aI53
aI55
aI182
aI75
aI112
aI77
aI117
asg12
g346
sg13
(lp351
I72
aI133
aI67
aI95
aI78
aI77
aI94
aI76
aI50
aI93
aI77
aI97
aI52
aI42
aI72
aI68
aI73
aI77
aI34
aI35
aI50
aI145
aI103
aI99
aI181
aI41
aI53
aI55
aI182
aI75
aI112
aI77
aI44
aI117
aI76
aI95
aI76
aI77
aI182
aI68
asg15
g308
sbsS'0.12'
p352
g4
(g5
g6
Ntp353
Rp354
(dp355
g10
(lp356
I89
aI77
aI81
aI82
aI185
aI42
aI90
aI81
aI62
aI183
aI87
aI86
aI58
aI84
aI77
aI46
aI76
aI56
aI69
aI63
aI42
aI112
aI69
aI76
aI46
aI77
aI85
aI44
aI77
aI65
aI73
aI182
aI93
aI81
aI75
aI77
aI77
aI65
aI58
aI41
asg12
g352
sg13
(lp357
I183
aI87
aI86
aI58
aI84
aI77
aI46
aI76
aI56
aI69
aI89
aI63
aI42
aI112
aI69
aI76
aI46
aI77
aI85
aI44
aI77
aI77
aI65
aI73
aI182
aI93
aI81
aI75
aI77
aI77
aI65
aI58
aI81
aI41
aI82
aI185
aI42
aI90
aI81
aI62
asg15
g308
sbssS'./Data/results_wc-6d-c1/'
p358
(dp359
S'0.08'
p360
g4
(g5
g6
Ntp361
Rp362
(dp363
g10
(lp364
I304
aI114
aI146
aI71
aI258
aI254
aI721
aI132
aI77
aI52
aI1074
aI1379
aI178
aI211
aI180
aI167
aI106
aI110
aI101
aI178
aI72
aI112
aI273
aI131
aI60
aI114
aI243
aI57
aI63
aI80
aI84
aI156
aI68
aI599
aI239
aI380
aI109
aI83
aI306
aI107
asg12
g360
sg13
(lp365
I52
aI1074
aI1379
aI178
aI211
aI180
aI167
aI106
aI110
aI101
aI304
aI178
aI72
aI112
aI273
aI131
aI60
aI114
aI243
aI57
aI63
aI114
aI80
aI84
aI156
aI68
aI599
aI239
aI380
aI109
aI83
aI306
aI146
aI107
aI71
aI258
aI254
aI721
aI132
aI77
asg15
g358
sbsS'0.2'
p366
g4
(g5
g6
Ntp367
Rp368
(dp369
g10
(lp370
I176
aI75
aI228
aI1133
aI88
aI102
aI101
aI169
aI49
aI93
aI63
aI131
aI107
aI180
aI65
aI863
aI167
aI384
aI170
aI114
aI170
aI116
aI98
aI81
aI159
aI188
aI192
aI150
aI306
aI77
aI397
aI183
aI134
aI228
aI115
aI112
aI192
aI51
aI138
aI66
asg12
g366
sg13
(lp371
I93
aI63
aI131
aI107
aI180
aI65
aI863
aI167
aI384
aI170
aI176
aI114
aI170
aI116
aI98
aI81
aI159
aI188
aI192
aI150
aI306
aI75
aI77
aI397
aI183
aI134
aI228
aI115
aI112
aI192
aI51
aI138
aI228
aI66
aI1133
aI88
aI102
aI101
aI169
aI49
asg15
g358
sbsS'0.02'
p372
g4
(g5
g6
Ntp373
Rp374
(dp375
g10
(lp376
I102
aI367
aI163
aI367
aI834
aI1493
aI1175
aI89
aI157
aI246
aI95
aI153
aI145
aI118
aI250
aI763
aI209
aI208
aI104
aI590
aI127
aI1160
aI187
aI75
aI182
aI274
aI165
aI357
aI216
aI92
aI73
aI104
aI2362
aI1116
aI420
aI103
aI1159
aI433
aI1461
aI231
asg12
g372
sg13
(lp377
I246
aI95
aI153
aI145
aI118
aI250
aI763
aI209
aI208
aI104
aI102
aI590
aI127
aI1160
aI187
aI75
aI182
aI274
aI165
aI357
aI216
aI367
aI92
aI73
aI104
aI2362
aI1116
aI420
aI103
aI1159
aI433
aI1461
aI163
aI231
aI367
aI834
aI1493
aI1175
aI89
aI157
asg15
g358
sbsS'0.3'
p378
g4
(g5
g6
Ntp379
Rp380
(dp381
g10
(lp382
I78
aI85
aI233
aI109
aI78
aI328
aI172
aI86
aI111
aI140
aI90
aI94
aI1037
aI374
aI883
aI418
aI506
aI113
aI140
aI338
aI115
aI74
aI140
aI131
aI147
aI235
aI103
aI70
aI87
aI318
aI330
aI222
aI81
aI92
aI116
aI89
aI141
aI238
aI216
aI264
asg12
g378
sg13
(lp383
I140
aI90
aI94
aI1037
aI374
aI883
aI418
aI506
aI113
aI140
aI78
aI338
aI115
aI74
aI140
aI131
aI147
aI235
aI103
aI70
aI87
aI85
aI318
aI330
aI222
aI81
aI92
aI116
aI89
aI141
aI238
aI216
aI233
aI264
aI109
aI78
aI328
aI172
aI86
aI111
asg15
g358
sbsS'0.01'
p384
g4
(g5
g6
Ntp385
Rp386
(dp387
g10
(lp388
I259
aI215
aI92
aI458
aI101
aI244
aI131
aI341
aI97
aI152
aI375
aI173
aI269
aI77
aI125
aI382
aI400
aI335
aI691
aI355
aI103
aI759
aI313
aI1730
aI128
aI146
aI80
aI203
aI590
aI190
aI458
aI184
aI115
aI170
aI198
aI148
aI988
aI587
aI99
aI957
asg12
g384
sg13
(lp389
I152
aI375
aI173
aI269
aI77
aI125
aI382
aI400
aI335
aI691
aI259
aI355
aI103
aI759
aI313
aI1730
aI128
aI146
aI80
aI203
aI590
aI215
aI190
aI458
aI184
aI115
aI170
aI198
aI148
aI988
aI587
aI99
aI92
aI957
aI458
aI101
aI244
aI131
aI341
aI97
asg15
g358
sbsS'0.04'
p390
g4
(g5
g6
Ntp391
Rp392
(dp393
g10
(lp394
I464
aI131
aI143
aI866
aI170
aI410
aI343
aI160
aI503
aI303
aI97
aI101
aI1097
aI215
aI134
aI120
aI106
aI159
aI82
aI303
aI337
aI180
aI116
aI197
aI328
aI127
aI676
aI988
aI677
aI61
aI1196
aI154
aI129
aI119
aI80
aI104
aI1645
aI136
aI180
aI1539
asg12
g390
sg13
(lp395
I303
aI97
aI101
aI1097
aI215
aI134
aI120
aI106
aI159
aI82
aI464
aI303
aI337
aI180
aI116
aI197
aI328
aI127
aI676
aI988
aI677
aI131
aI61
aI1196
aI154
aI129
aI119
aI80
aI104
aI1645
aI136
aI180
aI143
aI1539
aI866
aI170
aI410
aI343
aI160
aI503
asg15
g358
sbsS'0.16'
p396
g4
(g5
g6
Ntp397
Rp398
(dp399
g10
(lp400
I109
aI61
aI483
aI89
aI112
aI192
aI310
aI129
aI106
aI148
aI93
aI997
aI407
aI49
aI458
aI470
aI370
aI88
aI104
aI83
aI571
aI255
aI102
aI183
aI875
aI287
aI84
aI1035
aI155
aI59
aI100
aI75
aI219
aI182
aI93
aI91
aI59
aI433
aI155
aI122
asg12
g396
sg13
(lp401
I148
aI93
aI997
aI407
aI49
aI458
aI470
aI370
aI88
aI104
aI109
aI83
aI571
aI255
aI102
aI183
aI875
aI287
aI84
aI1035
aI155
aI61
aI59
aI100
aI75
aI219
aI182
aI93
aI91
aI59
aI433
aI155
aI483
aI122
aI89
aI112
aI192
aI310
aI129
aI106
asg15
g358
sbsS'0.12'
p402
g4
(g5
g6
Ntp403
Rp404
(dp405
g10
(lp406
I67
aI1069
aI75
aI110
aI121
aI63
aI145
aI307
aI100
aI144
aI857
aI316
aI178
aI70
aI974
aI110
aI296
aI1212
aI168
aI144
aI431
aI61
aI157
aI174
aI123
aI120
aI1179
aI1316
aI130
aI86
aI1291
aI110
aI84
aI243
aI98
aI125
aI111
aI630
aI651
aI93
asg12
g402
sg13
(lp407
I144
aI857
aI316
aI178
aI70
aI974
aI110
aI296
aI1212
aI168
aI67
aI144
aI431
aI61
aI157
aI174
aI123
aI120
aI1179
aI1316
aI130
aI1069
aI86
aI1291
aI110
aI84
aI243
aI98
aI125
aI111
aI630
aI651
aI75
aI93
aI110
aI121
aI63
aI145
aI307
aI100
asg15
g358
sbssS'./Data/results_noc_cm/'
p408
(dp409
S'0.08'
p410
g4
(g5
g6
Ntp411
Rp412
(dp413
g10
(lp414
I21
aI24
aI27
aI26
aI28
aI31
aI26
aI45
aI43
aI37
aI36
aI38
aI68
aI34
aI32
aI48
aI36
aI52
aI59
aI28
aI41
aI28
aI87
aI41
aI29
aI37
aI35
aI53
aI36
aI24
aI32
aI128
aI35
aI19
aI27
aI37
aI40
aI28
aI36
aI22
asg12
g410
sg13
(lp415
I37
aI36
aI38
aI68
aI34
aI32
aI48
aI36
aI52
aI59
aI21
aI28
aI41
aI28
aI87
aI41
aI29
aI37
aI35
aI53
aI36
aI24
aI24
aI32
aI128
aI35
aI19
aI27
aI37
aI40
aI28
aI36
aI27
aI22
aI26
aI28
aI31
aI26
aI45
aI43
asg15
g408
sbsS'0.2'
p416
g4
(g5
g6
Ntp417
Rp418
(dp419
g10
(lp420
I49
aI60
aI24
aI22
aI17
aI23
aI36
aI20
aI17
aI68
aI54
aI40
aI35
aI23
aI29
aI40
aI26
aI34
aI175
aI20
aI16
aI17
aI25
aI34
aI22
aI27
aI22
aI28
aI16
aI24
aI59
aI170
aI18
aI27
aI38
aI34
aI195
aI23
aI40
aI24
asg12
g416
sg13
(lp421
I68
aI54
aI40
aI35
aI23
aI29
aI40
aI26
aI34
aI175
aI49
aI20
aI16
aI17
aI25
aI34
aI22
aI27
aI22
aI28
aI16
aI60
aI24
aI59
aI170
aI18
aI27
aI38
aI34
aI195
aI23
aI40
aI24
aI24
aI22
aI17
aI23
aI36
aI20
aI17
asg15
g408
sbsS'0.02'
p422
g4
(g5
g6
Ntp423
Rp424
(dp425
g10
(lp426
I30
aI44
aI234
aI33
aI53
aI89
aI53
aI29
aI41
aI248
aI34
aI57
aI37
aI48
aI72
aI106
aI48
aI47
aI36
aI66
aI84
aI87
aI244
aI43
aI45
aI47
aI45
aI28
aI24
aI39
aI42
aI34
aI42
aI64
aI69
aI61
aI38
aI72
aI59
aI50
asg12
g422
sg13
(lp427
I248
aI34
aI57
aI37
aI48
aI72
aI106
aI48
aI47
aI36
aI30
aI66
aI84
aI87
aI244
aI43
aI45
aI47
aI45
aI28
aI24
aI44
aI39
aI42
aI34
aI42
aI64
aI69
aI61
aI38
aI72
aI59
aI234
aI50
aI33
aI53
aI89
aI53
aI29
aI41
asg15
g408
sbsS'0.3'
p428
g4
(g5
g6
Ntp429
Rp430
(dp431
g10
(lp432
I20
aI15
aI21
aI23
aI31
aI20
aI53
aI35
aI29
aI100
aI32
aI25
aI41
aI21
aI18
aI76
aI72
aI32
aI16
aI41
aI27
aI30
aI23
aI46
aI44
aI33
aI21
aI20
aI19
aI21
aI19
aI24
aI18
aI23
aI50
aI33
aI75
aI22
aI213
aI32
asg12
g428
sg13
(lp433
I100
aI32
aI25
aI41
aI21
aI18
aI76
aI72
aI32
aI16
aI20
aI41
aI27
aI30
aI23
aI46
aI44
aI33
aI21
aI20
aI19
aI15
aI21
aI19
aI24
aI18
aI23
aI50
aI33
aI75
aI22
aI213
aI21
aI32
aI23
aI31
aI20
aI53
aI35
aI29
asg15
g408
sbsS'0.01'
p434
g4
(g5
g6
Ntp435
Rp436
(dp437
g10
(lp438
I215
aI35
aI55
aI251
aI65
aI40
aI39
aI110
aI222
aI38
aI53
aI80
aI30
aI63
aI58
aI45
aI42
aI99
aI147
aI40
aI56
aI34
aI29
aI36
aI40
aI51
aI62
aI45
aI44
aI184
aI44
aI108
aI64
aI109
aI108
aI39
aI29
aI38
aI40
aI147
asg12
g434
sg13
(lp439
I38
aI53
aI80
aI30
aI63
aI58
aI45
aI42
aI99
aI147
aI215
aI40
aI56
aI34
aI29
aI36
aI40
aI51
aI62
aI45
aI44
aI35
aI184
aI44
aI108
aI64
aI109
aI108
aI39
aI29
aI38
aI40
aI55
aI147
aI251
aI65
aI40
aI39
aI110
aI222
asg15
g408
sbsS'0.04'
p440
g4
(g5
g6
Ntp441
Rp442
(dp443
g10
(lp444
I76
aI156
aI55
aI39
aI37
aI52
aI26
aI31
aI60
aI83
aI33
aI45
aI124
aI108
aI31
aI70
aI51
aI187
aI62
aI36
aI60
aI33
aI44
aI32
aI39
aI40
aI73
aI41
aI109
aI66
aI74
aI56
aI186
aI26
aI92
aI143
aI108
aI195
aI197
aI35
asg12
g440
sg13
(lp445
I83
aI33
aI45
aI124
aI108
aI31
aI70
aI51
aI187
aI62
aI76
aI36
aI60
aI33
aI44
aI32
aI39
aI40
aI73
aI41
aI109
aI156
aI66
aI74
aI56
aI186
aI26
aI92
aI143
aI108
aI195
aI197
aI55
aI35
aI39
aI37
aI52
aI26
aI31
aI60
asg15
g408
sbsS'0.16'
p446
g4
(g5
g6
Ntp447
Rp448
(dp449
g10
(lp450
I25
aI32
aI20
aI29
aI29
aI27
aI29
aI28
aI24
aI23
aI219
aI23
aI24
aI23
aI36
aI36
aI51
aI140
aI25
aI41
aI22
aI24
aI15
aI31
aI44
aI27
aI41
aI140
aI23
aI40
aI47
aI24
aI29
aI25
aI28
aI21
aI23
aI30
aI133
aI23
asg12
g446
sg13
(lp451
I23
aI219
aI23
aI24
aI23
aI36
aI36
aI51
aI140
aI25
aI25
aI41
aI22
aI24
aI15
aI31
aI44
aI27
aI41
aI140
aI23
aI32
aI40
aI47
aI24
aI29
aI25
aI28
aI21
aI23
aI30
aI133
aI20
aI23
aI29
aI29
aI27
aI29
aI28
aI24
asg15
g408
sbsS'0.12'
p452
g4
(g5
g6
Ntp453
Rp454
(dp455
g10
(lp456
I24
aI28
aI39
aI33
aI79
aI68
aI25
aI155
aI207
aI36
aI33
aI41
aI42
aI28
aI37
aI44
aI99
aI19
aI30
aI64
aI172
aI38
aI23
aI21
aI33
aI228
aI27
aI33
aI25
aI25
aI22
aI31
aI22
aI38
aI36
aI24
aI19
aI43
aI54
aI39
asg12
g452
sg13
(lp457
I36
aI33
aI41
aI42
aI28
aI37
aI44
aI99
aI19
aI30
aI24
aI64
aI172
aI38
aI23
aI21
aI33
aI228
aI27
aI33
aI25
aI28
aI25
aI22
aI31
aI22
aI38
aI36
aI24
aI19
aI43
aI54
aI39
aI39
aI33
aI79
aI68
aI25
aI155
aI207
asg15
g408
sbssS'./Data/results_llvm/'
p458
(dp459
S'0.08'
p460
g4
(g5
g6
Ntp461
Rp462
(dp463
g10
(lp464
I66
aI39
aI35
aI39
aI48
aI55
aI61
aI57
aI45
aI64
aI49
aI37
aI62
aI61
aI41
aI64
aI79
aI37
aI118
aI36
aI42
aI51
aI48
aI62
aI38
aI41
aI45
aI38
aI51
aI43
aI42
aI110
aI51
aI87
aI52
aI67
aI102
aI42
aI43
aI44
asg12
g460
sg13
(lp465
I64
aI49
aI37
aI62
aI61
aI41
aI64
aI79
aI37
aI118
aI66
aI36
aI42
aI51
aI48
aI62
aI38
aI41
aI45
aI38
aI51
aI39
aI43
aI42
aI110
aI51
aI87
aI52
aI67
aI102
aI42
aI43
aI35
aI44
aI39
aI48
aI55
aI61
aI57
aI45
asg15
g458
sbsS'0.2'
p466
g4
(g5
g6
Ntp467
Rp468
(dp469
g10
(lp470
I35
aI60
aI35
aI55
aI39
aI33
aI42
aI31
aI42
aI60
aI43
aI44
aI36
aI39
aI37
aI57
aI33
aI33
aI55
aI37
aI36
aI53
aI33
aI83
aI42
aI41
aI41
aI58
aI36
aI56
aI36
aI44
aI49
aI45
aI47
aI32
aI93
aI31
aI39
aI31
asg12
g466
sg13
(lp471
I60
aI43
aI44
aI36
aI39
aI37
aI57
aI33
aI33
aI55
aI35
aI37
aI36
aI53
aI33
aI83
aI42
aI41
aI41
aI58
aI36
aI60
aI56
aI36
aI44
aI49
aI45
aI47
aI32
aI93
aI31
aI39
aI35
aI31
aI55
aI39
aI33
aI42
aI31
aI42
asg15
g458
sbsS'0.02'
p472
g4
(g5
g6
Ntp473
Rp474
(dp475
g10
(lp476
I52
aI75
aI324
aI108
aI52
aI35
aI59
aI87
aI164
aI60
aI125
aI40
aI147
aI94
aI62
aI128
aI88
aI85
aI60
aI74
aI81
aI60
aI65
aI173
aI56
aI103
aI55
aI508
aI73
aI68
aI48
aI48
aI107
aI58
aI68
aI56
aI102
aI188
aI91
aI43
asg12
g472
sg13
(lp477
I60
aI125
aI40
aI147
aI94
aI62
aI128
aI88
aI85
aI60
aI52
aI74
aI81
aI60
aI65
aI173
aI56
aI103
aI55
aI508
aI73
aI75
aI68
aI48
aI48
aI107
aI58
aI68
aI56
aI102
aI188
aI91
aI324
aI43
aI108
aI52
aI35
aI59
aI87
aI164
asg15
g458
sbsS'0.3'
p478
g4
(g5
g6
Ntp479
Rp480
(dp481
g10
(lp482
I32
aI33
aI35
aI37
aI31
aI34
aI38
aI34
aI34
aI31
aI35
aI31
aI124
aI34
aI32
aI94
aI35
aI37
aI31
aI30
aI40
aI87
aI30
aI61
aI47
aI75
aI51
aI43
aI32
aI32
aI34
aI47
aI35
aI51
aI63
aI36
aI38
aI34
aI38
aI35
asg12
g478
sg13
(lp483
I31
aI35
aI31
aI124
aI34
aI32
aI94
aI35
aI37
aI31
aI32
aI30
aI40
aI87
aI30
aI61
aI47
aI75
aI51
aI43
aI32
aI33
aI32
aI34
aI47
aI35
aI51
aI63
aI36
aI38
aI34
aI38
aI35
aI35
aI37
aI31
aI34
aI38
aI34
aI34
asg15
g458
sbsS'0.01'
p484
g4
(g5
g6
Ntp485
Rp486
(dp487
g10
(lp488
I81
aI102
aI55
aI65
aI110
aI318
aI468
aI52
aI57
aI42
aI56
aI54
aI58
aI81
aI116
aI60
aI87
aI61
aI67
aI42
aI58
aI42
aI68
aI48
aI289
aI58
aI107
aI101
aI96
aI120
aI62
aI98
aI62
aI69
aI46
aI91
aI71
aI159
aI79
aI73
asg12
g484
sg13
(lp489
I42
aI56
aI54
aI58
aI81
aI116
aI60
aI87
aI61
aI67
aI81
aI42
aI58
aI42
aI68
aI48
aI289
aI58
aI107
aI101
aI96
aI102
aI120
aI62
aI98
aI62
aI69
aI46
aI91
aI71
aI159
aI79
aI55
aI73
aI65
aI110
aI318
aI468
aI52
aI57
asg15
g458
sbsS'0.04'
p490
g4
(g5
g6
Ntp491
Rp492
(dp493
g10
(lp494
I72
aI48
aI55
aI49
aI78
aI39
aI52
aI85
aI144
aI72
aI65
aI93
aI59
aI65
aI547
aI69
aI431
aI73
aI56
aI56
aI77
aI80
aI52
aI70
aI96
aI62
aI95
aI100
aI62
aI527
aI65
aI86
aI51
aI74
aI50
aI138
aI81
aI45
aI54
aI48
asg12
g490
sg13
(lp495
I72
aI65
aI93
aI59
aI65
aI547
aI69
aI431
aI73
aI56
aI72
aI56
aI77
aI80
aI52
aI70
aI96
aI62
aI95
aI100
aI62
aI48
aI527
aI65
aI86
aI51
aI74
aI50
aI138
aI81
aI45
aI54
aI55
aI48
aI49
aI78
aI39
aI52
aI85
aI144
asg15
g458
sbsS'0.16'
p496
g4
(g5
g6
Ntp497
Rp498
(dp499
g10
(lp500
I43
aI51
aI54
aI44
aI41
aI32
aI35
aI44
aI35
aI42
aI37
aI34
aI31
aI48
aI32
aI35
aI53
aI68
aI39
aI58
aI58
aI37
aI387
aI39
aI40
aI36
aI42
aI42
aI57
aI39
aI64
aI57
aI38
aI33
aI38
aI40
aI40
aI67
aI44
aI63
asg12
g496
sg13
(lp501
I42
aI37
aI34
aI31
aI48
aI32
aI35
aI53
aI68
aI39
aI43
aI58
aI58
aI37
aI387
aI39
aI40
aI36
aI42
aI42
aI57
aI51
aI39
aI64
aI57
aI38
aI33
aI38
aI40
aI40
aI67
aI44
aI54
aI63
aI44
aI41
aI32
aI35
aI44
aI35
asg15
g458
sbsS'0.12'
p502
g4
(g5
g6
Ntp503
Rp504
(dp505
g10
(lp506
I51
aI39
aI60
aI483
aI35
aI38
aI43
aI40
aI47
aI62
aI33
aI38
aI42
aI48
aI57
aI40
aI42
aI40
aI36
aI51
aI42
aI154
aI33
aI37
aI45
aI46
aI43
aI60
aI50
aI41
aI86
aI39
aI37
aI52
aI39
aI60
aI40
aI76
aI42
aI55
asg12
g502
sg13
(lp507
I62
aI33
aI38
aI42
aI48
aI57
aI40
aI42
aI40
aI36
aI51
aI51
aI42
aI154
aI33
aI37
aI45
aI46
aI43
aI60
aI50
aI39
aI41
aI86
aI39
aI37
aI52
aI39
aI60
aI40
aI76
aI42
aI60
aI55
aI483
aI35
aI38
aI43
aI40
aI47
asg15
g458
sbssS'./Data/results_rs-6d-c3/'
p508
(dp509
S'0.08'
p510
g4
(g5
g6
Ntp511
Rp512
(dp513
g10
(lp514
I39
aI36
aI105
aI30
aI47
aI57
aI39
aI82
aI30
aI73
aI76
aI83
aI42
aI77
aI36
aI39
aI47
aI68
aI90
aI109
aI88
aI42
aI59
aI37
aI68
aI251
aI88
aI39
aI84
aI56
aI49
aI48
aI30
aI30
aI70
aI101
aI31
aI52
aI61
aI42
asg12
g510
sg13
(lp515
I73
aI76
aI83
aI42
aI77
aI36
aI39
aI47
aI68
aI90
aI39
aI109
aI88
aI42
aI59
aI37
aI68
aI251
aI88
aI39
aI84
aI36
aI56
aI49
aI48
aI30
aI30
aI70
aI101
aI31
aI52
aI61
aI105
aI42
aI30
aI47
aI57
aI39
aI82
aI30
asg15
g508
sbsS'0.2'
p516
g4
(g5
g6
Ntp517
Rp518
(dp519
g10
(lp520
I31
aI30
aI31
aI55
aI30
aI31
aI44
aI30
aI39
aI31
aI30
aI30
aI30
aI30
aI30
aI825
aI30
aI30
aI30
aI30
aI31
aI30
aI30
aI30
aI136
aI30
aI30
aI30
aI44
aI30
aI31
aI30
aI33
aI31
aI31
aI30
aI30
aI31
aI82
aI30
asg12
g516
sg13
(lp521
I31
aI30
aI30
aI30
aI30
aI30
aI825
aI30
aI30
aI30
aI31
aI30
aI31
aI30
aI30
aI30
aI136
aI30
aI30
aI30
aI44
aI30
aI30
aI31
aI30
aI33
aI31
aI31
aI30
aI30
aI31
aI82
aI31
aI30
aI55
aI30
aI31
aI44
aI30
aI39
asg15
g508
sbsS'0.02'
p522
g4
(g5
g6
Ntp523
Rp524
(dp525
g10
(lp526
I103
aI207
aI234
aI187
aI139
aI50
aI126
aI85
aI145
aI142
aI943
aI149
aI189
aI143
aI165
aI193
aI262
aI142
aI98
aI266
aI154
aI89
aI272
aI185
aI371
aI311
aI50
aI124
aI91
aI98
aI124
aI144
aI141
aI233
aI76
aI123
aI263
aI82
aI101
aI108
asg12
g522
sg13
(lp527
I142
aI943
aI149
aI189
aI143
aI165
aI193
aI262
aI142
aI98
aI103
aI266
aI46
aI89
aI272
aI185
aI371
aI311
aI50
aI124
aI91
aI207
aI98
aI124
aI144
aI141
aI233
aI76
aI123
aI263
aI82
aI101
aI234
aI108
aI187
aI139
aI50
aI126
aI85
aI145
asg15
g508
sbsS'0.3'
p528
g4
(g5
g6
Ntp529
Rp530
(dp531
g10
(lp532
I30
aI30
aI42
aI31
aI30
aI30
aI30
aI30
aI30
aI30
aI41
aI30
aI30
aI30
aI30
aI30
aI30
aI30
aI30
aI30
aI30
aI30
aI30
aI30
aI30
aI30
aI30
aI30
aI30
aI30
aI30
aI30
aI30
aI30
aI30
aI30
aI30
aI30
aI30
aI30
asg12
g528
sg13
(lp533
I30
aI41
aI30
aI30
aI30
aI30
aI30
aI30
aI30
aI30
aI30
aI30
aI30
aI30
aI30
aI30
aI30
aI30
aI30
aI30
aI30
aI30
aI30
aI30
aI30
aI30
aI30
aI30
aI30
aI30
aI30
aI30
aI42
aI30
aI31
aI30
aI30
aI30
aI30
aI30
asg15
g508
sbsS'0.01'
p534
g4
(g5
g6
Ntp535
Rp536
(dp537
g10
(lp538
I263
aI310
aI199
aI261
aI64
aI78
aI176
aI197
aI322
aI63
aI132
aI292
aI100
aI199
aI345
aI157
aI366
aI143
aI68
aI86
aI118
aI187
aI154
aI258
aI558
aI72
aI176
aI207
aI185
aI89
aI501
aI392
aI330
aI216
aI90
aI144
aI196
aI148
aI283
aI135
asg12
g534
sg13
(lp539
I63
aI132
aI292
aI100
aI199
aI345
aI157
aI366
aI143
aI68
aI263
aI86
aI118
aI187
aI154
aI258
aI558
aI72
aI176
aI207
aI185
aI310
aI89
aI501
aI392
aI330
aI216
aI90
aI144
aI196
aI148
aI283
aI199
aI135
aI261
aI64
aI78
aI176
aI197
aI322
asg15
g508
sbsS'0.04'
p540
g4
(g5
g6
Ntp541
Rp542
(dp543
g10
(lp544
I91
aI99
aI121
aI332
aI191
aI1033
aI67
aI145
aI113
aI79
aI200
aI87
aI153
aI362
aI168
aI106
aI71
aI59
aI83
aI31
aI144
aI117
aI63
aI132
aI109
aI175
aI141
aI84
aI65
aI159
aI53
aI198
aI105
aI201
aI79
aI259
aI123
aI100
aI60
aI32
asg12
g540
sg13
(lp545
I79
aI200
aI87
aI153
aI362
aI168
aI106
aI71
aI59
aI83
aI91
aI31
aI38
aI117
aI63
aI132
aI109
aI175
aI141
aI84
aI65
aI99
aI159
aI53
aI198
aI105
aI201
aI79
aI259
aI123
aI100
aI60
aI121
aI32
aI332
aI191
aI1033
aI67
aI145
aI113
asg15
g508
sbsS'0.16'
p546
g4
(g5
g6
Ntp547
Rp548
(dp549
g10
(lp550
I982
aI30
aI30
aI32
aI31
aI30
aI30
aI30
aI32
aI32
aI33
aI32
aI31
aI38
aI30
aI32
aI31
aI30
aI30
aI31
aI33
aI30
aI31
aI31
aI31
aI30
aI31
aI31
aI31
aI30
aI67
aI30
aI32
aI36
aI30
aI32
aI30
aI30
aI30
aI32
asg12
g546
sg13
(lp551
I32
aI33
aI32
aI31
aI38
aI30
aI32
aI31
aI30
aI30
aI982
aI31
aI33
aI30
aI31
aI31
aI31
aI30
aI31
aI31
aI31
aI30
aI30
aI67
aI30
aI32
aI36
aI30
aI32
aI30
aI30
aI30
aI30
aI32
aI32
aI31
aI30
aI30
aI30
aI32
asg15
g508
sbsS'0.12'
p552
g4
(g5
g6
Ntp553
Rp554
(dp555
g10
(lp556
I33
aI46
aI47
aI37
aI45
aI46
aI57
aI36
aI37
aI30
aI40
aI30
aI34
aI52
aI42
aI1029
aI1029
aI30
aI37
aI107
aI35
aI39
aI50
aI37
aI30
aI31
aI41
aI658
aI64
aI46
aI35
aI49
aI33
aI30
aI41
aI47
aI59
aI30
aI39
aI30
asg12
g552
sg13
(lp557
I30
aI40
aI30
aI34
aI52
aI42
aI1029
aI1029
aI30
aI37
aI33
aI107
aI35
aI39
aI50
aI37
aI30
aI31
aI41
aI658
aI64
aI46
aI46
aI35
aI49
aI33
aI30
aI41
aI47
aI59
aI30
aI39
aI47
aI30
aI37
aI45
aI46
aI57
aI36
aI37
asg15
g508
sbssS'./Data/results_sort_256/'
p558
(dp559
S'0.08'
p560
g4
(g5
g6
Ntp561
Rp562
(dp563
g10
(lp564
I37
aI36
aI36
aI34
aI50
aI113
aI42
aI76
aI39
aI51
aI33
aI52
aI43
aI90
aI33
aI48
aI34
aI72
aI64
aI36
aI29
aI30
aI58
aI109
aI110
aI51
aI34
aI137
aI60
aI61
aI42
aI100
aI34
aI63
aI64
aI75
aI39
aI38
aI95
aI54
asg12
g560
sg13
(lp565
I51
aI33
aI52
aI43
aI90
aI33
aI48
aI34
aI72
aI64
aI37
aI36
aI29
aI30
aI58
aI109
aI110
aI51
aI34
aI137
aI60
aI36
aI61
aI42
aI100
aI34
aI63
aI64
aI75
aI39
aI38
aI95
aI36
aI54
aI34
aI50
aI113
aI42
aI76
aI39
asg15
g558
sbsS'0.2'
p566
g4
(g5
g6
Ntp567
Rp568
(dp569
g10
(lp570
I31
aI36
aI28
aI21
aI24
aI31
aI23
aI31
aI21
aI24
aI25
aI21
aI27
aI34
aI70
aI31
aI27
aI26
aI33
aI26
aI76
aI33
aI27
aI23
aI24
aI31
aI42
aI24
aI25
aI25
aI32
aI21
aI19
aI36
aI28
aI29
aI24
aI29
aI23
aI38
asg12
g566
sg13
(lp571
I24
aI25
aI21
aI27
aI34
aI70
aI31
aI27
aI26
aI33
aI31
aI26
aI76
aI33
aI27
aI23
aI24
aI31
aI42
aI24
aI25
aI36
aI25
aI32
aI21
aI19
aI36
aI28
aI29
aI24
aI29
aI23
aI28
aI38
aI21
aI24
aI31
aI23
aI31
aI21
asg15
g558
sbsS'0.02'
p572
g4
(g5
g6
Ntp573
Rp574
(dp575
g10
(lp576
I64
aI120
aI63
aI142
aI85
aI62
aI109
aI89
aI67
aI47
aI114
aI62
aI93
aI86
aI62
aI41
aI47
aI41
aI68
aI57
aI193
aI78
aI135
aI77
aI43
aI54
aI58
aI67
aI68
aI68
aI101
aI89
aI72
aI118
aI87
aI70
aI112
aI127
aI94
aI77
asg12
g572
sg13
(lp577
I47
aI114
aI62
aI93
aI86
aI62
aI41
aI47
aI41
aI68
aI64
aI57
aI193
aI78
aI135
aI77
aI43
aI54
aI58
aI67
aI68
aI120
aI68
aI101
aI89
aI72
aI118
aI87
aI70
aI112
aI127
aI94
aI63
aI77
aI142
aI85
aI62
aI109
aI89
aI67
asg15
g558
sbsS'0.3'
p578
g4
(g5
g6
Ntp579
Rp580
(dp581
g10
(lp582
I24
aI20
aI26
aI20
aI24
aI24
aI18
aI19
aI23
aI26
aI16
aI20
aI25
aI20
aI25
aI25
aI19
aI20
aI19
aI24
aI17
aI20
aI27
aI18
aI20
aI21
aI32
aI19
aI20
aI17
aI35
aI19
aI26
aI27
aI18
aI20
aI20
aI21
aI20
aI20
asg12
g578
sg13
(lp583
I26
aI16
aI20
aI25
aI20
aI25
aI25
aI19
aI20
aI19
aI24
aI24
aI17
aI20
aI27
aI18
aI20
aI21
aI32
aI19
aI20
aI20
aI17
aI35
aI19
aI26
aI27
aI18
aI20
aI20
aI21
aI20
aI26
aI20
aI20
aI24
aI24
aI18
aI19
aI23
asg15
g558
sbsS'0.01'
p584
g4
(g5
g6
Ntp585
Rp586
(dp587
g10
(lp588
I92
aI83
aI70
aI101
aI71
aI83
aI57
aI42
aI92
aI158
aI81
aI48
aI53
aI129
aI58
aI89
aI71
aI61
aI122
aI125
aI206
aI123
aI64
aI63
aI114
aI119
aI86
aI137
aI75
aI143
aI51
aI82
aI141
aI58
aI68
aI79
aI104
aI101
aI92
aI112
asg12
g584
sg13
(lp589
I158
aI81
aI48
aI53
aI129
aI58
aI89
aI71
aI61
aI122
aI92
aI125
aI206
aI123
aI64
aI63
aI114
aI119
aI86
aI137
aI75
aI83
aI143
aI51
aI82
aI141
aI58
aI68
aI79
aI104
aI101
aI92
aI70
aI112
aI101
aI71
aI83
aI57
aI42
aI92
asg15
g558
sbsS'0.04'
p590
g4
(g5
g6
Ntp591
Rp592
(dp593
g10
(lp594
I68
aI46
aI52
aI38
aI73
aI83
aI87
aI83
aI90
aI71
aI68
aI81
aI40
aI46
aI70
aI46
aI83
aI64
aI45
aI33
aI117
aI124
aI43
aI46
aI82
aI74
aI43
aI159
aI57
aI63
aI67
aI68
aI37
aI49
aI46
aI43
aI87
aI44
aI36
aI68
asg12
g590
sg13
(lp595
I71
aI68
aI81
aI40
aI46
aI70
aI46
aI83
aI64
aI45
aI68
aI33
aI117
aI124
aI43
aI46
aI82
aI74
aI43
aI159
aI57
aI46
aI63
aI67
aI68
aI37
aI49
aI46
aI43
aI87
aI44
aI36
aI52
aI68
aI38
aI73
aI83
aI87
aI83
aI90
asg15
g558
sbsS'0.16'
p596
g4
(g5
g6
Ntp597
Rp598
(dp599
g10
(lp600
I35
aI40
aI53
aI24
aI33
aI45
aI44
aI28
aI47
aI29
aI20
aI35
aI29
aI35
aI23
aI29
aI44
aI29
aI28
aI36
aI28
aI25
aI44
aI45
aI37
aI43
aI30
aI45
aI29
aI27
aI50
aI23
aI38
aI24
aI25
aI29
aI22
aI48
aI31
aI20
asg12
g596
sg13
(lp601
I29
aI20
aI35
aI29
aI35
aI23
aI29
aI44
aI29
aI28
aI35
aI36
aI28
aI25
aI44
aI45
aI37
aI43
aI30
aI45
aI29
aI40
aI27
aI50
aI23
aI38
aI24
aI25
aI29
aI22
aI48
aI31
aI53
aI20
aI24
aI33
aI45
aI44
aI28
aI47
asg15
g558
sbsS'0.12'
p602
g4
(g5
g6
Ntp603
Rp604
(dp605
g10
(lp606
I35
aI27
aI40
aI57
aI37
aI105
aI33
aI32
aI39
aI33
aI23
aI44
aI138
aI34
aI37
aI29
aI51
aI28
aI39
aI55
aI48
aI31
aI58
aI89
aI36
aI32
aI40
aI35
aI41
aI32
aI30
aI25
aI37
aI42
aI27
aI23
aI32
aI40
aI28
aI28
asg12
g602
sg13
(lp607
I33
aI23
aI44
aI138
aI34
aI37
aI29
aI51
aI28
aI39
aI35
aI55
aI48
aI31
aI58
aI89
aI36
aI32
aI40
aI35
aI41
aI27
aI32
aI30
aI25
aI37
aI42
aI27
aI23
aI32
aI40
aI28
aI40
aI28
aI57
aI37
aI105
aI33
aI32
aI39
asg15
g558
sbssS'./Data/results_wc-5d-c5/'
p608
(dp609
S'0.08'
p610
g4
(g5
g6
Ntp611
Rp612
(dp613
g10
(lp614
I39
aI35
aI36
aI30
aI33
aI33
aI32
aI31
aI36
aI30
aI33
aI43
aI35
aI34
aI30
aI32
aI34
aI30
aI39
aI32
aI37
aI32
aI33
aI38
aI32
aI30
aI32
aI39
aI34
aI43
aI31
aI38
aI31
aI33
aI31
aI30
aI36
aI32
aI31
aI32
asg12
g610
sg13
(lp615
I30
aI33
aI43
aI35
aI34
aI30
aI32
aI34
aI30
aI39
aI39
aI32
aI37
aI32
aI33
aI38
aI32
aI30
aI32
aI39
aI34
aI35
aI43
aI31
aI38
aI31
aI33
aI31
aI30
aI36
aI32
aI31
aI36
aI32
aI30
aI33
aI33
aI32
aI31
aI36
asg15
g608
sbsS'0.2'
p616
g4
(g5
g6
Ntp617
Rp618
(dp619
g10
(lp620
I30
aI32
aI31
aI31
aI33
aI30
aI32
aI32
aI34
aI30
aI31
aI30
aI30
aI31
aI30
aI33
aI30
aI31
aI30
aI31
aI30
aI30
aI30
aI30
aI30
aI30
aI32
aI31
aI30
aI32
aI32
aI31
aI31
aI30
aI30
aI31
aI30
aI31
aI31
aI32
asg12
g616
sg13
(lp621
I30
aI31
aI30
aI30
aI31
aI30
aI33
aI30
aI31
aI30
aI30
aI31
aI30
aI30
aI30
aI30
aI30
aI30
aI32
aI31
aI30
aI32
aI32
aI32
aI31
aI31
aI30
aI30
aI31
aI30
aI31
aI31
aI31
aI32
aI31
aI33
aI30
aI32
aI32
aI34
asg15
g608
sbsS'0.02'
p622
g4
(g5
g6
Ntp623
Rp624
(dp625
g10
(lp626
I32
aI34
aI39
aI38
aI34
aI35
aI35
aI35
aI35
aI46
aI32
aI40
aI36
aI51
aI85
aI54
aI35
aI57
aI51
aI35
aI44
aI37
aI34
aI33
aI41
aI33
aI43
aI34
aI32
aI32
aI38
aI44
aI72
aI34
aI33
aI35
aI74
aI48
aI48
aI34
asg12
g622
sg13
(lp627
I46
aI32
aI40
aI36
aI51
aI85
aI54
aI35
aI57
aI51
aI32
aI35
aI44
aI37
aI34
aI33
aI41
aI33
aI43
aI34
aI32
aI34
aI32
aI38
aI44
aI72
aI34
aI33
aI35
aI74
aI48
aI48
aI39
aI34
aI38
aI34
aI35
aI35
aI35
aI35
asg15
g608
sbsS'0.3'
p628
g4
(g5
g6
Ntp629
Rp630
(dp631
g10
(lp632
I30
aI30
aI30
aI31
aI30
aI32
aI30
aI31
aI30
aI30
aI30
aI31
aI30
aI30
aI30
aI31
aI31
aI30
aI30
aI30
aI30
aI31
aI30
aI30
aI30
aI30
aI30
aI33
aI30
aI31
aI30
aI30
aI32
aI30
aI30
aI30
aI30
aI34
aI30
aI30
asg12
g628
sg13
(lp633
I30
aI30
aI31
aI30
aI30
aI30
aI31
aI31
aI30
aI30
aI30
aI30
aI30
aI31
aI30
aI30
aI30
aI30
aI30
aI33
aI30
aI30
aI31
aI30
aI30
aI32
aI30
aI30
aI30
aI30
aI34
aI30
aI30
aI30
aI31
aI30
aI32
aI30
aI31
aI30
asg15
g608
sbsS'0.01'
p634
g4
(g5
g6
Ntp635
Rp636
(dp637
g10
(lp638
I47
aI42
aI61
aI92
aI51
aI33
aI48
aI90
aI82
aI79
aI33
aI100
aI48
aI43
aI34
aI59
aI31
aI44
aI33
aI35
aI60
aI61
aI34
aI32
aI35
aI65
aI92
aI42
aI33
aI46
aI34
aI35
aI63
aI92
aI56
aI52
aI59
aI85
aI38
aI55
asg12
g634
sg13
(lp639
I79
aI33
aI100
aI48
aI43
aI34
aI59
aI31
aI44
aI33
aI47
aI35
aI60
aI61
aI34
aI32
aI35
aI65
aI92
aI42
aI33
aI42
aI46
aI34
aI35
aI63
aI92
aI56
aI52
aI59
aI85
aI38
aI61
aI55
aI92
aI51
aI33
aI48
aI90
aI82
asg15
g608
sbsS'0.04'
p640
g4
(g5
g6
Ntp641
Rp642
(dp643
g10
(lp644
I35
aI30
aI47
aI43
aI52
aI42
aI44
aI33
aI33
aI39
aI37
aI32
aI38
aI33
aI70
aI35
aI37
aI47
aI33
aI35
aI35
aI34
aI34
aI35
aI43
aI51
aI34
aI41
aI36
aI33
aI36
aI33
aI33
aI34
aI37
aI33
aI34
aI32
aI78
aI51
asg12
g640
sg13
(lp645
I39
aI37
aI32
aI38
aI33
aI70
aI35
aI37
aI47
aI33
aI35
aI35
aI35
aI34
aI34
aI35
aI43
aI51
aI34
aI41
aI36
aI30
aI33
aI36
aI33
aI33
aI34
aI37
aI33
aI34
aI32
aI78
aI47
aI51
aI43
aI52
aI42
aI44
aI33
aI33
asg15
g608
sbsS'0.16'
p646
g4
(g5
g6
Ntp647
Rp648
(dp649
g10
(lp650
I31
aI30
aI32
aI32
aI30
aI31
aI30
aI30
aI31
aI32
aI30
aI32
aI31
aI31
aI31
aI31
aI33
aI30
aI31
aI32
aI31
aI32
aI30
aI33
aI31
aI34
aI32
aI31
aI30
aI30
aI31
aI30
aI33
aI33
aI30
aI31
aI32
aI30
aI30
aI33
asg12
g646
sg13
(lp651
I32
aI30
aI32
aI31
aI31
aI31
aI31
aI33
aI30
aI31
aI31
aI32
aI31
aI32
aI30
aI33
aI31
aI34
aI32
aI31
aI30
aI30
aI30
aI31
aI30
aI33
aI33
aI30
aI31
aI32
aI30
aI30
aI32
aI33
aI32
aI30
aI31
aI30
aI30
aI31
asg15
g608
sbsS'0.12'
p652
g4
(g5
g6
Ntp653
Rp654
(dp655
g10
(lp656
I30
aI33
aI32
aI39
aI33
aI38
aI31
aI33
aI31
aI32
aI32
aI40
aI30
aI34
aI32
aI31
aI30
aI31
aI30
aI34
aI31
aI30
aI35
aI33
aI34
aI32
aI32
aI30
aI30
aI30
aI37
aI33
aI34
aI33
aI30
aI32
aI32
aI30
aI30
aI33
asg12
g652
sg13
(lp657
I32
aI32
aI40
aI30
aI34
aI32
aI31
aI30
aI31
aI30
aI30
aI34
aI31
aI30
aI35
aI33
aI34
aI32
aI32
aI30
aI30
aI33
aI30
aI37
aI33
aI34
aI33
aI30
aI32
aI32
aI30
aI30
aI32
aI33
aI39
aI33
aI38
aI31
aI33
aI31
asg15
g608
sbss.