(dp0
S'./Data/POM3C.csv'
p1
(dp2
S'evals'
p3
(lp4
I103
asS'igd'
p5
(lp6
cnumpy.core.multiarray
scalar
p7
(cnumpy
dtype
p8
(S'f8'
p9
I0
I1
tp10
Rp11
(I3
S'<'
p12
NNNI-1
I-1
I0
tp13
bS'\xe3\x1b\xb5\x1b\xafD\x90?'
p14
tp15
Rp16
asS'gen_dist'
p17
(lp18
g7
(g11
S'Gy\x8e\x96^\x86\xa7?'
p19
tp20
Rp21
ass.