(dp0
S'./Data/xomo_flight.csv'
p1
(dp2
S'evals'
p3
(lp4
I103
asS'igd'
p5
(lp6
cnumpy.core.multiarray
scalar
p7
(cnumpy
dtype
p8
(S'f8'
p9
I0
I1
tp10
Rp11
(I3
S'<'
p12
NNNI-1
I-1
I0
tp13
bS'7\xa6\x0e5\xbc\xa5v?'
p14
tp15
Rp16
asS'gen_dist'
p17
(lp18
g7
(g11
S'9\xc1\xe7_\xc0`\xc0?'
p19
tp20
Rp21
ass.