(dp0
S'./Data/sort_256.csv'
p1
(dp2
S'pf'
p3
(lp4
(lp5
F15.39590226
aF14.71664238
aa(lp6
F15.48733762
aF14.60766939
aa(lp7
F15.56718368
aF13.49537757
aa(lp8
F15.762459900000001
aF12.82026986
aa(lp9
F16.24881706
aF12.12185067
aass.