(dp0
S'./Data/wc+sol-3d-c4.csv'
p1
(dp2
S'pf'
p3
(lp4
(lp5
F4850.4
aF2.1844
aa(lp6
F4869.9
aF2.2345
aa(lp7
F18604.0
aF5.2717
aa(lp8
F18656.0
aF5.6942
aa(lp9
F18872.0
aF5.704
aa(lp10
F19215.0
aF5.9139
aa(lp11
F23470.0
aF35.825
aa(lp12
F23940.0
aF35.91
aa(lp13
F28395.0
aF36.861
aa(lp14
F28405.0
aF38.097
aa(lp15
F35508.0
aF330.13
aa(lp16
F36125.0
aF46551.0
aa(lp17
F61403.0
aF52488.0
aa(lp18
F63734.0
aF71418.0
aassS'./Data/wc-c3-3d-c1.csv'
p19
(dp20
g3
(lp21
(lp22
F10871.0
aF247.45
aa(lp23
F11930.0
aF250.78
aassS'./Data/x264-DB_4_5.csv'
p24
(dp25
g3
(lp26
(lp27
F0.0
aF0.0
aa(lp28
F0.0
aF0.0
aa(lp29
F0.0
aF0.0
aa(lp30
F0.0
aF0.0
aassS'./Data/sort_256.csv'
p31
(dp32
g3
(lp33
(lp34
F15.39590226
aF14.71664238
aa(lp35
F15.48733762
aF14.60766939
aa(lp36
F15.56718368
aF13.49537757
aa(lp37
F15.762459900000001
aF12.82026986
aa(lp38
F16.24881706
aF12.12185067
aassS'./Data/x264-DB_1_2.csv'
p39
(dp40
g3
(lp41
(lp42
F15.892000000000001
aF0.0
aassS'./Data/wc-c1-3d-c1.csv'
p43
(dp44
g3
(lp45
(lp46
F22124.0
aF148.88
aa(lp47
F22799.0
aF156.83
aa(lp48
F23075.0
aF158.68
aassS'./Data/x264-DB_5_6.csv'
p49
(dp50
g3
(lp51
(lp52
F0.0
aF31.2
aa(lp53
F117.375
aF10.72
aa(lp54
F135.2333333
aF10.71
aa(lp55
F136.6
aF9.31
aa(lp56
F144.25
aF9.14
aa(lp57
F146.65
aF8.9
aassS'./Data/TriMesh_1_2.csv'
p58
(dp59
g3
(lp60
(lp61
F3.0
aF32.96
aassS'./Data/x264-DB_3_4.csv'
p62
(dp63
g3
(lp64
(lp65
F0.642351
aF0.0
aassS'./Data/TriMesh_2_3.csv'
p66
(dp67
g3
(lp68
(lp69
F32.96
aF10.98666667
aa(lp70
F34.053000000000004
aF6.8106
aa(lp71
F38.841
aF4.855125
aa(lp72
F43.31100000000001
aF4.812333333
aa(lp73
F57.602
aF4.800166667
aa(lp74
F61.895
aF4.126333333
aa(lp75
F65.898
aF4.118625
aa(lp76
F69.946
aF4.1144705880000005
aa(lp77
F73.957
aF4.108722222
aa(lp78
F77.938
aF4.102
aa(lp79
F81.738
aF4.0869
aa(lp80
F85.79899999999999
aF4.085666667
aa(lp81
F89.71799999999999
aF4.078090909
aa(lp82
F101.921
aF4.07684
aa(lp83
F134.244
aF4.0680000000000005
aa(lp84
F166.46
aF4.06
aa(lp85
F170.475
aF4.058928571
aa(lp86
F234.93900000000002
aF4.050672414
aa(lp87
F238.97
aF4.0503389830000005
aa(lp88
F254.838
aF4.045047619
aa(lp89
F355.11800000000005
aF4.035431818
aassS'./Data/wc+wc-3d-c4.csv'
p90
(dp91
g3
(lp92
(lp93
F5151.0
aF2.0815
aa(lp94
F19528.0
aF4.9185
aa(lp95
F20066.0
aF5.0202
aa(lp96
F20089.0
aF5.2988
aa(lp97
F20233.0
aF5.7734
aa(lp98
F23675.0
aF32.286
aa(lp99
F25565.0
aF39.446999999999996
aa(lp100
F26373.0
aF40.169000000000004
aa(lp101
F26596.0
aF273.88
aa(lp102
F33549.0
aF321.53
aa(lp103
F35418.0
aF3138.8
aa(lp104
F36900.0
aF17797.0
aa(lp105
F41829.0
aF24516.0
aa(lp106
F41953.0
aF36772.0
aa(lp107
F65823.0
aF46988.0
aassS'./Data/x264-DB_2_3.csv'
p108
(dp109
g3
(lp110
(lp111
F0.0
aF0.642351
aassS'./Data/wc-6d-c1.csv'
p112
(dp113
g3
(lp114
(lp115
F2906.1
aF3.3172
aa(lp116
F3022.4
aF3.3911
aa(lp117
F3070.8
aF3.3944
aa(lp118
F5400.1
aF3.714
aa(lp119
F7452.7
aF4.0717
aa(lp120
F7720.8
aF4.1567
aa(lp121
F10600.0
aF5.8378
aa(lp122
F10890.0
aF5.9394
aa(lp123
F12951.0
aF7.4564
aa(lp124
F13260.0
aF7.6618
aa(lp125
F13513.0
aF7.7715
aa(lp126
F13519.0
aF7.825
aa(lp127
F13699.0
aF7.8794
aa(lp128
F14299.0
aF7.907
aa(lp129
F18199.0
aF17.336
aa(lp130
F18617.0
aF17.469
aa(lp131
F19217.0
aF17.840999999999998
aa(lp132
F19542.0
aF18.180999999999997
aa(lp133
F19597.0
aF18.542
aa(lp134
F22829.0
aF45.261
aa(lp135
F30962.0
aF1087.6
aa(lp136
F34740.0
aF1130.6
aassS'./Data/wc+rs-3d-c4.csv'
p137
(dp138
g3
(lp139
(lp140
F5591.7
aF1.9243
aa(lp141
F20995.0
aF4.3988
aa(lp142
F22447.0
aF4.7671
aa(lp143
F25682.0
aF29.726999999999997
aa(lp144
F33784.0
aF32.883
aa(lp145
F38350.0
aF294.81
aa(lp146
F38846.0
aF299.2
aa(lp147
F72394.0
aF58477.0
aassS'./Data/wc-5d-c5.csv'
p148
(dp149
g3
(lp150
(lp151
F20591.0
aF47.387
aassS'./Data/wc-3d-c4.csv'
p152
(dp153
g3
(lp154
(lp155
F7990.6
aF1.2994
aa(lp156
F34466.0
aF2.9167
aa(lp157
F57293.0
aF15.94
aa(lp158
F57972.0
aF16.279
aa(lp159
F63510.0
aF116.06
aa(lp160
F66556.0
aF117.56
aa(lp161
F69097.0
aF127.68
aa(lp162
F70644.0
aF142.51
aa(lp163
F72028.0
aF364.41
aa(lp164
F72768.0
aF390.52
aa(lp165
F76190.0
aF789.55
aa(lp166
F79489.0
aF1165.2
aa(lp167
F81320.0
aF10245.0
aa(lp168
F83057.0
aF10676.0
aa(lp169
F87119.0
aF26320.0
aa(lp170
F95094.0
aF36603.0
aass.