(dp0
S'./Data/MONRP_50_4_5_4_110-p10000-d50-o3-dataset2.csv'
p1
(dp2
S'pf'
p3
(lp4
(lp5
F472.0
aF99573.0
aa(lp6
F476.0
aF99566.0
aa(lp7
F486.0
aF99525.0
aa(lp8
F511.0
aF99518.0
aa(lp9
F519.0
aF99517.0
aa(lp10
F523.0
aF99512.0
aa(lp11
F526.0
aF99505.0
aa(lp12
F535.0
aF99496.0
aa(lp13
F537.0
aF99492.0
aa(lp14
F544.0
aF99489.0
aa(lp15
F550.0
aF99487.0
aa(lp16
F551.0
aF99482.0
aa(lp17
F555.0
aF99472.0
aa(lp18
F558.0
aF99465.0
aa(lp19
F574.0
aF99459.0
aa(lp20
F584.0
aF99450.0
aa(lp21
F587.0
aF99445.0
aa(lp22
F594.0
aF99442.0
aa(lp23
F598.0
aF99437.0
aa(lp24
F602.0
aF99433.0
aa(lp25
F613.0
aF99432.0
aa(lp26
F614.0
aF99431.0
aa(lp27
F618.0
aF99430.0
aa(lp28
F623.0
aF99428.0
aa(lp29
F625.0
aF99420.0
aa(lp30
F633.0
aF99419.0
aa(lp31
F634.0
aF99418.0
aa(lp32
F640.0
aF99416.0
aa(lp33
F643.0
aF99411.0
aa(lp34
F653.0
aF99404.0
aa(lp35
F665.0
aF99400.0
aa(lp36
F672.0
aF99388.0
aa(lp37
F682.0
aF99387.0
aa(lp38
F692.0
aF99386.0
aa(lp39
F699.0
aF99379.0
aa(lp40
F710.0
aF99378.0
aa(lp41
F717.0
aF99375.0
aa(lp42
F727.0
aF99368.0
aassS'./Data/llvm_input.csv'
p43
(dp44
g3
(lp45
(lp46
F243.37
aF29.0
aa(lp47
F256.25
aF28.0
aa(lp48
F266.21
aF20.0
aa(lp49
F270.4
aF19.0
aassS'./Data/MONRP_50_4_5_4_110-p10000-d50-o3-dataset1.csv'
p50
(dp51
g3
(lp52
(lp53
F95538.0
aF672.0
aa(lp54
F95649.0
aF671.0
aa(lp55
F95734.0
aF657.0
aa(lp56
F95735.0
aF643.0
aa(lp57
F95743.0
aF636.0
aa(lp58
F95777.0
aF622.0
aa(lp59
F95860.0
aF618.0
aa(lp60
F95862.0
aF597.0
aa(lp61
F95921.0
aF595.0
aa(lp62
F95923.0
aF592.0
aa(lp63
F95975.0
aF586.0
aa(lp64
F95993.0
aF584.0
aa(lp65
F96025.0
aF567.0
aa(lp66
F96058.0
aF557.0
aa(lp67
F96149.0
aF541.0
aa(lp68
F96208.0
aF537.0
aa(lp69
F96372.0
aF536.0
aa(lp70
F96381.0
aF523.0
aa(lp71
F96410.0
aF522.0
aa(lp72
F96447.0
aF519.0
aa(lp73
F96526.0
aF503.0
aa(lp74
F96787.0
aF501.0
aa(lp75
F96812.0
aF476.0
aa(lp76
F97199.0
aF472.0
aassS'./Data/MONRP_50_4_5_0_110-p10000-d50-o3-dataset1.csv'
p77
(dp78
g3
(lp79
(lp80
F97149.0
aF644.0
aa(lp81
F97175.0
aF638.0
aa(lp82
F97201.0
aF635.0
aa(lp83
F97217.0
aF615.0
aa(lp84
F97222.0
aF583.0
aa(lp85
F97295.0
aF580.0
aa(lp86
F97329.0
aF548.0
aa(lp87
F97403.0
aF524.0
aa(lp88
F97540.0
aF518.0
aa(lp89
F97576.0
aF501.0
aa(lp90
F97623.0
aF497.0
aa(lp91
F97715.0
aF475.0
aa(lp92
F97957.0
aF454.0
aa(lp93
F98000.0
aF448.0
aassS'./Data/MONRP_50_4_5_0_90-p10000-d50-o3-dataset1.csv'
p94
(dp95
g3
(lp96
(lp97
F96178.0
aF628.0
aa(lp98
F96317.0
aF618.0
aa(lp99
F96326.0
aF593.0
aa(lp100
F96331.0
aF582.0
aa(lp101
F96334.0
aF581.0
aa(lp102
F96377.0
aF578.0
aa(lp103
F96413.0
aF546.0
aa(lp104
F96441.0
aF533.0
aa(lp105
F96539.0
aF527.0
aa(lp106
F96592.0
aF505.0
aa(lp107
F96696.0
aF496.0
aa(lp108
F96741.0
aF480.0
aa(lp109
F96919.0
aF470.0
aa(lp110
F96977.0
aF463.0
aa(lp111
F97034.0
aF460.0
aa(lp112
F97158.0
aF449.0
aa(lp113
F97167.0
aF441.0
aa(lp114
F97172.0
aF424.0
aassS'./Data/MONRP_50_4_5_0_110-p10000-d50-o3-dataset2.csv'
p115
(dp116
g3
(lp117
(lp118
F448.0
aF99601.0
aa(lp119
F454.0
aF99586.0
aa(lp120
F459.0
aF99584.0
aa(lp121
F475.0
aF99555.0
aa(lp122
F493.0
aF99553.0
aa(lp123
F497.0
aF99544.0
aa(lp124
F500.0
aF99542.0
aa(lp125
F501.0
aF99537.0
aa(lp126
F506.0
aF99528.0
aa(lp127
F518.0
aF99508.0
aa(lp128
F536.0
aF99506.0
aa(lp129
F540.0
aF99500.0
aa(lp130
F547.0
aF99496.0
aa(lp131
F548.0
aF99495.0
aa(lp132
F552.0
aF99494.0
aa(lp133
F553.0
aF99488.0
aa(lp134
F554.0
aF99482.0
aa(lp135
F564.0
aF99470.0
aa(lp136
F581.0
aF99465.0
aa(lp137
F586.0
aF99462.0
aa(lp138
F591.0
aF99457.0
aa(lp139
F598.0
aF99453.0
aa(lp140
F598.0
aF99453.0
aa(lp141
F606.0
aF99449.0
aa(lp142
F609.0
aF99445.0
aa(lp143
F620.0
aF99440.0
aa(lp144
F623.0
aF99437.0
aa(lp145
F627.0
aF99434.0
aa(lp146
F635.0
aF99428.0
aa(lp147
F644.0
aF99425.0
aa(lp148
F652.0
aF99423.0
aa(lp149
F655.0
aF99420.0
aa(lp150
F660.0
aF99419.0
aa(lp151
F661.0
aF99415.0
aa(lp152
F664.0
aF99412.0
aa(lp153
F675.0
aF99411.0
aa(lp154
F680.0
aF99410.0
aa(lp155
F693.0
aF99409.0
aa(lp156
F708.0
aF99396.0
aa(lp157
F708.0
aF99396.0
aa(lp158
F708.0
aF99396.0
aassS'./Data/MONRP_50_4_5_0_90-p10000-d50-o3-dataset2.csv'
p159
(dp160
g3
(lp161
(lp162
F424.0
aF99625.0
aa(lp163
F436.0
aF99605.0
aa(lp164
F440.0
aF99601.0
aa(lp165
F449.0
aF99579.0
aa(lp166
F460.0
aF99576.0
aa(lp167
F470.0
aF99556.0
aa(lp168
F480.0
aF99542.0
aa(lp169
F490.0
aF99537.0
aa(lp170
F491.0
aF99535.0
aa(lp171
F493.0
aF99524.0
aa(lp172
F513.0
aF99517.0
aa(lp173
F517.0
aF99516.0
aa(lp174
F519.0
aF99515.0
aa(lp175
F528.0
aF99501.0
aa(lp176
F538.0
aF99500.0
aa(lp177
F543.0
aF99499.0
aa(lp178
F546.0
aF99497.0
aa(lp179
F547.0
aF99488.0
aa(lp180
F554.0
aF99486.0
aa(lp181
F563.0
aF99471.0
aa(lp182
F575.0
aF99467.0
aa(lp183
F586.0
aF99466.0
aa(lp184
F588.0
aF99465.0
aa(lp185
F589.0
aF99464.0
aa(lp186
F590.0
aF99459.0
aa(lp187
F596.0
aF99452.0
aa(lp188
F606.0
aF99451.0
aa(lp189
F608.0
aF99448.0
aa(lp190
F613.0
aF99445.0
aa(lp191
F622.0
aF99444.0
aa(lp192
F624.0
aF99443.0
aa(lp193
F628.0
aF99438.0
aa(lp194
F636.0
aF99436.0
aass.