(dp0
S'./Data/wc+sol-3d-c4.csv'
p1
(dp2
S'pf'
p3
(lp4
(lp5
F4850.4
aF2.1844
aa(lp6
F4869.9
aF2.2345
aa(lp7
F18604.0
aF5.2717
aa(lp8
F18656.0
aF5.6942
aa(lp9
F18872.0
aF5.704
aa(lp10
F19215.0
aF5.9139
aa(lp11
F23470.0
aF35.825
aa(lp12
F23940.0
aF35.91
aa(lp13
F28395.0
aF36.861
aa(lp14
F28405.0
aF38.097
aa(lp15
F35508.0
aF330.13
aa(lp16
F36125.0
aF46551.0
aa(lp17
F61403.0
aF52488.0
aa(lp18
F63734.0
aF71418.0
aassS'./Data/xomo_ground-p10000-d27-o4-dataset1.csv'
p19
(dp20
g3
(lp21
(lp22
F5.047456138
aF4.199017713
aassS'./Data/x264-DB_2_3.csv'
p23
(dp24
g3
(lp25
(lp26
F0.0
aF0.642351
aassS'./Data/wc+rs-3d-c4.csv'
p27
(dp28
g3
(lp29
(lp30
F5591.7
aF1.9243
aa(lp31
F20995.0
aF4.3988
aa(lp32
F22447.0
aF4.7671
aa(lp33
F25682.0
aF29.726999999999997
aa(lp34
F33784.0
aF32.883
aa(lp35
F38350.0
aF294.81
aa(lp36
F38846.0
aF299.2
aa(lp37
F72394.0
aF58477.0
aassS'./Data/xomo_osp-p10000-d27-o4-dataset2.csv'
p38
(dp39
g3
(lp40
(lp41
F5.045540178
aF39.7558645
aa(lp42
F6.84360547
aF11.22363568
aassS'./Data/xomo_flight-p10000-d27-o4-dataset3.csv'
p43
(dp44
g3
(lp45
(lp46
F11.447263099999999
aF2.412868633
aa(lp47
F13.05113679
aF2.144772118
aa(lp48
F17.97036108
aF1.072386059
aa(lp49
F23.5940509
aF0.536193029
aa(lp50
F25.0642209
aF0.268096515
aa(lp51
F54.95880069
aF0.0
aassS'./Data/xomo_all-p10000-d27-o4-dataset3.csv'
p52
(dp53
g3
(lp54
(lp55
F6.685393736
aF2.412868633
aa(lp56
F14.18844784
aF0.0
aassS'./Data/TriMesh_1_2.csv'
p57
(dp58
g3
(lp59
(lp60
F3.0
aF32.96
aassS'./Data/xomo_all-p10000-d27-o4-dataset2.csv'
p61
(dp62
g3
(lp63
(lp64
F4.568049923999999
aF7.931003433
aa(lp65
F5.605354885
aF6.685393736
aassS'./Data/xomo_ground-p10000-d27-o4-dataset3.csv'
p66
(dp67
g3
(lp68
(lp69
F10.69176728
aF0.0
aassS'./Data/wc-3d-c4.csv'
p70
(dp71
g3
(lp72
(lp73
F7990.6
aF1.2994
aa(lp74
F34466.0
aF2.9167
aa(lp75
F57293.0
aF15.94
aa(lp76
F57972.0
aF16.279
aa(lp77
F63510.0
aF116.06
aa(lp78
F66556.0
aF117.56
aa(lp79
F69097.0
aF127.68
aa(lp80
F70644.0
aF142.51
aa(lp81
F72028.0
aF364.41
aa(lp82
F72768.0
aF390.52
aa(lp83
F76190.0
aF789.55
aa(lp84
F79489.0
aF1165.2
aa(lp85
F81320.0
aF10245.0
aa(lp86
F83057.0
aF10676.0
aa(lp87
F87119.0
aF26320.0
aa(lp88
F95094.0
aF36603.0
aassS'./Data/xomo_osp-p10000-d27-o4-dataset1.csv'
p89
(dp90
g3
(lp91
(lp92
F7.334722936
aF5.528561831
aa(lp93
F8.19024377
aF5.045540178
aassS'./Data/x264-DB_1_2.csv'
p94
(dp95
g3
(lp96
(lp97
F15.892000000000001
aF0.0
aassS'./Data/xomo_ground-p10000-d27-o4-dataset2.csv'
p98
(dp99
g3
(lp100
(lp101
F4.199017713
aF65.92917506
aa(lp102
F5.952422572000001
aF37.89631164
aa(lp103
F6.460534075
aF25.77716938
aa(lp104
F6.473380294
aF11.74889138
aa(lp105
F7.467967343
aF10.69176728
aassS'./Data/TriMesh_2_3.csv'
p106
(dp107
g3
(lp108
(lp109
F32.96
aF10.98666667
aa(lp110
F34.053000000000004
aF6.8106
aa(lp111
F38.841
aF4.855125
aa(lp112
F43.31100000000001
aF4.812333333
aa(lp113
F57.602
aF4.800166667
aa(lp114
F61.895
aF4.126333333
aa(lp115
F65.898
aF4.118625
aa(lp116
F69.946
aF4.1144705880000005
aa(lp117
F73.957
aF4.108722222
aa(lp118
F77.938
aF4.102
aa(lp119
F81.738
aF4.0869
aa(lp120
F85.79899999999999
aF4.085666667
aa(lp121
F89.71799999999999
aF4.078090909
aa(lp122
F101.921
aF4.07684
aa(lp123
F134.244
aF4.0680000000000005
aa(lp124
F166.46
aF4.06
aa(lp125
F170.475
aF4.058928571
aa(lp126
F234.93900000000002
aF4.050672414
aa(lp127
F238.97
aF4.0503389830000005
aa(lp128
F254.838
aF4.045047619
aa(lp129
F355.11800000000005
aF4.035431818
aassS'./Data/wc+wc-3d-c4.csv'
p130
(dp131
g3
(lp132
(lp133
F5151.0
aF2.0815
aa(lp134
F19528.0
aF4.9185
aa(lp135
F20066.0
aF5.0202
aa(lp136
F20089.0
aF5.2988
aa(lp137
F20233.0
aF5.7734
aa(lp138
F23675.0
aF32.286
aa(lp139
F25565.0
aF39.446999999999996
aa(lp140
F26373.0
aF40.169000000000004
aa(lp141
F26596.0
aF273.88
aa(lp142
F33549.0
aF321.53
aa(lp143
F35418.0
aF3138.8
aa(lp144
F36900.0
aF17797.0
aa(lp145
F41829.0
aF24516.0
aa(lp146
F41953.0
aF36772.0
aa(lp147
F65823.0
aF46988.0
aassS'./Data/xomo_osp-p10000-d27-o4-dataset3.csv'
p148
(dp149
g3
(lp150
(lp151
F11.22363568
aF2.6809651469999998
aa(lp152
F18.18243731
aF0.268096515
aa(lp153
F48.80889731
aF0.0
aassS'./Data/wc-6d-c1.csv'
p154
(dp155
g3
(lp156
(lp157
F2906.1
aF3.3172
aa(lp158
F3022.4
aF3.3911
aa(lp159
F3070.8
aF3.3944
aa(lp160
F5400.1
aF3.714
aa(lp161
F7452.7
aF4.0717
aa(lp162
F7720.8
aF4.1567
aa(lp163
F10600.0
aF5.8378
aa(lp164
F10890.0
aF5.9394
aa(lp165
F12951.0
aF7.4564
aa(lp166
F13260.0
aF7.6618
aa(lp167
F13513.0
aF7.7715
aa(lp168
F13519.0
aF7.825
aa(lp169
F13699.0
aF7.8794
aa(lp170
F14299.0
aF7.907
aa(lp171
F18199.0
aF17.336
aa(lp172
F18617.0
aF17.469
aa(lp173
F19217.0
aF17.840999999999998
aa(lp174
F19542.0
aF18.180999999999997
aa(lp175
F19597.0
aF18.542
aa(lp176
F22829.0
aF45.261
aa(lp177
F30962.0
aF1087.6
aa(lp178
F34740.0
aF1130.6
aassS'./Data/wc-5d-c5.csv'
p179
(dp180
g3
(lp181
(lp182
F20591.0
aF47.387
aassS'./Data/wc-c3-3d-c1.csv'
p183
(dp184
g3
(lp185
(lp186
F10871.0
aF247.45
aa(lp187
F11930.0
aF250.78
aassS'./Data/x264-DB_4_5.csv'
p188
(dp189
g3
(lp190
(lp191
F0.0
aF0.0
aa(lp192
F0.0
aF0.0
aa(lp193
F0.0
aF0.0
aa(lp194
F0.0
aF0.0
aassS'./Data/sort_256.csv'
p195
(dp196
g3
(lp197
(lp198
F15.39590226
aF14.71664238
aa(lp199
F15.48733762
aF14.60766939
aa(lp200
F15.56718368
aF13.49537757
aa(lp201
F15.762459900000001
aF12.82026986
aa(lp202
F16.24881706
aF12.12185067
aassS'./Data/wc-c1-3d-c1.csv'
p203
(dp204
g3
(lp205
(lp206
F22124.0
aF148.88
aa(lp207
F22799.0
aF156.83
aa(lp208
F23075.0
aF158.68
aassS'./Data/xomo_flight-p10000-d27-o4-dataset1.csv'
p209
(dp210
g3
(lp211
(lp212
F6.047222022000001
aF6.422422171
aa(lp213
F6.359124536
aF5.420340662999999
aa(lp214
F10.71878433
aF5.348895805
aassS'./Data/x264-DB_3_4.csv'
p215
(dp216
g3
(lp217
(lp218
F0.642351
aF0.0
aassS'./Data/xomo_flight-p10000-d27-o4-dataset2.csv'
p219
(dp220
g3
(lp221
(lp222
F5.348895805
aF24.74316384
aa(lp223
F6.422422171
aF13.05113679
aa(lp224
F7.996385722
aF11.447263099999999
aassS'./Data/xomo_all-p10000-d27-o4-dataset1.csv'
p225
(dp226
g3
(lp227
(lp228
F3.7079667260000004
aF4.568049923999999
aassS'./Data/x264-DB_5_6.csv'
p229
(dp230
g3
(lp231
(lp232
F0.0
aF31.2
aa(lp233
F117.375
aF10.72
aa(lp234
F135.2333333
aF10.71
aa(lp235
F136.6
aF9.31
aa(lp236
F144.25
aF9.14
aa(lp237
F146.65
aF8.9
aass.