(dp0
S'./Data/noc_CM_log.csv'
p1
(dp2
S'pf'
p3
(lp4
(lp5
F9.672985692000001
aF5.123159887
aa(lp6
F9.672985692000001
aF5.123159887
aa(lp7
F9.726829514
aF5.123157473
aa(lp8
F9.726829514
aF5.123157473
aa(lp9
F9.726829514
aF5.123157473
aa(lp10
F9.740247934
aF5.121424796
aa(lp11
F9.740247934
aF5.121424796
aa(lp12
F9.740247934
aF5.121424796
aa(lp13
F9.740247934
aF5.121424796
aa(lp14
F9.766851864
aF5.117965171
aa(lp15
F9.766851864
aF5.117965171
aa(lp16
F9.766851864
aF5.117965171
aa(lp17
F9.766851864
aF5.117965171
aa(lp18
F9.824529208
aF5.104190483
aa(lp19
F9.824529208
aF5.104190483
aa(lp20
F9.824529208
aF5.104190483
aa(lp21
F9.824529208
aF5.104190483
aa(lp22
F9.858304322
aF5.0661620869999995
aa(lp23
F9.858304322
aF5.0661620869999995
aa(lp24
F9.858304322
aF5.0661620869999995
aa(lp25
F9.858304322
aF5.0661620869999995
aa(lp26
F9.965784285
aF5.066154451
aa(lp27
F9.965784285
aF5.066154451
aa(lp28
F9.965784285
aF5.066154451
aa(lp29
F9.965784285
aF5.066154451
aassS'./Data/MONRP_50_4_5_4_110-p10000-d50-o3-dataset2.csv'
p30
(dp31
g3
(lp32
(lp33
F472.0
aF99573.0
aa(lp34
F476.0
aF99566.0
aa(lp35
F486.0
aF99525.0
aa(lp36
F511.0
aF99518.0
aa(lp37
F519.0
aF99517.0
aa(lp38
F523.0
aF99512.0
aa(lp39
F526.0
aF99505.0
aa(lp40
F535.0
aF99496.0
aa(lp41
F537.0
aF99492.0
aa(lp42
F544.0
aF99489.0
aa(lp43
F550.0
aF99487.0
aa(lp44
F551.0
aF99482.0
aa(lp45
F555.0
aF99472.0
aa(lp46
F558.0
aF99465.0
aa(lp47
F574.0
aF99459.0
aa(lp48
F584.0
aF99450.0
aa(lp49
F587.0
aF99445.0
aa(lp50
F594.0
aF99442.0
aa(lp51
F598.0
aF99437.0
aa(lp52
F602.0
aF99433.0
aa(lp53
F613.0
aF99432.0
aa(lp54
F614.0
aF99431.0
aa(lp55
F618.0
aF99430.0
aa(lp56
F623.0
aF99428.0
aa(lp57
F625.0
aF99420.0
aa(lp58
F633.0
aF99419.0
aa(lp59
F634.0
aF99418.0
aa(lp60
F640.0
aF99416.0
aa(lp61
F643.0
aF99411.0
aa(lp62
F653.0
aF99404.0
aa(lp63
F665.0
aF99400.0
aa(lp64
F672.0
aF99388.0
aa(lp65
F682.0
aF99387.0
aa(lp66
F692.0
aF99386.0
aa(lp67
F699.0
aF99379.0
aa(lp68
F710.0
aF99378.0
aa(lp69
F717.0
aF99375.0
aa(lp70
F727.0
aF99368.0
aassS'./Data/POM3C-p10000-d9-o3-dataset1.csv'
p71
(dp72
g3
(lp73
(lp74
F208.1210074
aF0.51896544
aa(lp75
F228.03385409999999
aF0.46177862799999997
aa(lp76
F285.0532957
aF0.448568166
aa(lp77
F293.54101099999997
aF0.433202501
aa(lp78
F316.1285093
aF0.431348749
aa(lp79
F317.1486499
aF0.424054573
aa(lp80
F358.0133973
aF0.422334559
aa(lp81
F383.21781319999997
aF0.417145345
aa(lp82
F393.909582
aF0.404078182
aa(lp83
F433.0040473
aF0.391972224
aa(lp84
F616.1255043
aF0.389234586
aa(lp85
F706.6725111000001
aF0.382683551
aassS'./Data/llvm_input.csv'
p86
(dp87
g3
(lp88
(lp89
F243.37
aF29.0
aa(lp90
F256.25
aF28.0
aa(lp91
F266.21
aF20.0
aa(lp92
F270.4
aF19.0
aassS'./Data/POM3C-p10000-d9-o3-dataset2.csv'
p93
(dp94
g3
(lp95
(lp96
F0.382683551
aF0.482587065
aa(lp97
F0.387840055
aF0.39310344799999997
aa(lp98
F0.404078182
aF0.38936535200000005
aa(lp99
F0.40901570299999995
aF0.255813953
aa(lp100
F0.414646876
aF0.205298013
aa(lp101
F0.430377811
aF0.191489362
aa(lp102
F0.43767375799999997
aF0.179487179
aa(lp103
F0.44027053899999996
aF0.133333333
aa(lp104
F0.441966872
aF0.095238095
aa(lp105
F0.44282636200000003
aF0.0
aassS'./Data/POM3B-p10000-d9-o3-dataset2.csv'
p106
(dp107
g3
(lp108
(lp109
F-2.22e-16
aF0.0
aa(lp110
F-2.22e-16
aF0.0
aassS'./Data/MONRP_50_4_5_4_110-p10000-d50-o3-dataset1.csv'
p111
(dp112
g3
(lp113
(lp114
F95538.0
aF672.0
aa(lp115
F95649.0
aF671.0
aa(lp116
F95734.0
aF657.0
aa(lp117
F95735.0
aF643.0
aa(lp118
F95743.0
aF636.0
aa(lp119
F95777.0
aF622.0
aa(lp120
F95860.0
aF618.0
aa(lp121
F95862.0
aF597.0
aa(lp122
F95921.0
aF595.0
aa(lp123
F95923.0
aF592.0
aa(lp124
F95975.0
aF586.0
aa(lp125
F95993.0
aF584.0
aa(lp126
F96025.0
aF567.0
aa(lp127
F96058.0
aF557.0
aa(lp128
F96149.0
aF541.0
aa(lp129
F96208.0
aF537.0
aa(lp130
F96372.0
aF536.0
aa(lp131
F96381.0
aF523.0
aa(lp132
F96410.0
aF522.0
aa(lp133
F96447.0
aF519.0
aa(lp134
F96526.0
aF503.0
aa(lp135
F96787.0
aF501.0
aa(lp136
F96812.0
aF476.0
aa(lp137
F97199.0
aF472.0
aassS'./Data/MONRP_50_4_5_4_90-p10000-d50-o3-dataset1.csv'
p138
(dp139
g3
(lp140
(lp141
F94860.0
aF615.0
aa(lp142
F94939.0
aF582.0
aa(lp143
F95024.0
aF568.0
aa(lp144
F95172.0
aF544.0
aa(lp145
F95230.0
aF532.0
aa(lp146
F95331.0
aF524.0
aa(lp147
F95371.0
aF517.0
aa(lp148
F95383.0
aF486.0
aa(lp149
F95473.0
aF481.0
aa(lp150
F95658.0
aF479.0
aa(lp151
F95706.0
aF476.0
aa(lp152
F95760.0
aF447.0
aa(lp153
F95991.0
aF445.0
aa(lp154
F96134.0
aF431.0
aa(lp155
F96306.0
aF422.0
aa(lp156
F96474.0
aF410.0
aassS'./Data/MONRP_50_4_5_0_110-p10000-d50-o3-dataset1.csv'
p157
(dp158
g3
(lp159
(lp160
F97149.0
aF644.0
aa(lp161
F97175.0
aF638.0
aa(lp162
F97201.0
aF635.0
aa(lp163
F97217.0
aF615.0
aa(lp164
F97222.0
aF583.0
aa(lp165
F97295.0
aF580.0
aa(lp166
F97329.0
aF548.0
aa(lp167
F97403.0
aF524.0
aa(lp168
F97540.0
aF518.0
aa(lp169
F97576.0
aF501.0
aa(lp170
F97623.0
aF497.0
aa(lp171
F97715.0
aF475.0
aa(lp172
F97957.0
aF454.0
aa(lp173
F98000.0
aF448.0
aassS'./Data/MONRP_50_4_5_0_90-p10000-d50-o3-dataset1.csv'
p174
(dp175
g3
(lp176
(lp177
F96178.0
aF628.0
aa(lp178
F96317.0
aF618.0
aa(lp179
F96326.0
aF593.0
aa(lp180
F96331.0
aF582.0
aa(lp181
F96334.0
aF581.0
aa(lp182
F96377.0
aF578.0
aa(lp183
F96413.0
aF546.0
aa(lp184
F96441.0
aF533.0
aa(lp185
F96539.0
aF527.0
aa(lp186
F96592.0
aF505.0
aa(lp187
F96696.0
aF496.0
aa(lp188
F96741.0
aF480.0
aa(lp189
F96919.0
aF470.0
aa(lp190
F96977.0
aF463.0
aa(lp191
F97034.0
aF460.0
aa(lp192
F97158.0
aF449.0
aa(lp193
F97167.0
aF441.0
aa(lp194
F97172.0
aF424.0
aassS'./Data/POM3A-p10000-d9-o3-dataset2.csv'
p195
(dp196
g3
(lp197
(lp198
F0.0
aF0.0
aa(lp199
F0.0
aF0.0
aa(lp200
F0.0
aF0.0
aa(lp201
F0.0
aF0.0
aassS'./Data/POM3B-p10000-d9-o3-dataset1.csv'
p202
(dp203
g3
(lp204
(lp205
F778.3536022000001
aF0.241929382
aa(lp206
F1236.740608
aF0.190785895
aa(lp207
F1310.173799
aF0.17664326
aa(lp208
F1345.1341699999998
aF0.068720074
aa(lp209
F1627.702142
aF0.021694006000000002
aa(lp210
F1838.980734
aF0.017044465
aa(lp211
F1905.2409030000001
aF1.11e-16
aa(lp212
F2307.496485
aF0.0
aa(lp213
F3186.210669
aF-2.22e-16
aassS'./Data/MONRP_50_4_5_0_110-p10000-d50-o3-dataset2.csv'
p214
(dp215
g3
(lp216
(lp217
F448.0
aF99601.0
aa(lp218
F454.0
aF99586.0
aa(lp219
F459.0
aF99584.0
aa(lp220
F475.0
aF99555.0
aa(lp221
F493.0
aF99553.0
aa(lp222
F497.0
aF99544.0
aa(lp223
F500.0
aF99542.0
aa(lp224
F501.0
aF99537.0
aa(lp225
F506.0
aF99528.0
aa(lp226
F518.0
aF99508.0
aa(lp227
F536.0
aF99506.0
aa(lp228
F540.0
aF99500.0
aa(lp229
F547.0
aF99496.0
aa(lp230
F548.0
aF99495.0
aa(lp231
F552.0
aF99494.0
aa(lp232
F553.0
aF99488.0
aa(lp233
F554.0
aF99482.0
aa(lp234
F564.0
aF99470.0
aa(lp235
F581.0
aF99465.0
aa(lp236
F586.0
aF99462.0
aa(lp237
F591.0
aF99457.0
aa(lp238
F598.0
aF99453.0
aa(lp239
F598.0
aF99453.0
aa(lp240
F606.0
aF99449.0
aa(lp241
F609.0
aF99445.0
aa(lp242
F620.0
aF99440.0
aa(lp243
F623.0
aF99437.0
aa(lp244
F627.0
aF99434.0
aa(lp245
F635.0
aF99428.0
aa(lp246
F644.0
aF99425.0
aa(lp247
F652.0
aF99423.0
aa(lp248
F655.0
aF99420.0
aa(lp249
F660.0
aF99419.0
aa(lp250
F661.0
aF99415.0
aa(lp251
F664.0
aF99412.0
aa(lp252
F675.0
aF99411.0
aa(lp253
F680.0
aF99410.0
aa(lp254
F693.0
aF99409.0
aa(lp255
F708.0
aF99396.0
aa(lp256
F708.0
aF99396.0
aa(lp257
F708.0
aF99396.0
aassS'./Data/POM3D-p10000-d9-o3-dataset1.csv'
p258
(dp259
g3
(lp260
(lp261
F0.0
aF1.0
aa(lp262
F0.0
aF1.0
aa(lp263
F18.79456044
aF0.035003511
aa(lp264
F34.05348064
aF0.006754129
aa(lp265
F51.54638243
aF0.004919978
aa(lp266
F81.25358783
aF0.0
aassS'./Data/MONRP_50_4_5_4_90-p10000-d50-o3-dataset2.csv'
p267
(dp268
g3
(lp269
(lp270
F410.0
aF99601.0
aa(lp271
F422.0
aF99595.0
aa(lp272
F424.0
aF99586.0
aa(lp273
F431.0
aF99580.0
aa(lp274
F440.0
aF99577.0
aa(lp275
F444.0
aF99568.0
aa(lp276
F445.0
aF99543.0
aa(lp277
F462.0
aF99542.0
aa(lp278
F466.0
aF99539.0
aa(lp279
F467.0
aF99532.0
aa(lp280
F477.0
aF99531.0
aa(lp281
F479.0
aF99529.0
aa(lp282
F480.0
aF99525.0
aa(lp283
F486.0
aF99519.0
aa(lp284
F491.0
aF99518.0
aa(lp285
F494.0
aF99508.0
aa(lp286
F495.0
aF99507.0
aa(lp287
F499.0
aF99505.0
aa(lp288
F503.0
aF99503.0
aa(lp289
F505.0
aF99502.0
aa(lp290
F505.0
aF99502.0
aa(lp291
F509.0
aF99496.0
aa(lp292
F513.0
aF99494.0
aa(lp293
F514.0
aF99490.0
aa(lp294
F520.0
aF99483.0
aa(lp295
F524.0
aF99476.0
aa(lp296
F533.0
aF99471.0
aa(lp297
F542.0
aF99466.0
aa(lp298
F544.0
aF99465.0
aa(lp299
F548.0
aF99459.0
aa(lp300
F555.0
aF99455.0
aa(lp301
F560.0
aF99454.0
aa(lp302
F563.0
aF99446.0
aa(lp303
F567.0
aF99444.0
aa(lp304
F574.0
aF99443.0
aa(lp305
F578.0
aF99437.0
aa(lp306
F585.0
aF99436.0
aa(lp307
F588.0
aF99430.0
aa(lp308
F594.0
aF99424.0
aa(lp309
F607.0
aF99419.0
aassS'./Data/POM3A-p10000-d9-o3-dataset1.csv'
p310
(dp311
g3
(lp312
(lp313
F0.0
aF1.0
aa(lp314
F21.75234581
aF0.442372069
aa(lp315
F56.1115963
aF0.41984164799999996
aa(lp316
F59.97189121
aF0.22879146600000003
aa(lp317
F65.9013561
aF0.153830799
aa(lp318
F79.67939333
aF0.121648682
aa(lp319
F92.13250227
aF0.106383726
aa(lp320
F109.67404109999998
aF0.044718797000000005
aa(lp321
F118.78787040000002
aF0.024941255
aa(lp322
F121.29235919999999
aF0.0
aassS'./Data/MONRP_50_4_5_0_90-p10000-d50-o3-dataset2.csv'
p323
(dp324
g3
(lp325
(lp326
F424.0
aF99625.0
aa(lp327
F436.0
aF99605.0
aa(lp328
F440.0
aF99601.0
aa(lp329
F449.0
aF99579.0
aa(lp330
F460.0
aF99576.0
aa(lp331
F470.0
aF99556.0
aa(lp332
F480.0
aF99542.0
aa(lp333
F490.0
aF99537.0
aa(lp334
F491.0
aF99535.0
aa(lp335
F493.0
aF99524.0
aa(lp336
F513.0
aF99517.0
aa(lp337
F517.0
aF99516.0
aa(lp338
F519.0
aF99515.0
aa(lp339
F528.0
aF99501.0
aa(lp340
F538.0
aF99500.0
aa(lp341
F543.0
aF99499.0
aa(lp342
F546.0
aF99497.0
aa(lp343
F547.0
aF99488.0
aa(lp344
F554.0
aF99486.0
aa(lp345
F563.0
aF99471.0
aa(lp346
F575.0
aF99467.0
aa(lp347
F586.0
aF99466.0
aa(lp348
F588.0
aF99465.0
aa(lp349
F589.0
aF99464.0
aa(lp350
F590.0
aF99459.0
aa(lp351
F596.0
aF99452.0
aa(lp352
F606.0
aF99451.0
aa(lp353
F608.0
aF99448.0
aa(lp354
F613.0
aF99445.0
aa(lp355
F622.0
aF99444.0
aa(lp356
F624.0
aF99443.0
aa(lp357
F628.0
aF99438.0
aa(lp358
F636.0
aF99436.0
aass.