(dp0
S'./Data/wc+sol-3d-c4.csv'
p1
(dp2
S'pf'
p3
(lp4
(lp5
F4850.4
aF2.1844
aa(lp6
F4869.9
aF2.2345
aa(lp7
F18604.0
aF5.2717
aa(lp8
F18656.0
aF5.6942
aa(lp9
F18872.0
aF5.704
aa(lp10
F19215.0
aF5.9139
aa(lp11
F23470.0
aF35.825
aa(lp12
F23940.0
aF35.91
aa(lp13
F28395.0
aF36.861
aa(lp14
F28405.0
aF38.097
aa(lp15
F35508.0
aF330.13
aa(lp16
F36125.0
aF46551.0
aa(lp17
F61403.0
aF52488.0
aa(lp18
F63734.0
aF71418.0
aassS'./Data/wc-c3-3d-c1.csv'
p19
(dp20
g3
(lp21
(lp22
F10871.0
aF247.45
aa(lp23
F11930.0
aF250.78
aassS'./Data/x264-DB_4_5.csv'
p24
(dp25
g3
(lp26
(lp27
F0.0
aF0.0
aa(lp28
F0.0
aF0.0
aa(lp29
F0.0
aF0.0
aa(lp30
F0.0
aF0.0
aassS'./Data/sort_256.csv'
p31
(dp32
g3
(lp33
(lp34
F15.39590226
aF14.71664238
aa(lp35
F15.48733762
aF14.60766939
aa(lp36
F15.56718368
aF13.49537757
aa(lp37
F15.762459900000001
aF12.82026986
aa(lp38
F16.24881706
aF12.12185067
aassS'./Data/x264-DB_1_2.csv'
p39
(dp40
g3
(lp41
(lp42
F15.892000000000001
aF0.0
aassS'./Data/wc-c1-3d-c1.csv'
p43
(dp44
g3
(lp45
(lp46
F22124.0
aF148.88
aa(lp47
F22799.0
aF156.83
aa(lp48
F23075.0
aF158.68
aassS'./Data/xomo_all-p10000-d27-o4-dataset2.csv'
p49
(dp50
g3
(lp51
(lp52
F4.568049923999999
aF7.931003433
aa(lp53
F5.605354885
aF6.685393736
aassS'./Data/x264-DB_5_6.csv'
p54
(dp55
g3
(lp56
(lp57
F0.0
aF31.2
aa(lp58
F117.375
aF10.72
aa(lp59
F135.2333333
aF10.71
aa(lp60
F136.6
aF9.31
aa(lp61
F144.25
aF9.14
aa(lp62
F146.65
aF8.9
aassS'./Data/TriMesh_1_2.csv'
p63
(dp64
g3
(lp65
(lp66
F3.0
aF32.96
aassS'./Data/x264-DB_3_4.csv'
p67
(dp68
g3
(lp69
(lp70
F0.642351
aF0.0
aassS'./Data/TriMesh_2_3.csv'
p71
(dp72
g3
(lp73
(lp74
F32.96
aF10.98666667
aa(lp75
F34.053000000000004
aF6.8106
aa(lp76
F38.841
aF4.855125
aa(lp77
F43.31100000000001
aF4.812333333
aa(lp78
F57.602
aF4.800166667
aa(lp79
F61.895
aF4.126333333
aa(lp80
F65.898
aF4.118625
aa(lp81
F69.946
aF4.1144705880000005
aa(lp82
F73.957
aF4.108722222
aa(lp83
F77.938
aF4.102
aa(lp84
F81.738
aF4.0869
aa(lp85
F85.79899999999999
aF4.085666667
aa(lp86
F89.71799999999999
aF4.078090909
aa(lp87
F101.921
aF4.07684
aa(lp88
F134.244
aF4.0680000000000005
aa(lp89
F166.46
aF4.06
aa(lp90
F170.475
aF4.058928571
aa(lp91
F234.93900000000002
aF4.050672414
aa(lp92
F238.97
aF4.0503389830000005
aa(lp93
F254.838
aF4.045047619
aa(lp94
F355.11800000000005
aF4.035431818
aassS'./Data/xomo_flight-p10000-d27-o4-dataset2.csv'
p95
(dp96
g3
(lp97
(lp98
F5.348895805
aF24.74316384
aa(lp99
F6.422422171
aF13.05113679
aa(lp100
F7.996385722
aF11.447263099999999
aassS'./Data/wc+wc-3d-c4.csv'
p101
(dp102
g3
(lp103
(lp104
F5151.0
aF2.0815
aa(lp105
F19528.0
aF4.9185
aa(lp106
F20066.0
aF5.0202
aa(lp107
F20089.0
aF5.2988
aa(lp108
F20233.0
aF5.7734
aa(lp109
F23675.0
aF32.286
aa(lp110
F25565.0
aF39.446999999999996
aa(lp111
F26373.0
aF40.169000000000004
aa(lp112
F26596.0
aF273.88
aa(lp113
F33549.0
aF321.53
aa(lp114
F35418.0
aF3138.8
aa(lp115
F36900.0
aF17797.0
aa(lp116
F41829.0
aF24516.0
aa(lp117
F41953.0
aF36772.0
aa(lp118
F65823.0
aF46988.0
aassS'./Data/xomo_all-p10000-d27-o4-dataset3.csv'
p119
(dp120
g3
(lp121
(lp122
F6.685393736
aF2.412868633
aa(lp123
F14.18844784
aF0.0
aassS'./Data/x264-DB_2_3.csv'
p124
(dp125
g3
(lp126
(lp127
F0.0
aF0.642351
aassS'./Data/wc-6d-c1.csv'
p128
(dp129
g3
(lp130
(lp131
F2906.1
aF3.3172
aa(lp132
F3022.4
aF3.3911
aa(lp133
F3070.8
aF3.3944
aa(lp134
F5400.1
aF3.714
aa(lp135
F7452.7
aF4.0717
aa(lp136
F7720.8
aF4.1567
aa(lp137
F10600.0
aF5.8378
aa(lp138
F10890.0
aF5.9394
aa(lp139
F12951.0
aF7.4564
aa(lp140
F13260.0
aF7.6618
aa(lp141
F13513.0
aF7.7715
aa(lp142
F13519.0
aF7.825
aa(lp143
F13699.0
aF7.8794
aa(lp144
F14299.0
aF7.907
aa(lp145
F18199.0
aF17.336
aa(lp146
F18617.0
aF17.469
aa(lp147
F19217.0
aF17.840999999999998
aa(lp148
F19542.0
aF18.180999999999997
aa(lp149
F19597.0
aF18.542
aa(lp150
F22829.0
aF45.261
aa(lp151
F30962.0
aF1087.6
aa(lp152
F34740.0
aF1130.6
aassS'./Data/wc+rs-3d-c4.csv'
p153
(dp154
g3
(lp155
(lp156
F5591.7
aF1.9243
aa(lp157
F20995.0
aF4.3988
aa(lp158
F22447.0
aF4.7671
aa(lp159
F25682.0
aF29.726999999999997
aa(lp160
F33784.0
aF32.883
aa(lp161
F38350.0
aF294.81
aa(lp162
F38846.0
aF299.2
aa(lp163
F72394.0
aF58477.0
aassS'./Data/xomo_flight-p10000-d27-o4-dataset1.csv'
p164
(dp165
g3
(lp166
(lp167
F6.047222022000001
aF6.422422171
aa(lp168
F6.359124536
aF5.420340662999999
aa(lp169
F10.71878433
aF5.348895805
aassS'./Data/wc-5d-c5.csv'
p170
(dp171
g3
(lp172
(lp173
F20591.0
aF47.387
aassS'./Data/xomo_all-p10000-d27-o4-dataset1.csv'
p174
(dp175
g3
(lp176
(lp177
F3.7079667260000004
aF4.568049923999999
aassS'./Data/wc-3d-c4.csv'
p178
(dp179
g3
(lp180
(lp181
F7990.6
aF1.2994
aa(lp182
F34466.0
aF2.9167
aa(lp183
F57293.0
aF15.94
aa(lp184
F57972.0
aF16.279
aa(lp185
F63510.0
aF116.06
aa(lp186
F66556.0
aF117.56
aa(lp187
F69097.0
aF127.68
aa(lp188
F70644.0
aF142.51
aa(lp189
F72028.0
aF364.41
aa(lp190
F72768.0
aF390.52
aa(lp191
F76190.0
aF789.55
aa(lp192
F79489.0
aF1165.2
aa(lp193
F81320.0
aF10245.0
aa(lp194
F83057.0
aF10676.0
aa(lp195
F87119.0
aF26320.0
aa(lp196
F95094.0
aF36603.0
aass.