(dp0
S'./Data/llvm_input.csv'
p1
(dp2
S'pf'
p3
(lp4
(lp5
F243.37
aF29.0
aa(lp6
F256.25
aF28.0
aa(lp7
F266.21
aF20.0
aa(lp8
F270.4
aF19.0
aassS'./Data/MONRP_50_4_5_0_110-p10000-d50-o3-dataset1.csv'
p9
(dp10
g3
(lp11
(lp12
F97149.0
aF644.0
aa(lp13
F97175.0
aF638.0
aa(lp14
F97201.0
aF635.0
aa(lp15
F97217.0
aF615.0
aa(lp16
F97222.0
aF583.0
aa(lp17
F97295.0
aF580.0
aa(lp18
F97329.0
aF548.0
aa(lp19
F97403.0
aF524.0
aa(lp20
F97540.0
aF518.0
aa(lp21
F97576.0
aF501.0
aa(lp22
F97623.0
aF497.0
aa(lp23
F97715.0
aF475.0
aa(lp24
F97957.0
aF454.0
aa(lp25
F98000.0
aF448.0
aassS'./Data/MONRP_50_4_5_0_110-p10000-d50-o3-dataset2.csv'
p26
(dp27
g3
(lp28
(lp29
F448.0
aF99601.0
aa(lp30
F454.0
aF99586.0
aa(lp31
F459.0
aF99584.0
aa(lp32
F475.0
aF99555.0
aa(lp33
F493.0
aF99553.0
aa(lp34
F497.0
aF99544.0
aa(lp35
F500.0
aF99542.0
aa(lp36
F501.0
aF99537.0
aa(lp37
F506.0
aF99528.0
aa(lp38
F518.0
aF99508.0
aa(lp39
F536.0
aF99506.0
aa(lp40
F540.0
aF99500.0
aa(lp41
F547.0
aF99496.0
aa(lp42
F548.0
aF99495.0
aa(lp43
F552.0
aF99494.0
aa(lp44
F553.0
aF99488.0
aa(lp45
F554.0
aF99482.0
aa(lp46
F564.0
aF99470.0
aa(lp47
F581.0
aF99465.0
aa(lp48
F586.0
aF99462.0
aa(lp49
F591.0
aF99457.0
aa(lp50
F598.0
aF99453.0
aa(lp51
F598.0
aF99453.0
aa(lp52
F606.0
aF99449.0
aa(lp53
F609.0
aF99445.0
aa(lp54
F620.0
aF99440.0
aa(lp55
F623.0
aF99437.0
aa(lp56
F627.0
aF99434.0
aa(lp57
F635.0
aF99428.0
aa(lp58
F644.0
aF99425.0
aa(lp59
F652.0
aF99423.0
aa(lp60
F655.0
aF99420.0
aa(lp61
F660.0
aF99419.0
aa(lp62
F661.0
aF99415.0
aa(lp63
F664.0
aF99412.0
aa(lp64
F675.0
aF99411.0
aa(lp65
F680.0
aF99410.0
aa(lp66
F693.0
aF99409.0
aa(lp67
F708.0
aF99396.0
aa(lp68
F708.0
aF99396.0
aa(lp69
F708.0
aF99396.0
aass.