(dp0
S'./Data/llvm_input.csv'
p1
(dp2
S'pf'
p3
(lp4
(lp5
F243.37
aF29.0
aa(lp6
F256.25
aF28.0
aa(lp7
F266.21
aF20.0
aa(lp8
F270.4
aF19.0
aassS'./Data/MONRP_50_4_5_0_110-p10000-d50-o3-dataset1.csv'
p9
(dp10
g3
(lp11
(lp12
F97149.0
aF644.0
aa(lp13
F97175.0
aF638.0
aa(lp14
F97201.0
aF635.0
aa(lp15
F97217.0
aF615.0
aa(lp16
F97222.0
aF583.0
aa(lp17
F97295.0
aF580.0
aa(lp18
F97329.0
aF548.0
aa(lp19
F97403.0
aF524.0
aa(lp20
F97540.0
aF518.0
aa(lp21
F97576.0
aF501.0
aa(lp22
F97623.0
aF497.0
aa(lp23
F97715.0
aF475.0
aa(lp24
F97957.0
aF454.0
aa(lp25
F98000.0
aF448.0
aass.