(dp0
S'./Data/MONRP_50_4_5_4_110-p10000-d50-o3-dataset2.csv'
p1
(dp2
S'pf'
p3
(lp4
(lp5
F472.0
aF99573.0
aa(lp6
F476.0
aF99566.0
aa(lp7
F486.0
aF99525.0
aa(lp8
F511.0
aF99518.0
aa(lp9
F519.0
aF99517.0
aa(lp10
F523.0
aF99512.0
aa(lp11
F526.0
aF99505.0
aa(lp12
F535.0
aF99496.0
aa(lp13
F537.0
aF99492.0
aa(lp14
F544.0
aF99489.0
aa(lp15
F550.0
aF99487.0
aa(lp16
F551.0
aF99482.0
aa(lp17
F555.0
aF99472.0
aa(lp18
F558.0
aF99465.0
aa(lp19
F574.0
aF99459.0
aa(lp20
F584.0
aF99450.0
aa(lp21
F587.0
aF99445.0
aa(lp22
F594.0
aF99442.0
aa(lp23
F598.0
aF99437.0
aa(lp24
F602.0
aF99433.0
aa(lp25
F613.0
aF99432.0
aa(lp26
F614.0
aF99431.0
aa(lp27
F618.0
aF99430.0
aa(lp28
F623.0
aF99428.0
aa(lp29
F625.0
aF99420.0
aa(lp30
F633.0
aF99419.0
aa(lp31
F634.0
aF99418.0
aa(lp32
F640.0
aF99416.0
aa(lp33
F643.0
aF99411.0
aa(lp34
F653.0
aF99404.0
aa(lp35
F665.0
aF99400.0
aa(lp36
F672.0
aF99388.0
aa(lp37
F682.0
aF99387.0
aa(lp38
F692.0
aF99386.0
aa(lp39
F699.0
aF99379.0
aa(lp40
F710.0
aF99378.0
aa(lp41
F717.0
aF99375.0
aa(lp42
F727.0
aF99368.0
aassS'./Data/llvm_input.csv'
p43
(dp44
g3
(lp45
(lp46
F243.37
aF29.0
aa(lp47
F256.25
aF28.0
aa(lp48
F266.21
aF20.0
aa(lp49
F270.4
aF19.0
aassS'./Data/MONRP_50_4_5_4_110-p10000-d50-o3-dataset1.csv'
p50
(dp51
g3
(lp52
(lp53
F95538.0
aF672.0
aa(lp54
F95649.0
aF671.0
aa(lp55
F95734.0
aF657.0
aa(lp56
F95735.0
aF643.0
aa(lp57
F95743.0
aF636.0
aa(lp58
F95777.0
aF622.0
aa(lp59
F95860.0
aF618.0
aa(lp60
F95862.0
aF597.0
aa(lp61
F95921.0
aF595.0
aa(lp62
F95923.0
aF592.0
aa(lp63
F95975.0
aF586.0
aa(lp64
F95993.0
aF584.0
aa(lp65
F96025.0
aF567.0
aa(lp66
F96058.0
aF557.0
aa(lp67
F96149.0
aF541.0
aa(lp68
F96208.0
aF537.0
aa(lp69
F96372.0
aF536.0
aa(lp70
F96381.0
aF523.0
aa(lp71
F96410.0
aF522.0
aa(lp72
F96447.0
aF519.0
aa(lp73
F96526.0
aF503.0
aa(lp74
F96787.0
aF501.0
aa(lp75
F96812.0
aF476.0
aa(lp76
F97199.0
aF472.0
aassS'./Data/MONRP_50_4_5_4_90-p10000-d50-o3-dataset1.csv'
p77
(dp78
g3
(lp79
(lp80
F94860.0
aF615.0
aa(lp81
F94939.0
aF582.0
aa(lp82
F95024.0
aF568.0
aa(lp83
F95172.0
aF544.0
aa(lp84
F95230.0
aF532.0
aa(lp85
F95331.0
aF524.0
aa(lp86
F95371.0
aF517.0
aa(lp87
F95383.0
aF486.0
aa(lp88
F95473.0
aF481.0
aa(lp89
F95658.0
aF479.0
aa(lp90
F95706.0
aF476.0
aa(lp91
F95760.0
aF447.0
aa(lp92
F95991.0
aF445.0
aa(lp93
F96134.0
aF431.0
aa(lp94
F96306.0
aF422.0
aa(lp95
F96474.0
aF410.0
aassS'./Data/MONRP_50_4_5_0_110-p10000-d50-o3-dataset1.csv'
p96
(dp97
g3
(lp98
(lp99
F97149.0
aF644.0
aa(lp100
F97175.0
aF638.0
aa(lp101
F97201.0
aF635.0
aa(lp102
F97217.0
aF615.0
aa(lp103
F97222.0
aF583.0
aa(lp104
F97295.0
aF580.0
aa(lp105
F97329.0
aF548.0
aa(lp106
F97403.0
aF524.0
aa(lp107
F97540.0
aF518.0
aa(lp108
F97576.0
aF501.0
aa(lp109
F97623.0
aF497.0
aa(lp110
F97715.0
aF475.0
aa(lp111
F97957.0
aF454.0
aa(lp112
F98000.0
aF448.0
aassS'./Data/MONRP_50_4_5_0_90-p10000-d50-o3-dataset1.csv'
p113
(dp114
g3
(lp115
(lp116
F96178.0
aF628.0
aa(lp117
F96317.0
aF618.0
aa(lp118
F96326.0
aF593.0
aa(lp119
F96331.0
aF582.0
aa(lp120
F96334.0
aF581.0
aa(lp121
F96377.0
aF578.0
aa(lp122
F96413.0
aF546.0
aa(lp123
F96441.0
aF533.0
aa(lp124
F96539.0
aF527.0
aa(lp125
F96592.0
aF505.0
aa(lp126
F96696.0
aF496.0
aa(lp127
F96741.0
aF480.0
aa(lp128
F96919.0
aF470.0
aa(lp129
F96977.0
aF463.0
aa(lp130
F97034.0
aF460.0
aa(lp131
F97158.0
aF449.0
aa(lp132
F97167.0
aF441.0
aa(lp133
F97172.0
aF424.0
aassS'./Data/MONRP_50_4_5_0_110-p10000-d50-o3-dataset2.csv'
p134
(dp135
g3
(lp136
(lp137
F448.0
aF99601.0
aa(lp138
F454.0
aF99586.0
aa(lp139
F459.0
aF99584.0
aa(lp140
F475.0
aF99555.0
aa(lp141
F493.0
aF99553.0
aa(lp142
F497.0
aF99544.0
aa(lp143
F500.0
aF99542.0
aa(lp144
F501.0
aF99537.0
aa(lp145
F506.0
aF99528.0
aa(lp146
F518.0
aF99508.0
aa(lp147
F536.0
aF99506.0
aa(lp148
F540.0
aF99500.0
aa(lp149
F547.0
aF99496.0
aa(lp150
F548.0
aF99495.0
aa(lp151
F552.0
aF99494.0
aa(lp152
F553.0
aF99488.0
aa(lp153
F554.0
aF99482.0
aa(lp154
F564.0
aF99470.0
aa(lp155
F581.0
aF99465.0
aa(lp156
F586.0
aF99462.0
aa(lp157
F591.0
aF99457.0
aa(lp158
F598.0
aF99453.0
aa(lp159
F598.0
aF99453.0
aa(lp160
F606.0
aF99449.0
aa(lp161
F609.0
aF99445.0
aa(lp162
F620.0
aF99440.0
aa(lp163
F623.0
aF99437.0
aa(lp164
F627.0
aF99434.0
aa(lp165
F635.0
aF99428.0
aa(lp166
F644.0
aF99425.0
aa(lp167
F652.0
aF99423.0
aa(lp168
F655.0
aF99420.0
aa(lp169
F660.0
aF99419.0
aa(lp170
F661.0
aF99415.0
aa(lp171
F664.0
aF99412.0
aa(lp172
F675.0
aF99411.0
aa(lp173
F680.0
aF99410.0
aa(lp174
F693.0
aF99409.0
aa(lp175
F708.0
aF99396.0
aa(lp176
F708.0
aF99396.0
aa(lp177
F708.0
aF99396.0
aassS'./Data/MONRP_50_4_5_4_90-p10000-d50-o3-dataset2.csv'
p178
(dp179
g3
(lp180
(lp181
F410.0
aF99601.0
aa(lp182
F422.0
aF99595.0
aa(lp183
F424.0
aF99586.0
aa(lp184
F431.0
aF99580.0
aa(lp185
F440.0
aF99577.0
aa(lp186
F444.0
aF99568.0
aa(lp187
F445.0
aF99543.0
aa(lp188
F462.0
aF99542.0
aa(lp189
F466.0
aF99539.0
aa(lp190
F467.0
aF99532.0
aa(lp191
F477.0
aF99531.0
aa(lp192
F479.0
aF99529.0
aa(lp193
F480.0
aF99525.0
aa(lp194
F486.0
aF99519.0
aa(lp195
F491.0
aF99518.0
aa(lp196
F494.0
aF99508.0
aa(lp197
F495.0
aF99507.0
aa(lp198
F499.0
aF99505.0
aa(lp199
F503.0
aF99503.0
aa(lp200
F505.0
aF99502.0
aa(lp201
F505.0
aF99502.0
aa(lp202
F509.0
aF99496.0
aa(lp203
F513.0
aF99494.0
aa(lp204
F514.0
aF99490.0
aa(lp205
F520.0
aF99483.0
aa(lp206
F524.0
aF99476.0
aa(lp207
F533.0
aF99471.0
aa(lp208
F542.0
aF99466.0
aa(lp209
F544.0
aF99465.0
aa(lp210
F548.0
aF99459.0
aa(lp211
F555.0
aF99455.0
aa(lp212
F560.0
aF99454.0
aa(lp213
F563.0
aF99446.0
aa(lp214
F567.0
aF99444.0
aa(lp215
F574.0
aF99443.0
aa(lp216
F578.0
aF99437.0
aa(lp217
F585.0
aF99436.0
aa(lp218
F588.0
aF99430.0
aa(lp219
F594.0
aF99424.0
aa(lp220
F607.0
aF99419.0
aassS'./Data/MONRP_50_4_5_0_90-p10000-d50-o3-dataset2.csv'
p221
(dp222
g3
(lp223
(lp224
F424.0
aF99625.0
aa(lp225
F436.0
aF99605.0
aa(lp226
F440.0
aF99601.0
aa(lp227
F449.0
aF99579.0
aa(lp228
F460.0
aF99576.0
aa(lp229
F470.0
aF99556.0
aa(lp230
F480.0
aF99542.0
aa(lp231
F490.0
aF99537.0
aa(lp232
F491.0
aF99535.0
aa(lp233
F493.0
aF99524.0
aa(lp234
F513.0
aF99517.0
aa(lp235
F517.0
aF99516.0
aa(lp236
F519.0
aF99515.0
aa(lp237
F528.0
aF99501.0
aa(lp238
F538.0
aF99500.0
aa(lp239
F543.0
aF99499.0
aa(lp240
F546.0
aF99497.0
aa(lp241
F547.0
aF99488.0
aa(lp242
F554.0
aF99486.0
aa(lp243
F563.0
aF99471.0
aa(lp244
F575.0
aF99467.0
aa(lp245
F586.0
aF99466.0
aa(lp246
F588.0
aF99465.0
aa(lp247
F589.0
aF99464.0
aa(lp248
F590.0
aF99459.0
aa(lp249
F596.0
aF99452.0
aa(lp250
F606.0
aF99451.0
aa(lp251
F608.0
aF99448.0
aa(lp252
F613.0
aF99445.0
aa(lp253
F622.0
aF99444.0
aa(lp254
F624.0
aF99443.0
aa(lp255
F628.0
aF99438.0
aa(lp256
F636.0
aF99436.0
aass.