(dp0
S'./Data/wc+sol-3d-c4.csv'
p1
(dp2
S'pf'
p3
(lp4
(lp5
F4850.4
aF2.1844
aa(lp6
F4869.9
aF2.2345
aa(lp7
F18604.0
aF5.2717
aa(lp8
F18656.0
aF5.6942
aa(lp9
F18872.0
aF5.704
aa(lp10
F19215.0
aF5.9139
aa(lp11
F23470.0
aF35.825
aa(lp12
F23940.0
aF35.91
aa(lp13
F28395.0
aF36.861
aa(lp14
F28405.0
aF38.097
aa(lp15
F35508.0
aF330.13
aa(lp16
F36125.0
aF46551.0
aa(lp17
F61403.0
aF52488.0
aa(lp18
F63734.0
aF71418.0
aassS'./Data/xomo_ground-p10000-d27-o4-dataset1.csv'
p19
(dp20
g3
(lp21
(lp22
F5.047456138
aF4.199017713
aassS'./Data/x264-DB_2_3.csv'
p23
(dp24
g3
(lp25
(lp26
F0.0
aF0.642351
aassS'./Data/wc+rs-3d-c4.csv'
p27
(dp28
g3
(lp29
(lp30
F5591.7
aF1.9243
aa(lp31
F20995.0
aF4.3988
aa(lp32
F22447.0
aF4.7671
aa(lp33
F25682.0
aF29.726999999999997
aa(lp34
F33784.0
aF32.883
aa(lp35
F38350.0
aF294.81
aa(lp36
F38846.0
aF299.2
aa(lp37
F72394.0
aF58477.0
aassS'./Data/xomo_flight-p10000-d27-o4-dataset3.csv'
p38
(dp39
g3
(lp40
(lp41
F11.447263099999999
aF2.412868633
aa(lp42
F13.05113679
aF2.144772118
aa(lp43
F17.97036108
aF1.072386059
aa(lp44
F23.5940509
aF0.536193029
aa(lp45
F25.0642209
aF0.268096515
aa(lp46
F54.95880069
aF0.0
aassS'./Data/xomo_all-p10000-d27-o4-dataset3.csv'
p47
(dp48
g3
(lp49
(lp50
F6.685393736
aF2.412868633
aa(lp51
F14.18844784
aF0.0
aassS'./Data/TriMesh_1_2.csv'
p52
(dp53
g3
(lp54
(lp55
F3.0
aF32.96
aassS'./Data/xomo_all-p10000-d27-o4-dataset2.csv'
p56
(dp57
g3
(lp58
(lp59
F4.568049923999999
aF7.931003433
aa(lp60
F5.605354885
aF6.685393736
aassS'./Data/xomo_ground-p10000-d27-o4-dataset3.csv'
p61
(dp62
g3
(lp63
(lp64
F10.69176728
aF0.0
aassS'./Data/wc-3d-c4.csv'
p65
(dp66
g3
(lp67
(lp68
F7990.6
aF1.2994
aa(lp69
F34466.0
aF2.9167
aa(lp70
F57293.0
aF15.94
aa(lp71
F57972.0
aF16.279
aa(lp72
F63510.0
aF116.06
aa(lp73
F66556.0
aF117.56
aa(lp74
F69097.0
aF127.68
aa(lp75
F70644.0
aF142.51
aa(lp76
F72028.0
aF364.41
aa(lp77
F72768.0
aF390.52
aa(lp78
F76190.0
aF789.55
aa(lp79
F79489.0
aF1165.2
aa(lp80
F81320.0
aF10245.0
aa(lp81
F83057.0
aF10676.0
aa(lp82
F87119.0
aF26320.0
aa(lp83
F95094.0
aF36603.0
aassS'./Data/x264-DB_1_2.csv'
p84
(dp85
g3
(lp86
(lp87
F15.892000000000001
aF0.0
aassS'./Data/xomo_ground-p10000-d27-o4-dataset2.csv'
p88
(dp89
g3
(lp90
(lp91
F4.199017713
aF65.92917506
aa(lp92
F5.952422572000001
aF37.89631164
aa(lp93
F6.460534075
aF25.77716938
aa(lp94
F6.473380294
aF11.74889138
aa(lp95
F7.467967343
aF10.69176728
aassS'./Data/TriMesh_2_3.csv'
p96
(dp97
g3
(lp98
(lp99
F32.96
aF10.98666667
aa(lp100
F34.053000000000004
aF6.8106
aa(lp101
F38.841
aF4.855125
aa(lp102
F43.31100000000001
aF4.812333333
aa(lp103
F57.602
aF4.800166667
aa(lp104
F61.895
aF4.126333333
aa(lp105
F65.898
aF4.118625
aa(lp106
F69.946
aF4.1144705880000005
aa(lp107
F73.957
aF4.108722222
aa(lp108
F77.938
aF4.102
aa(lp109
F81.738
aF4.0869
aa(lp110
F85.79899999999999
aF4.085666667
aa(lp111
F89.71799999999999
aF4.078090909
aa(lp112
F101.921
aF4.07684
aa(lp113
F134.244
aF4.0680000000000005
aa(lp114
F166.46
aF4.06
aa(lp115
F170.475
aF4.058928571
aa(lp116
F234.93900000000002
aF4.050672414
aa(lp117
F238.97
aF4.0503389830000005
aa(lp118
F254.838
aF4.045047619
aa(lp119
F355.11800000000005
aF4.035431818
aassS'./Data/wc+wc-3d-c4.csv'
p120
(dp121
g3
(lp122
(lp123
F5151.0
aF2.0815
aa(lp124
F19528.0
aF4.9185
aa(lp125
F20066.0
aF5.0202
aa(lp126
F20089.0
aF5.2988
aa(lp127
F20233.0
aF5.7734
aa(lp128
F23675.0
aF32.286
aa(lp129
F25565.0
aF39.446999999999996
aa(lp130
F26373.0
aF40.169000000000004
aa(lp131
F26596.0
aF273.88
aa(lp132
F33549.0
aF321.53
aa(lp133
F35418.0
aF3138.8
aa(lp134
F36900.0
aF17797.0
aa(lp135
F41829.0
aF24516.0
aa(lp136
F41953.0
aF36772.0
aa(lp137
F65823.0
aF46988.0
aassS'./Data/wc-6d-c1.csv'
p138
(dp139
g3
(lp140
(lp141
F2906.1
aF3.3172
aa(lp142
F3022.4
aF3.3911
aa(lp143
F3070.8
aF3.3944
aa(lp144
F5400.1
aF3.714
aa(lp145
F7452.7
aF4.0717
aa(lp146
F7720.8
aF4.1567
aa(lp147
F10600.0
aF5.8378
aa(lp148
F10890.0
aF5.9394
aa(lp149
F12951.0
aF7.4564
aa(lp150
F13260.0
aF7.6618
aa(lp151
F13513.0
aF7.7715
aa(lp152
F13519.0
aF7.825
aa(lp153
F13699.0
aF7.8794
aa(lp154
F14299.0
aF7.907
aa(lp155
F18199.0
aF17.336
aa(lp156
F18617.0
aF17.469
aa(lp157
F19217.0
aF17.840999999999998
aa(lp158
F19542.0
aF18.180999999999997
aa(lp159
F19597.0
aF18.542
aa(lp160
F22829.0
aF45.261
aa(lp161
F30962.0
aF1087.6
aa(lp162
F34740.0
aF1130.6
aassS'./Data/wc-5d-c5.csv'
p163
(dp164
g3
(lp165
(lp166
F20591.0
aF47.387
aassS'./Data/wc-c3-3d-c1.csv'
p167
(dp168
g3
(lp169
(lp170
F10871.0
aF247.45
aa(lp171
F11930.0
aF250.78
aassS'./Data/x264-DB_4_5.csv'
p172
(dp173
g3
(lp174
(lp175
F0.0
aF0.0
aa(lp176
F0.0
aF0.0
aa(lp177
F0.0
aF0.0
aa(lp178
F0.0
aF0.0
aassS'./Data/sort_256.csv'
p179
(dp180
g3
(lp181
(lp182
F15.39590226
aF14.71664238
aa(lp183
F15.48733762
aF14.60766939
aa(lp184
F15.56718368
aF13.49537757
aa(lp185
F15.762459900000001
aF12.82026986
aa(lp186
F16.24881706
aF12.12185067
aassS'./Data/wc-c1-3d-c1.csv'
p187
(dp188
g3
(lp189
(lp190
F22124.0
aF148.88
aa(lp191
F22799.0
aF156.83
aa(lp192
F23075.0
aF158.68
aassS'./Data/xomo_flight-p10000-d27-o4-dataset1.csv'
p193
(dp194
g3
(lp195
(lp196
F6.047222022000001
aF6.422422171
aa(lp197
F6.359124536
aF5.420340662999999
aa(lp198
F10.71878433
aF5.348895805
aassS'./Data/x264-DB_3_4.csv'
p199
(dp200
g3
(lp201
(lp202
F0.642351
aF0.0
aassS'./Data/xomo_flight-p10000-d27-o4-dataset2.csv'
p203
(dp204
g3
(lp205
(lp206
F5.348895805
aF24.74316384
aa(lp207
F6.422422171
aF13.05113679
aa(lp208
F7.996385722
aF11.447263099999999
aassS'./Data/xomo_all-p10000-d27-o4-dataset1.csv'
p209
(dp210
g3
(lp211
(lp212
F3.7079667260000004
aF4.568049923999999
aassS'./Data/x264-DB_5_6.csv'
p213
(dp214
g3
(lp215
(lp216
F0.0
aF31.2
aa(lp217
F117.375
aF10.72
aa(lp218
F135.2333333
aF10.71
aa(lp219
F136.6
aF9.31
aa(lp220
F144.25
aF9.14
aa(lp221
F146.65
aF8.9
aass.