(dp0
S'complaint_data'
p1
(lp2
(lp3
F245.16
aF28.0
aa(lp4
F242.86
aF28.0
aa(lp5
F244.59
aF28.0
aa(lp6
F241.02
aF28.0
aa(lp7
F264.93
aF19.0
aa(lp8
F254.34
aF28.0
aa(lp9
F251.91
aF18.0
aag9
ag3
a(lp10
F269.52
aF19.0
aa(lp11
F243.37
aF29.0
aa(lp12
F239.27
aF29.0
aa(lp13
F239.93
aF28.0
aa(lp14
F246.76
aF28.0
aa(lp15
F255.21
aF28.0
aa(lp16
F246.03
aF28.0
aag4
a(lp17
F237.75
aF29.0
aa(lp18
F245.94
aF28.0
aag18
ag15
a(lp19
F240.41
aF28.0
aa(lp20
F253.15
aF18.0
aag14
a(lp21
F242.79
aF29.0
aag16
a(lp22
F241.97
aF28.0
aag8
ag7
a(lp23
F255.43
aF28.0
aag23
a(lp24
F242.09
aF28.0
aa(lp25
F256.25
aF28.0
aag24
ag6
ag25
ag22
a(lp26
F244.26
aF28.0
aag20
ag10
asS'convex_hull_y'
p27
(lp28
cnumpy.core.multiarray
scalar
p29
(cnumpy
dtype
p30
(S'f8'
p31
I0
I1
tp32
Rp33
(I3
S'<'
p34
NNNI-1
I-1
I0
tp35
bS'\x1f\xfe\xcd\xcb8\xf0\n@'
p36
tp37
Rp38
ag29
(g33
S'\x86\x91k:{\x1f\x07@'
p39
tp40
Rp41
ag29
(g33
S'\x86\x91k:{\x1f\x07@'
p42
tp43
Rp44
ag29
(g33
S',\xb3\x04\x066\x8e\x07@'
p45
tp46
Rp47
ag29
(g33
S'#J\x96\xd6Z\xa8\n@'
p48
tp49
Rp50
ag29
(g33
S'\x1f\xfe\xcd\xcb8\xf0\n@'
p51
tp52
Rp53
asS'convex_hull_x'
p54
(lp55
g29
(g33
S'\xe3i\xdbj\x87\xe2\x15@'
p56
tp57
Rp58
ag29
(g33
S'N+\xe6\x04\xc5\x1d\x16@'
p59
tp60
Rp61
ag29
(g33
S'\xc6^\xbb:\xcc"\x16@'
p62
tp63
Rp64
ag29
(g33
S'J\x1c\nG\xf6b\x16@'
p65
tp66
Rp67
ag29
(g33
S'E\x8e\xff\xdeB/\x16@'
p68
tp69
Rp70
ag29
(g33
S'\x14\xfd\xd9\xf1s\xfa\x15@'
p71
tp72
Rp73
asS'current_pf'
p74
(lp75
(lp76
F240.16
aF29.0
aag25
a(lp77
F266.21
aF20.0
aa(lp78
F268.42
aF19.0
aasS'all_data_dep'
p79
(lp80
(lp81
F219.87
aF29.0
aag77
a(lp82
F259.26
aF19.0
aa(lp83
F244.91
aF19.0
aa(lp84
F263.04
aF12.0
aa(lp85
F218.73
aF29.0
aa(lp86
F215.02
aF28.0
aa(lp87
F254.47
aF28.0
aa(lp88
F251.57
aF15.0
aa(lp89
F231.39
aF18.0
aa(lp90
F227.19
aF19.0
aa(lp91
F258.9
aF12.0
aa(lp92
F266.32
aF11.0
aa(lp93
F205.09
aF29.0
aa(lp94
F219.95
aF27.0
aa(lp95
F240.99
aF16.0
aa(lp96
F259.5
aF12.0
aa(lp97
F237.52
aF15.0
aa(lp98
F232.96
aF15.0
aa(lp99
F252.89
aF16.0
aa(lp100
F239.24
aF15.0
aa(lp101
F229.79
aF29.0
aa(lp102
F244.12
aF14.0
aa(lp103
F231.77
aF18.0
aa(lp104
F217.47
aF14.0
aa(lp105
F243.78
aF15.0
aa(lp106
F251.02
aF18.0
aa(lp107
F235.53
aF16.0
aag78
a(lp108
F251.81
aF28.0
aa(lp109
F233.12
aF28.0
aa(lp110
F267.04
aF18.0
aa(lp111
F232.03
aF28.0
aa(lp112
F233.0
aF29.0
aa(lp113
F215.47
aF14.0
aa(lp114
F253.49
aF28.0
aa(lp115
F229.64
aF19.0
aag3
a(lp116
F254.59
aF15.0
aa(lp117
F204.51
aF29.0
aa(lp118
F244.25
aF15.0
aa(lp119
F250.44
aF15.0
aa(lp120
F262.22
aF18.0
aa(lp121
F239.04
aF28.0
aa(lp122
F238.23
aF28.0
aa(lp123
F247.28
aF28.0
aa(lp124
F231.34
aF28.0
aa(lp125
F263.59
aF19.0
aa(lp126
F253.47
aF15.0
aa(lp127
F208.99
aF15.0
aa(lp128
F232.0
aF28.0
aa(lp129
F234.06
aF28.0
aa(lp130
F253.67
aF18.0
aa(lp131
F206.62
aF29.0
aa(lp132
F220.82
aF29.0
aa(lp133
F221.06
aF29.0
aa(lp134
F252.81
aF28.0
aa(lp135
F230.74
aF29.0
aa(lp136
F266.39
aF12.0
aa(lp137
F243.52
aF28.0
aa(lp138
F234.08
aF18.0
aa(lp139
F268.38
aF19.0
aa(lp140
F270.4
aF19.0
aa(lp141
F235.95
aF27.0
aa(lp142
F244.92
aF16.0
aag119
a(lp143
F252.68
aF18.0
aa(lp144
F201.55
aF29.0
aa(lp145
F248.4
aF16.0
aa(lp146
F234.68
aF19.0
aa(lp147
F235.79
aF28.0
aa(lp148
F227.12
aF29.0
aa(lp149
F231.31
aF28.0
aa(lp150
F229.3
aF18.0
aa(lp151
F228.97
aF19.0
aa(lp152
F217.55
aF26.0
aa(lp153
F246.61
aF18.0
aa(lp154
F232.2
aF28.0
aa(lp155
F265.38
aF11.0
aa(lp156
F233.79
aF28.0
aa(lp157
F268.58
aF19.0
aa(lp158
F257.33
aF15.0
aa(lp159
F223.3
aF29.0
aa(lp160
F219.4
aF29.0
aa(lp161
F201.52
aF26.0
aa(lp162
F224.3
aF28.0
aa(lp163
F239.59
aF27.0
aa(lp164
F215.88
aF14.0
aa(lp165
F202.23
aF26.0
aa(lp166
F223.98
aF29.0
aa(lp167
F250.87
aF28.0
aa(lp168
F235.78
aF28.0
aa(lp169
F243.12
aF28.0
aag139
ag76
ag106
a(lp170
F267.28
aF19.0
aa(lp171
F252.87
aF28.0
aa(lp172
F251.25
aF15.0
aa(lp173
F251.71
aF28.0
aa(lp174
F230.57
aF18.0
aa(lp175
F239.96
aF28.0
aa(lp176
F264.18
aF11.0
aa(lp177
F209.84
aF14.0
aa(lp178
F214.24
aF29.0
aa(lp179
F229.95
aF19.0
aa(lp180
F260.41
aF12.0
aa(lp181
F216.3
aF28.0
aa(lp182
F233.85
aF27.0
aa(lp183
F240.43
aF28.0
aa(lp184
F247.72
aF19.0
aa(lp185
F265.82
aF19.0
aa(lp186
F219.5
aF26.0
aa(lp187
F244.61
aF28.0
aa(lp188
F224.49
aF18.0
aa(lp189
F249.34
aF20.0
aa(lp190
F236.84
aF15.0
aa(lp191
F223.01
aF29.0
aa(lp192
F252.04
aF15.0
aa(lp193
F228.86
aF19.0
aa(lp194
F203.98
aF29.0
aa(lp195
F206.12
aF29.0
aa(lp196
F261.68
aF19.0
aa(lp197
F253.64
aF19.0
aa(lp198
F205.13
aF26.0
aa(lp199
F218.15
aF14.0
aa(lp200
F222.56
aF29.0
aa(lp201
F247.69
aF28.0
aa(lp202
F248.02
aF28.0
aa(lp203
F243.96
aF28.0
aag155
a(lp204
F251.43
aF28.0
aa(lp205
F250.45
aF18.0
aa(lp206
F227.39
aF29.0
aa(lp207
F239.32
aF15.0
aa(lp208
F251.74
aF28.0
aa(lp209
F218.23
aF14.0
aa(lp210
F248.78
aF15.0
aa(lp211
F238.75
aF28.0
aa(lp212
F249.68
aF15.0
aa(lp213
F208.92
aF29.0
aa(lp214
F247.43
aF17.0
aa(lp215
F224.18
aF29.0
aa(lp216
F247.08
aF20.0
aa(lp217
F239.37
aF28.0
aa(lp218
F257.17
aF12.0
aa(lp219
F225.5
aF29.0
aa(lp220
F245.32
aF19.0
aa(lp221
F211.19
aF14.0
aa(lp222
F232.52
aF18.0
aa(lp223
F236.43
aF28.0
aa(lp224
F249.12
aF20.0
aa(lp225
F236.38
aF27.0
aa(lp226
F231.33
aF18.0
aa(lp227
F256.94
aF11.0
aa(lp228
F255.17
aF15.0
aa(lp229
F221.33
aF29.0
aa(lp230
F210.51
aF15.0
aa(lp231
F233.42
aF28.0
aa(lp232
F262.66
aF19.0
aag136
a(lp233
F208.05
aF29.0
aag170
ag185
a(lp234
F224.07
aF29.0
aa(lp235
F227.99
aF18.0
aa(lp236
F207.89
aF29.0
aa(lp237
F221.17
aF29.0
aa(lp238
F256.23
aF15.0
aa(lp239
F219.37
aF29.0
aa(lp240
F223.52
aF29.0
aa(lp241
F226.88
aF18.0
aa(lp242
F245.5
aF17.0
aa(lp243
F260.17
aF18.0
aag176
a(lp244
F248.19
aF17.0
aa(lp245
F226.13
aF29.0
aa(lp246
F247.08
aF19.0
aa(lp247
F250.04
aF15.0
aa(lp248
F205.71
aF29.0
aag4
a(lp249
F253.39
aF15.0
aag172
a(lp250
F243.08
aF14.0
aa(lp251
F219.33
aF29.0
aa(lp252
F228.27
aF18.0
aag247
a(lp253
F215.19
aF29.0
aag5
a(lp254
F215.94
aF14.0
aa(lp255
F251.01
aF28.0
aa(lp256
F212.71
aF15.0
aa(lp257
F228.47
aF18.0
aa(lp258
F210.24
aF14.0
aa(lp259
F235.03
aF15.0
aa(lp260
F241.23
aF28.0
aa(lp261
F248.81
aF20.0
aa(lp262
F267.43
aF12.0
aa(lp263
F212.92
aF29.0
aa(lp264
F212.45
aF26.0
aa(lp265
F250.12
aF16.0
aa(lp266
F235.37
aF28.0
aa(lp267
F255.32
aF28.0
aa(lp268
F235.97
aF15.0
aa(lp269
F250.05
aF28.0
aag6
a(lp270
F251.79
aF17.0
aa(lp271
F224.33
aF29.0
aa(lp272
F235.92
aF15.0
aa(lp273
F248.54
aF20.0
aag78
a(lp274
F201.9
aF26.0
aa(lp275
F243.93
aF16.0
aag198
a(lp276
F259.38
aF12.0
aa(lp277
F253.26
aF20.0
aag7
a(lp278
F234.34
aF15.0
aa(lp279
F256.45
aF20.0
aa(lp280
F224.43
aF29.0
aa(lp281
F239.06
aF15.0
aa(lp282
F266.03
aF12.0
aa(lp283
F260.5
aF19.0
aa(lp284
F226.57
aF19.0
aa(lp285
F265.65
aF12.0
aa(lp286
F230.24
aF28.0
aa(lp287
F207.75
aF15.0
aa(lp288
F224.95
aF29.0
aa(lp289
F217.29
aF14.0
aa(lp290
F202.94
aF29.0
aa(lp291
F212.05
aF15.0
aa(lp292
F221.73
aF29.0
aa(lp293
F237.9
aF28.0
aa(lp294
F218.02
aF27.0
aa(lp295
F202.81
aF29.0
aa(lp296
F213.86
aF29.0
aa(lp297
F246.65
aF18.0
aa(lp298
F210.71
aF15.0
aag266
a(lp299
F232.62
aF28.0
aag225
a(lp300
F215.31
aF14.0
aag8
a(lp301
F236.36
aF28.0
aa(lp302
F218.1
aF29.0
aa(lp303
F232.29
aF19.0
aa(lp304
F246.5
aF15.0
aa(lp305
F220.87
aF28.0
aa(lp306
F267.59
aF18.0
aa(lp307
F211.59
aF15.0
aag213
a(lp308
F239.51
aF15.0
aa(lp309
F269.47
aF19.0
aa(lp310
F234.87
aF28.0
aa(lp311
F254.27
aF16.0
aa(lp312
F242.46
aF16.0
aa(lp313
F232.22
aF29.0
aa(lp314
F235.7
aF28.0
aa(lp315
F237.44
aF15.0
aag9
ag143
a(lp316
F218.43
aF26.0
aa(lp317
F214.25
aF14.0
aa(lp318
F212.44
aF15.0
aa(lp319
F233.28
aF19.0
aag9
a(lp320
F254.5
aF28.0
aa(lp321
F236.06
aF29.0
aa(lp322
F235.21
aF28.0
aag300
a(lp323
F214.33
aF26.0
aa(lp324
F235.12
aF28.0
aag233
a(lp325
F226.65
aF29.0
aa(lp326
F266.19
aF12.0
aa(lp327
F251.24
aF16.0
aa(lp328
F263.79
aF19.0
aa(lp329
F201.15
aF26.0
aa(lp330
F256.22
aF15.0
aag130
ag234
a(lp331
F236.35
aF28.0
aa(lp332
F223.34
aF29.0
aa(lp333
F239.56
aF28.0
aa(lp334
F230.59
aF28.0
aag3
a(lp335
F205.99
aF26.0
aa(lp336
F236.23
aF16.0
aa(lp337
F246.73
aF20.0
aa(lp338
F267.17
aF12.0
aa(lp339
F247.99
aF28.0
aag305
a(lp340
F232.14
aF19.0
aa(lp341
F237.1
aF28.0
aa(lp342
F249.56
aF15.0
aa(lp343
F221.44
aF29.0
aa(lp344
F216.91
aF14.0
aa(lp345
F257.54
aF20.0
aag152
a(lp346
F252.5
aF18.0
aa(lp347
F253.74
aF28.0
aa(lp348
F233.74
aF16.0
aa(lp349
F223.42
aF29.0
aa(lp350
F218.4
aF26.0
aa(lp351
F219.05
aF29.0
aa(lp352
F234.65
aF16.0
aa(lp353
F242.5
aF15.0
aa(lp354
F247.01
aF15.0
aa(lp355
F252.77
aF28.0
aag10
ag101
a(lp356
F253.1
aF20.0
aag154
a(lp357
F247.27
aF20.0
aa(lp358
F233.0
aF28.0
aa(lp359
F217.29
aF14.0
aa(lp360
F249.3
aF19.0
aa(lp361
F204.96
aF29.0
aa(lp362
F231.0
aF29.0
aa(lp363
F261.01
aF12.0
aa(lp364
F231.16
aF19.0
aag131
a(lp365
F266.12
aF12.0
aag159
a(lp366
F229.24
aF28.0
aa(lp367
F264.64
aF11.0
aa(lp368
F254.24
aF20.0
aag11
a(lp369
F232.98
aF28.0
aag320
a(lp370
F266.45
aF18.0
aa(lp371
F215.85
aF28.0
aa(lp372
F236.58
aF28.0
aa(lp373
F257.68
aF12.0
aag344
a(lp374
F252.52
aF15.0
aag183
a(lp375
F211.74
aF15.0
aa(lp376
F260.88
aF12.0
aa(lp377
F248.34
aF28.0
aa(lp378
F216.22
aF26.0
aa(lp379
F211.27
aF15.0
aa(lp380
F231.22
aF29.0
aag158
a(lp381
F250.26
aF15.0
aa(lp382
F217.7
aF29.0
aa(lp383
F222.56
aF29.0
aa(lp384
F237.41
aF28.0
aa(lp385
F246.5
aF28.0
aa(lp386
F230.74
aF29.0
aa(lp387
F242.43
aF28.0
aa(lp388
F242.16
aF15.0
aa(lp389
F212.94
aF14.0
aag341
a(lp390
F247.8
aF28.0
aa(lp391
F264.6
aF18.0
aag12
a(lp392
F245.79
aF18.0
aa(lp393
F231.69
aF18.0
aa(lp394
F240.35
aF28.0
aag219
a(lp395
F228.34
aF29.0
aa(lp396
F237.36
aF28.0
aa(lp397
F255.42
aF15.0
aa(lp398
F216.4
aF29.0
aag167
a(lp399
F214.15
aF15.0
aa(lp400
F242.81
aF28.0
aa(lp401
F248.6
aF16.0
aa(lp402
F245.56
aF16.0
aa(lp403
F264.18
aF12.0
aag238
a(lp404
F237.35
aF28.0
aa(lp405
F240.54
aF15.0
aa(lp406
F218.3
aF29.0
aa(lp407
F236.31
aF28.0
aa(lp408
F258.05
aF20.0
aa(lp409
F265.42
aF19.0
aag232
a(lp410
F223.49
aF29.0
aa(lp411
F264.74
aF12.0
aag289
ag321
ag393
a(lp412
F245.34
aF15.0
aa(lp413
F231.33
aF16.0
aag13
a(lp414
F235.85
aF28.0
aa(lp415
F266.54
aF12.0
aa(lp416
F212.52
aF15.0
aa(lp417
F265.4
aF12.0
aag255
a(lp418
F263.72
aF19.0
aag88
a(lp419
F226.13
aF18.0
aa(lp420
F260.82
aF12.0
aa(lp421
F247.87
aF18.0
aa(lp422
F246.94
aF16.0
aa(lp423
F247.13
aF18.0
aa(lp424
F232.99
aF27.0
aa(lp425
F224.51
aF29.0
aa(lp426
F261.43
aF12.0
aa(lp427
F243.79
aF14.0
aa(lp428
F253.51
aF28.0
aag310
a(lp429
F225.34
aF18.0
aa(lp430
F268.8
aF18.0
aa(lp431
F251.25
aF18.0
aa(lp432
F222.16
aF29.0
aa(lp433
F245.79
aF16.0
aa(lp434
F234.13
aF28.0
aa(lp435
F232.96
aF18.0
aa(lp436
F215.85
aF14.0
aa(lp437
F246.94
aF20.0
aa(lp438
F212.45
aF15.0
aa(lp439
F227.53
aF19.0
aa(lp440
F244.28
aF28.0
aa(lp441
F251.09
aF15.0
aa(lp442
F219.31
aF28.0
aag368
a(lp443
F246.38
aF16.0
aa(lp444
F247.61
aF28.0
aa(lp445
F253.82
aF16.0
aa(lp446
F219.87
aF29.0
aa(lp447
F234.25
aF28.0
aag436
ag396
a(lp448
F227.64
aF29.0
aa(lp449
F248.03
aF19.0
aa(lp450
F226.7
aF29.0
aag223
a(lp451
F226.57
aF29.0
aa(lp452
F255.44
aF12.0
aa(lp453
F248.9
aF28.0
aa(lp454
F218.82
aF29.0
aag254
ag343
a(lp455
F259.38
aF12.0
aa(lp456
F232.05
aF27.0
aa(lp457
F213.41
aF15.0
aa(lp458
F259.39
aF11.0
aa(lp459
F245.6
aF28.0
aa(lp460
F227.15
aF19.0
aag315
a(lp461
F199.95
aF26.0
aa(lp462
F238.25
aF16.0
aa(lp463
F250.24
aF28.0
aa(lp464
F252.62
aF15.0
aag324
a(lp465
F251.0
aF19.0
aag327
ag14
a(lp466
F231.44
aF29.0
aa(lp467
F237.5
aF16.0
aa(lp468
F227.73
aF18.0
aa(lp469
F245.2
aF28.0
aa(lp470
F232.33
aF16.0
aa(lp471
F234.47
aF29.0
aa(lp472
F251.41
aF20.0
aa(lp473
F230.79
aF29.0
aa(lp474
F207.12
aF29.0
aa(lp475
F237.47
aF28.0
aa(lp476
F219.83
aF28.0
aa(lp477
F240.99
aF15.0
aa(lp478
F264.74
aF19.0
aa(lp479
F209.58
aF15.0
aag346
a(lp480
F214.48
aF15.0
aa(lp481
F236.89
aF15.0
aa(lp482
F257.71
aF12.0
aa(lp483
F256.18
aF19.0
aa(lp484
F218.96
aF28.0
aa(lp485
F243.44
aF28.0
aa(lp486
F232.86
aF16.0
aa(lp487
F238.7
aF28.0
aag356
a(lp488
F236.59
aF28.0
aa(lp489
F204.96
aF29.0
aa(lp490
F240.07
aF16.0
aa(lp491
F258.83
aF20.0
aag359
a(lp492
F249.28
aF20.0
aa(lp493
F262.01
aF12.0
aa(lp494
F222.37
aF29.0
aag245
a(lp495
F252.58
aF20.0
aag207
ag271
a(lp496
F230.94
aF19.0
aa(lp497
F229.19
aF18.0
aag365
a(lp498
F207.65
aF29.0
aa(lp499
F248.89
aF20.0
aa(lp500
F247.67
aF18.0
aag448
a(lp501
F261.57
aF19.0
aag228
a(lp502
F228.28
aF28.0
aa(lp503
F251.79
aF28.0
aa(lp504
F234.25
aF16.0
aag81
ag174
ag404
a(lp505
F235.31
aF27.0
aa(lp506
F214.37
aF26.0
aag175
a(lp507
F237.69
aF15.0
aa(lp508
F252.09
aF18.0
aa(lp509
F213.0
aF15.0
aa(lp510
F261.9
aF12.0
aa(lp511
F257.04
aF12.0
aa(lp512
F252.14
aF20.0
aa(lp513
F238.56
aF28.0
aa(lp514
F205.36
aF29.0
aa(lp515
F264.17
aF20.0
aa(lp516
F220.57
aF29.0
aag149
ag105
a(lp517
F244.23
aF28.0
aa(lp518
F252.13
aF15.0
aa(lp519
F201.7
aF29.0
aag514
a(lp520
F243.26
aF28.0
aa(lp521
F251.16
aF28.0
aag87
a(lp522
F214.0
aF28.0
aag517
ag503
ag387
a(lp523
F251.52
aF18.0
aa(lp524
F237.23
aF28.0
aag478
ag97
ag338
a(lp525
F252.45
aF18.0
aa(lp526
F236.98
aF28.0
aa(lp527
F242.55
aF15.0
aa(lp528
F232.59
aF28.0
aa(lp529
F241.23
aF28.0
aa(lp530
F241.69
aF15.0
aag15
a(lp531
F267.17
aF19.0
aa(lp532
F239.79
aF15.0
aa(lp533
F259.76
aF19.0
aa(lp534
F203.86
aF29.0
aa(lp535
F248.71
aF18.0
aa(lp536
F216.84
aF14.0
aa(lp537
F248.06
aF15.0
aa(lp538
F260.69
aF19.0
aa(lp539
F215.18
aF28.0
aa(lp540
F224.99
aF19.0
aa(lp541
F213.48
aF28.0
aa(lp542
F200.82
aF29.0
aag16
ag428
ag124
a(lp543
F254.39
aF15.0
aa(lp544
F218.56
aF29.0
aa(lp545
F214.89
aF29.0
aa(lp546
F234.22
aF28.0
aa(lp547
F218.12
aF29.0
aa(lp548
F221.62
aF29.0
aag122
a(lp549
F251.3
aF18.0
aa(lp550
F218.62
aF14.0
aa(lp551
F203.19
aF29.0
aag103
a(lp552
F229.31
aF28.0
aa(lp553
F232.7
aF28.0
aag138
ag483
ag222
a(lp554
F264.47
aF20.0
aag202
ag4
a(lp555
F234.56
aF28.0
aa(lp556
F237.7
aF28.0
aag148
ag123
a(lp557
F254.13
aF20.0
aa(lp558
F214.05
aF15.0
aa(lp559
F222.09
aF29.0
aa(lp560
F231.25
aF19.0
aa(lp561
F228.3
aF29.0
aa(lp562
F251.52
aF20.0
aag240
a(lp563
F220.42
aF29.0
aa(lp564
F266.11
aF18.0
aa(lp565
F255.64
aF15.0
aa(lp566
F214.28
aF29.0
aag17
a(lp567
F249.99
aF28.0
aa(lp568
F211.48
aF14.0
aa(lp569
F224.34
aF29.0
aa(lp570
F203.93
aF29.0
aag350
a(lp571
F233.28
aF19.0
aag93
ag18
a(lp572
F247.31
aF18.0
aa(lp573
F220.08
aF28.0
aa(lp574
F222.19
aF29.0
aag385
a(lp575
F207.1
aF29.0
aag18
a(lp576
F255.02
aF19.0
aag92
a(lp577
F253.57
aF28.0
aag195
ag417
ag265
ag211
ag262
a(lp578
F209.7
aF15.0
aa(lp579
F217.9
aF29.0
aag249
a(lp580
F232.49
aF28.0
aag560
a(lp581
F234.05
aF28.0
aa(lp582
F222.24
aF29.0
aag498
a(lp583
F228.56
aF28.0
aa(lp584
F251.31
aF15.0
aa(lp585
F231.91
aF15.0
aa(lp586
F251.98
aF28.0
aag326
a(lp587
F223.07
aF29.0
aa(lp588
F260.77
aF12.0
aag425
ag407
a(lp589
F230.14
aF18.0
aa(lp590
F256.06
aF12.0
aa(lp591
F200.92
aF29.0
aa(lp592
F227.18
aF29.0
aag523
a(lp593
F247.25
aF16.0
aa(lp594
F235.51
aF28.0
aag15
a(lp595
F216.23
aF28.0
aag19
a(lp596
F251.52
aF18.0
aa(lp597
F252.82
aF28.0
aa(lp598
F233.43
aF15.0
aag330
ag205
a(lp599
F251.24
aF16.0
aag209
ag301
a(lp600
F235.16
aF28.0
aag403
ag408
ag596
ag574
ag94
a(lp601
F201.97
aF29.0
aag20
a(lp602
F227.91
aF29.0
aa(lp603
F219.64
aF14.0
aa(lp604
F234.45
aF28.0
aag14
ag328
a(lp605
F202.69
aF29.0
aa(lp606
F214.65
aF28.0
aag146
ag334
ag340
a(lp607
F255.62
aF20.0
aa(lp608
F225.16
aF29.0
aa(lp609
F206.9
aF26.0
aa(lp610
F201.47
aF29.0
aag268
a(lp611
F218.04
aF28.0
aag565
a(lp612
F219.08
aF29.0
aag293
a(lp613
F240.98
aF28.0
aag21
a(lp614
F261.09
aF18.0
aag199
ag279
a(lp615
F206.43
aF29.0
aa(lp616
F220.37
aF29.0
aa(lp617
F264.16
aF19.0
aag345
a(lp618
F228.72
aF29.0
aa(lp619
F249.81
aF19.0
aa(lp620
F249.66
aF16.0
aa(lp621
F237.51
aF28.0
aa(lp622
F250.6
aF28.0
aag520
ag529
a(lp623
F249.41
aF28.0
aa(lp624
F258.02
aF19.0
aag584
ag239
a(lp625
F232.64
aF28.0
aa(lp626
F250.43
aF18.0
aa(lp627
F242.56
aF28.0
aa(lp628
F223.21
aF29.0
aa(lp629
F220.21
aF29.0
aag418
ag16
ag415
ag186
a(lp630
F231.89
aF28.0
aa(lp631
F261.08
aF12.0
aa(lp632
F247.26
aF18.0
aa(lp633
F246.32
aF16.0
aa(lp634
F264.93
aF19.0
aag600
a(lp635
F232.65
aF27.0
aa(lp636
F267.07
aF12.0
aa(lp637
F217.09
aF29.0
aa(lp638
F233.43
aF29.0
aa(lp639
F201.83
aF29.0
aa(lp640
F216.87
aF28.0
aag575
a(lp641
F202.68
aF29.0
aa(lp642
F205.74
aF29.0
aa(lp643
F254.14
aF20.0
aa(lp644
F236.53
aF29.0
aag351
ag282
ag451
a(lp645
F234.1
aF28.0
aag115
ag485
ag303
ag288
a(lp646
F199.68
aF29.0
aag609
a(lp647
F230.77
aF19.0
aag435
ag474
ag281
a(lp648
F231.62
aF28.0
aa(lp649
F249.34
aF18.0
aa(lp650
F227.29
aF18.0
aa(lp651
F238.1
aF28.0
aag22
a(lp652
F227.94
aF28.0
aa(lp653
F222.63
aF29.0
aag157
a(lp654
F234.75
aF28.0
aa(lp655
F241.78
aF28.0
aa(lp656
F226.5
aF29.0
aag163
a(lp657
F250.07
aF28.0
aa(lp658
F252.27
aF16.0
aa(lp659
F225.77
aF28.0
aa(lp660
F254.89
aF19.0
aag618
a(lp661
F246.09
aF15.0
aa(lp662
F231.76
aF29.0
aa(lp663
F236.24
aF16.0
aag488
a(lp664
F232.64
aF29.0
aa(lp665
F216.91
aF29.0
aag8
a(lp666
F221.01
aF29.0
aag384
a(lp667
F233.54
aF28.0
aa(lp668
F203.64
aF26.0
aa(lp669
F246.01
aF19.0
aa(lp670
F217.29
aF29.0
aag7
a(lp671
F200.38
aF29.0
aag23
ag267
a(lp672
F247.79
aF15.0
aa(lp673
F247.17
aF28.0
aa(lp674
F210.34
aF27.0
aa(lp675
F231.8
aF28.0
aag675
ag586
a(lp676
F234.05
aF28.0
aag269
a(lp677
F240.34
aF28.0
aa(lp678
F263.19
aF12.0
aa(lp679
F220.98
aF29.0
aa(lp680
F238.73
aF28.0
aa(lp681
F244.85
aF15.0
aa(lp682
F233.12
aF29.0
aag491
ag388
a(lp683
F264.6
aF19.0
aa(lp684
F237.06
aF28.0
aa(lp685
F248.43
aF17.0
aa(lp686
F229.21
aF18.0
aag553
a(lp687
F257.51
aF20.0
aag496
a(lp688
F259.37
aF12.0
aa(lp689
F248.65
aF18.0
aag23
a(lp690
F218.32
aF14.0
aa(lp691
F232.47
aF28.0
aag116
ag431
ag494
ag495
a(lp692
F219.08
aF29.0
aa(lp693
F232.76
aF18.0
aa(lp694
F241.78
aF14.0
aag608
ag108
ag104
ag212
a(lp695
F228.65
aF19.0
aag603
ag619
a(lp696
F251.58
aF19.0
aag543
ag442
a(lp697
F255.47
aF20.0
aag524
ag355
a(lp698
F211.59
aF15.0
aa(lp699
F250.57
aF16.0
aa(lp700
F249.44
aF28.0
aa(lp701
F216.92
aF14.0
aag294
a(lp702
F258.16
aF12.0
aa(lp703
F231.63
aF27.0
aa(lp704
F234.7
aF28.0
aa(lp705
F219.15
aF29.0
aag395
a(lp706
F240.62
aF16.0
aag24
a(lp707
F248.58
aF18.0
aa(lp708
F249.83
aF18.0
aag353
a(lp709
F238.27
aF28.0
aa(lp710
F202.06
aF29.0
aa(lp711
F249.62
aF16.0
aag285
ag592
a(lp712
F221.61
aF29.0
aa(lp713
F227.75
aF18.0
aa(lp714
F249.04
aF28.0
aa(lp715
F233.15
aF29.0
aag25
a(lp716
F252.68
aF19.0
aa(lp717
F203.56
aF29.0
aag701
a(lp718
F235.73
aF28.0
aag599
a(lp719
F250.37
aF17.0
aa(lp720
F226.75
aF18.0
aa(lp721
F236.89
aF29.0
aag118
a(lp722
F238.78
aF16.0
aag636
a(lp723
F214.38
aF15.0
aa(lp724
F235.85
aF28.0
aa(lp725
F230.13
aF28.0
aag367
ag308
ag690
ag581
ag693
ag141
ag525
a(lp726
F215.03
aF29.0
aa(lp727
F235.23
aF27.0
aag210
ag484
a(lp728
F249.74
aF17.0
aag571
ag617
a(lp729
F259.69
aF12.0
aa(lp730
F248.74
aF16.0
aa(lp731
F261.36
aF19.0
aag24
ag727
ag6
ag464
a(lp732
F213.53
aF26.0
aag316
a(lp733
F252.06
aF20.0
aag477
a(lp734
F211.0
aF14.0
aa(lp735
F241.7
aF29.0
aag573
a(lp736
F213.1
aF15.0
aag317
a(lp737
F215.13
aF27.0
aa(lp738
F251.91
aF16.0
aa(lp739
F231.04
aF15.0
aag536
ag25
ag164
ag508
a(lp740
F251.03
aF15.0
aa(lp741
F202.39
aF26.0
aa(lp742
F263.57
aF12.0
aa(lp743
F249.36
aF18.0
aag319
a(lp744
F244.03
aF15.0
aa(lp745
F237.87
aF15.0
aag673
ag683
a(lp746
F222.27
aF29.0
aag472
a(lp747
F215.37
aF15.0
aag687
a(lp748
F227.44
aF29.0
aa(lp749
F217.07
aF29.0
aa(lp750
F215.48
aF28.0
aa(lp751
F257.17
aF19.0
aag405
ag349
ag406
a(lp752
F246.16
aF28.0
aa(lp753
F251.32
aF28.0
aa(lp754
F254.42
aF28.0
aa(lp755
F251.93
aF28.0
aa(lp756
F229.82
aF28.0
aa(lp757
F247.47
aF16.0
aa(lp758
F216.27
aF29.0
aa(lp759
F225.8
aF18.0
aag22
a(lp760
F229.55
aF18.0
aa(lp761
F266.09
aF19.0
aa(lp762
F269.38
aF19.0
aag135
a(lp763
F269.47
aF18.0
aa(lp764
F231.32
aF29.0
aa(lp765
F234.65
aF29.0
aa(lp766
F219.97
aF29.0
aa(lp767
F251.85
aF28.0
aa(lp768
F253.65
aF20.0
aag744
a(lp769
F256.47
aF19.0
aag248
a(lp770
F230.69
aF18.0
aag769
a(lp771
F238.25
aF15.0
aag587
ag550
a(lp772
F262.74
aF19.0
aag394
a(lp773
F213.27
aF26.0
aa(lp774
F249.25
aF18.0
aa(lp775
F234.87
aF29.0
aag521
a(lp776
F225.26
aF29.0
aa(lp777
F200.66
aF27.0
aa(lp778
F243.81
aF16.0
aa(lp779
F227.01
aF18.0
aa(lp780
F261.53
aF12.0
aa(lp781
F249.46
aF28.0
aa(lp782
F262.68
aF19.0
aag762
ag559
ag200
a(lp783
F255.39
aF19.0
aag658
ag615
ag666
ag26
a(lp784
F230.47
aF29.0
aa(lp785
F221.25
aF29.0
aag562
a(lp786
F215.29
aF26.0
aa(lp787
F219.63
aF29.0
aag236
a(lp788
F253.15
aF19.0
aa(lp789
F246.81
aF28.0
aag331
ag335
ag612
a(lp790
F252.51
aF20.0
aag576
a(lp791
F240.05
aF15.0
aag476
a(lp792
F216.06
aF29.0
aa(lp793
F236.64
aF28.0
aag556
a(lp794
F258.56
aF18.0
aa(lp795
F216.91
aF29.0
aa(lp796
F208.37
aF15.0
aa(lp797
F246.0
aF28.0
aa(lp798
F252.28
aF28.0
aag745
ag309
ag644
ag140
a(lp799
F245.21
aF16.0
aag20
a(lp800
F248.06
aF28.0
aa(lp801
F250.73
aF20.0
aa(lp802
F232.22
aF28.0
aa(lp803
F240.21
aF28.0
aa(lp804
F224.88
aF28.0
aa(lp805
F250.62
aF19.0
aa(lp806
F218.89
aF29.0
aa(lp807
F230.17
aF16.0
aa(lp808
F203.19
aF29.0
aag314
a(lp809
F249.79
aF16.0
aag215
a(lp810
F250.48
aF28.0
aag790
a(lp811
F219.91
aF29.0
aa(lp812
F260.17
aF19.0
aa(lp813
F213.85
aF15.0
aag411
a(lp814
F219.39
aF29.0
aa(lp815
F215.96
aF28.0
aa(lp816
F262.11
aF19.0
aa(lp817
F268.41
aF18.0
aag10
a(lp818
F229.12
aF19.0
aag89
a(lp819
F250.86
aF20.0
aag724
a(lp820
F225.62
aF29.0
aag527
ag121
ag465
a(lp821
F227.78
aF29.0
aag412
asS'actual_pf'
p822
(lp823
g11
ag25
ag25
ag77
ag140
ag140
as.