(dp0
S'complaint_data'
p1
(lp2
(lp3
F254.47
aF28.0
aa(lp4
F253.49
aF28.0
aa(lp5
F245.16
aF28.0
aa(lp6
F247.69
aF28.0
aa(lp7
F251.74
aF28.0
aa(lp8
F242.86
aF28.0
aa(lp9
F251.01
aF28.0
aa(lp10
F255.32
aF28.0
aa(lp11
F250.05
aF28.0
aa(lp12
F241.02
aF28.0
aa(lp13
F264.93
aF19.0
aa(lp14
F251.91
aF18.0
aag14
a(lp15
F254.5
aF28.0
aag5
a(lp16
F247.99
aF28.0
aa(lp17
F253.74
aF28.0
aa(lp18
F269.52
aF19.0
aag15
a(lp19
F247.8
aF28.0
aag9
a(lp20
F253.51
aF28.0
aa(lp21
F246.76
aF28.0
aa(lp22
F251.16
aF28.0
aag3
a(lp23
F246.03
aF28.0
aag20
ag8
a(lp24
F249.99
aF28.0
aa(lp25
F245.94
aF28.0
aag25
a(lp26
F251.98
aF28.0
aa(lp27
F252.82
aF28.0
aa(lp28
F253.15
aF18.0
aag21
a(lp29
F250.6
aF28.0
aag23
a(lp30
F241.97
aF28.0
aa(lp31
F250.07
aF28.0
aag13
ag10
ag26
ag11
a(lp32
F249.44
aF28.0
aa(lp33
F242.09
aF28.0
aa(lp34
F249.04
aF28.0
aag33
ag12
a(lp35
F254.42
aF28.0
aa(lp36
F251.93
aF28.0
aag30
a(lp37
F251.85
aF28.0
aag22
a(lp38
F246.0
aF28.0
aag28
ag18
asS'convex_hull_y'
p39
(lp40
cnumpy.core.multiarray
scalar
p41
(cnumpy
dtype
p42
(S'f8'
p43
I0
I1
tp44
Rp45
(I3
S'<'
p46
NNNI-1
I-1
I0
tp47
bS'#J\x96\xd6Z\xa8\n@'
p48
tp49
Rp50
ag41
(g45
S'\x86\x91k:{\x1f\x07@'
p51
tp52
Rp53
ag41
(g45
S'\x86\x91k:{\x1f\x07@'
p54
tp55
Rp56
ag41
(g45
S',\xb3\x04\x066\x8e\x07@'
p57
tp58
Rp59
ag41
(g45
S'#J\x96\xd6Z\xa8\n@'
p60
tp61
Rp62
asS'convex_hull_x'
p63
(lp64
g41
(g45
S'\xc2Mr\\\x84\xf0\x15@'
p65
tp66
Rp67
ag41
(g45
S'N+\xe6\x04\xc5\x1d\x16@'
p68
tp69
Rp70
ag41
(g45
S'\xc6^\xbb:\xcc"\x16@'
p71
tp72
Rp73
ag41
(g45
S'J\x1c\nG\xf6b\x16@'
p74
tp75
Rp76
ag41
(g45
S'\x1ey\xe3\xbf\x89+\x16@'
p77
tp78
Rp79
asS'current_pf'
p80
(lp81
(lp82
F240.16
aF29.0
aag3
a(lp83
F266.21
aF20.0
aa(lp84
F268.42
aF19.0
aasS'all_data_dep'
p85
(lp86
(lp87
F219.87
aF29.0
aag83
a(lp88
F259.26
aF19.0
aa(lp89
F244.91
aF19.0
aa(lp90
F263.04
aF12.0
aa(lp91
F218.73
aF29.0
aa(lp92
F215.02
aF28.0
aag3
a(lp93
F251.57
aF15.0
aa(lp94
F231.39
aF18.0
aa(lp95
F227.19
aF19.0
aa(lp96
F258.9
aF12.0
aa(lp97
F266.32
aF11.0
aa(lp98
F205.09
aF29.0
aa(lp99
F219.95
aF27.0
aa(lp100
F240.99
aF16.0
aa(lp101
F259.5
aF12.0
aa(lp102
F237.52
aF15.0
aa(lp103
F232.96
aF15.0
aa(lp104
F252.89
aF16.0
aa(lp105
F239.24
aF15.0
aa(lp106
F229.79
aF29.0
aa(lp107
F244.12
aF14.0
aa(lp108
F231.77
aF18.0
aa(lp109
F217.47
aF14.0
aa(lp110
F243.78
aF15.0
aa(lp111
F251.02
aF18.0
aa(lp112
F235.53
aF16.0
aag84
a(lp113
F251.81
aF28.0
aa(lp114
F233.12
aF28.0
aa(lp115
F267.04
aF18.0
aa(lp116
F232.03
aF28.0
aa(lp117
F233.0
aF29.0
aa(lp118
F215.47
aF14.0
aag4
a(lp119
F229.64
aF19.0
aag5
a(lp120
F254.59
aF15.0
aa(lp121
F204.51
aF29.0
aa(lp122
F244.25
aF15.0
aa(lp123
F250.44
aF15.0
aa(lp124
F262.22
aF18.0
aa(lp125
F239.04
aF28.0
aa(lp126
F238.23
aF28.0
aa(lp127
F247.28
aF28.0
aa(lp128
F231.34
aF28.0
aa(lp129
F263.59
aF19.0
aa(lp130
F253.47
aF15.0
aa(lp131
F208.99
aF15.0
aa(lp132
F232.0
aF28.0
aa(lp133
F234.06
aF28.0
aa(lp134
F253.67
aF18.0
aa(lp135
F206.62
aF29.0
aa(lp136
F220.82
aF29.0
aa(lp137
F221.06
aF29.0
aa(lp138
F252.81
aF28.0
aa(lp139
F230.74
aF29.0
aa(lp140
F266.39
aF12.0
aa(lp141
F243.52
aF28.0
aa(lp142
F234.08
aF18.0
aa(lp143
F268.38
aF19.0
aa(lp144
F270.4
aF19.0
aa(lp145
F235.95
aF27.0
aa(lp146
F244.92
aF16.0
aag123
a(lp147
F252.68
aF18.0
aa(lp148
F201.55
aF29.0
aa(lp149
F248.4
aF16.0
aa(lp150
F234.68
aF19.0
aa(lp151
F235.79
aF28.0
aa(lp152
F227.12
aF29.0
aa(lp153
F231.31
aF28.0
aa(lp154
F229.3
aF18.0
aa(lp155
F228.97
aF19.0
aa(lp156
F217.55
aF26.0
aa(lp157
F246.61
aF18.0
aa(lp158
F232.2
aF28.0
aa(lp159
F265.38
aF11.0
aa(lp160
F233.79
aF28.0
aa(lp161
F268.58
aF19.0
aa(lp162
F257.33
aF15.0
aa(lp163
F223.3
aF29.0
aa(lp164
F219.4
aF29.0
aa(lp165
F201.52
aF26.0
aa(lp166
F224.3
aF28.0
aa(lp167
F239.59
aF27.0
aa(lp168
F215.88
aF14.0
aa(lp169
F202.23
aF26.0
aa(lp170
F223.98
aF29.0
aa(lp171
F250.87
aF28.0
aa(lp172
F235.78
aF28.0
aa(lp173
F243.12
aF28.0
aag143
ag82
ag111
a(lp174
F267.28
aF19.0
aa(lp175
F252.87
aF28.0
aa(lp176
F251.25
aF15.0
aa(lp177
F251.71
aF28.0
aa(lp178
F230.57
aF18.0
aa(lp179
F239.96
aF28.0
aa(lp180
F264.18
aF11.0
aa(lp181
F209.84
aF14.0
aa(lp182
F214.24
aF29.0
aa(lp183
F229.95
aF19.0
aa(lp184
F260.41
aF12.0
aa(lp185
F216.3
aF28.0
aa(lp186
F233.85
aF27.0
aa(lp187
F240.43
aF28.0
aa(lp188
F247.72
aF19.0
aa(lp189
F265.82
aF19.0
aa(lp190
F219.5
aF26.0
aa(lp191
F244.61
aF28.0
aa(lp192
F224.49
aF18.0
aa(lp193
F249.34
aF20.0
aa(lp194
F236.84
aF15.0
aa(lp195
F223.01
aF29.0
aa(lp196
F252.04
aF15.0
aa(lp197
F228.86
aF19.0
aa(lp198
F203.98
aF29.0
aa(lp199
F206.12
aF29.0
aa(lp200
F261.68
aF19.0
aa(lp201
F253.64
aF19.0
aa(lp202
F205.13
aF26.0
aa(lp203
F218.15
aF14.0
aa(lp204
F222.56
aF29.0
aag6
a(lp205
F248.02
aF28.0
aa(lp206
F243.96
aF28.0
aag159
a(lp207
F251.43
aF28.0
aa(lp208
F250.45
aF18.0
aa(lp209
F227.39
aF29.0
aa(lp210
F239.32
aF15.0
aag7
a(lp211
F218.23
aF14.0
aa(lp212
F248.78
aF15.0
aa(lp213
F238.75
aF28.0
aa(lp214
F249.68
aF15.0
aa(lp215
F208.92
aF29.0
aa(lp216
F247.43
aF17.0
aa(lp217
F224.18
aF29.0
aa(lp218
F247.08
aF20.0
aa(lp219
F239.37
aF28.0
aa(lp220
F257.17
aF12.0
aa(lp221
F225.5
aF29.0
aa(lp222
F245.32
aF19.0
aa(lp223
F211.19
aF14.0
aa(lp224
F232.52
aF18.0
aa(lp225
F236.43
aF28.0
aa(lp226
F249.12
aF20.0
aa(lp227
F236.38
aF27.0
aa(lp228
F231.33
aF18.0
aa(lp229
F256.94
aF11.0
aa(lp230
F255.17
aF15.0
aa(lp231
F221.33
aF29.0
aa(lp232
F210.51
aF15.0
aa(lp233
F233.42
aF28.0
aa(lp234
F262.66
aF19.0
aag140
a(lp235
F208.05
aF29.0
aag174
ag189
a(lp236
F224.07
aF29.0
aa(lp237
F227.99
aF18.0
aa(lp238
F207.89
aF29.0
aa(lp239
F221.17
aF29.0
aa(lp240
F256.23
aF15.0
aa(lp241
F219.37
aF29.0
aa(lp242
F223.52
aF29.0
aa(lp243
F226.88
aF18.0
aa(lp244
F245.5
aF17.0
aa(lp245
F260.17
aF18.0
aag180
a(lp246
F248.19
aF17.0
aa(lp247
F226.13
aF29.0
aa(lp248
F247.08
aF19.0
aa(lp249
F250.04
aF15.0
aa(lp250
F205.71
aF29.0
aag8
a(lp251
F253.39
aF15.0
aag176
a(lp252
F243.08
aF14.0
aa(lp253
F219.33
aF29.0
aa(lp254
F228.27
aF18.0
aag249
a(lp255
F215.19
aF29.0
aa(lp256
F244.59
aF28.0
aa(lp257
F215.94
aF14.0
aag9
a(lp258
F212.71
aF15.0
aa(lp259
F228.47
aF18.0
aa(lp260
F210.24
aF14.0
aa(lp261
F235.03
aF15.0
aa(lp262
F241.23
aF28.0
aa(lp263
F248.81
aF20.0
aa(lp264
F267.43
aF12.0
aa(lp265
F212.92
aF29.0
aa(lp266
F212.45
aF26.0
aa(lp267
F250.12
aF16.0
aa(lp268
F235.37
aF28.0
aag10
a(lp269
F235.97
aF15.0
aag11
ag12
a(lp270
F251.79
aF17.0
aa(lp271
F224.33
aF29.0
aa(lp272
F235.92
aF15.0
aa(lp273
F248.54
aF20.0
aag84
a(lp274
F201.9
aF26.0
aa(lp275
F243.93
aF16.0
aag202
a(lp276
F259.38
aF12.0
aa(lp277
F253.26
aF20.0
aag13
a(lp278
F234.34
aF15.0
aa(lp279
F256.45
aF20.0
aa(lp280
F224.43
aF29.0
aa(lp281
F239.06
aF15.0
aa(lp282
F266.03
aF12.0
aa(lp283
F260.5
aF19.0
aa(lp284
F226.57
aF19.0
aa(lp285
F265.65
aF12.0
aa(lp286
F230.24
aF28.0
aa(lp287
F207.75
aF15.0
aa(lp288
F224.95
aF29.0
aa(lp289
F217.29
aF14.0
aa(lp290
F202.94
aF29.0
aa(lp291
F212.05
aF15.0
aa(lp292
F221.73
aF29.0
aa(lp293
F237.9
aF28.0
aa(lp294
F218.02
aF27.0
aa(lp295
F202.81
aF29.0
aa(lp296
F213.86
aF29.0
aa(lp297
F246.65
aF18.0
aa(lp298
F210.71
aF15.0
aag268
a(lp299
F232.62
aF28.0
aag227
a(lp300
F215.31
aF14.0
aa(lp301
F254.34
aF28.0
aa(lp302
F236.36
aF28.0
aa(lp303
F218.1
aF29.0
aa(lp304
F232.29
aF19.0
aa(lp305
F246.5
aF15.0
aa(lp306
F220.87
aF28.0
aa(lp307
F267.59
aF18.0
aa(lp308
F211.59
aF15.0
aag215
a(lp309
F239.51
aF15.0
aa(lp310
F269.47
aF19.0
aa(lp311
F234.87
aF28.0
aa(lp312
F254.27
aF16.0
aa(lp313
F242.46
aF16.0
aa(lp314
F232.22
aF29.0
aa(lp315
F235.7
aF28.0
aa(lp316
F237.44
aF15.0
aag14
ag147
a(lp317
F218.43
aF26.0
aa(lp318
F214.25
aF14.0
aa(lp319
F212.44
aF15.0
aa(lp320
F233.28
aF19.0
aag14
ag15
a(lp321
F236.06
aF29.0
aa(lp322
F235.21
aF28.0
aag300
a(lp323
F214.33
aF26.0
aa(lp324
F235.12
aF28.0
aag235
a(lp325
F226.65
aF29.0
aa(lp326
F266.19
aF12.0
aa(lp327
F251.24
aF16.0
aa(lp328
F263.79
aF19.0
aa(lp329
F201.15
aF26.0
aa(lp330
F256.22
aF15.0
aag134
ag236
a(lp331
F236.35
aF28.0
aa(lp332
F223.34
aF29.0
aa(lp333
F239.56
aF28.0
aa(lp334
F230.59
aF28.0
aag5
a(lp335
F205.99
aF26.0
aa(lp336
F236.23
aF16.0
aa(lp337
F246.73
aF20.0
aa(lp338
F267.17
aF12.0
aag16
ag306
a(lp339
F232.14
aF19.0
aa(lp340
F237.1
aF28.0
aa(lp341
F249.56
aF15.0
aa(lp342
F221.44
aF29.0
aa(lp343
F216.91
aF14.0
aa(lp344
F257.54
aF20.0
aag156
a(lp345
F252.5
aF18.0
aag17
a(lp346
F233.74
aF16.0
aa(lp347
F223.42
aF29.0
aa(lp348
F218.4
aF26.0
aa(lp349
F219.05
aF29.0
aa(lp350
F234.65
aF16.0
aa(lp351
F242.5
aF15.0
aa(lp352
F247.01
aF15.0
aa(lp353
F252.77
aF28.0
aag18
ag106
a(lp354
F253.1
aF20.0
aag158
a(lp355
F247.27
aF20.0
aa(lp356
F233.0
aF28.0
aa(lp357
F217.29
aF14.0
aa(lp358
F249.3
aF19.0
aa(lp359
F204.96
aF29.0
aa(lp360
F231.0
aF29.0
aa(lp361
F261.01
aF12.0
aa(lp362
F231.16
aF19.0
aag135
a(lp363
F266.12
aF12.0
aag163
a(lp364
F229.24
aF28.0
aa(lp365
F264.64
aF11.0
aa(lp366
F254.24
aF20.0
aa(lp367
F243.37
aF29.0
aa(lp368
F232.98
aF28.0
aag15
a(lp369
F266.45
aF18.0
aa(lp370
F215.85
aF28.0
aa(lp371
F236.58
aF28.0
aa(lp372
F257.68
aF12.0
aag343
a(lp373
F252.52
aF15.0
aag187
a(lp374
F211.74
aF15.0
aa(lp375
F260.88
aF12.0
aa(lp376
F248.34
aF28.0
aa(lp377
F216.22
aF26.0
aa(lp378
F211.27
aF15.0
aa(lp379
F231.22
aF29.0
aag162
a(lp380
F250.26
aF15.0
aa(lp381
F217.7
aF29.0
aa(lp382
F222.56
aF29.0
aa(lp383
F237.41
aF28.0
aa(lp384
F246.5
aF28.0
aa(lp385
F230.74
aF29.0
aa(lp386
F242.43
aF28.0
aa(lp387
F242.16
aF15.0
aa(lp388
F212.94
aF14.0
aag340
ag19
a(lp389
F264.6
aF18.0
aa(lp390
F239.27
aF29.0
aa(lp391
F245.79
aF18.0
aa(lp392
F231.69
aF18.0
aa(lp393
F240.35
aF28.0
aag221
a(lp394
F228.34
aF29.0
aa(lp395
F237.36
aF28.0
aa(lp396
F255.42
aF15.0
aa(lp397
F216.4
aF29.0
aag171
a(lp398
F214.15
aF15.0
aa(lp399
F242.81
aF28.0
aa(lp400
F248.6
aF16.0
aa(lp401
F245.56
aF16.0
aa(lp402
F264.18
aF12.0
aag240
a(lp403
F237.35
aF28.0
aa(lp404
F240.54
aF15.0
aa(lp405
F218.3
aF29.0
aa(lp406
F236.31
aF28.0
aa(lp407
F258.05
aF20.0
aa(lp408
F265.42
aF19.0
aag234
a(lp409
F223.49
aF29.0
aa(lp410
F264.74
aF12.0
aag289
ag321
ag392
a(lp411
F245.34
aF15.0
aa(lp412
F231.33
aF16.0
aa(lp413
F239.93
aF28.0
aa(lp414
F235.85
aF28.0
aa(lp415
F266.54
aF12.0
aa(lp416
F212.52
aF15.0
aa(lp417
F265.4
aF12.0
aag9
a(lp418
F263.72
aF19.0
aag93
a(lp419
F226.13
aF18.0
aa(lp420
F260.82
aF12.0
aa(lp421
F247.87
aF18.0
aa(lp422
F246.94
aF16.0
aa(lp423
F247.13
aF18.0
aa(lp424
F232.99
aF27.0
aa(lp425
F224.51
aF29.0
aa(lp426
F261.43
aF12.0
aa(lp427
F243.79
aF14.0
aag20
ag311
a(lp428
F225.34
aF18.0
aa(lp429
F268.8
aF18.0
aa(lp430
F251.25
aF18.0
aa(lp431
F222.16
aF29.0
aa(lp432
F245.79
aF16.0
aa(lp433
F234.13
aF28.0
aa(lp434
F232.96
aF18.0
aa(lp435
F215.85
aF14.0
aa(lp436
F246.94
aF20.0
aa(lp437
F212.45
aF15.0
aa(lp438
F227.53
aF19.0
aa(lp439
F244.28
aF28.0
aa(lp440
F251.09
aF15.0
aa(lp441
F219.31
aF28.0
aag366
a(lp442
F246.38
aF16.0
aa(lp443
F247.61
aF28.0
aa(lp444
F253.82
aF16.0
aa(lp445
F219.87
aF29.0
aa(lp446
F234.25
aF28.0
aag435
ag395
a(lp447
F227.64
aF29.0
aa(lp448
F248.03
aF19.0
aa(lp449
F226.7
aF29.0
aag225
a(lp450
F226.57
aF29.0
aa(lp451
F255.44
aF12.0
aa(lp452
F248.9
aF28.0
aa(lp453
F218.82
aF29.0
aag257
ag342
a(lp454
F259.38
aF12.0
aa(lp455
F232.05
aF27.0
aa(lp456
F213.41
aF15.0
aa(lp457
F259.39
aF11.0
aa(lp458
F245.6
aF28.0
aa(lp459
F227.15
aF19.0
aag316
a(lp460
F199.95
aF26.0
aa(lp461
F238.25
aF16.0
aa(lp462
F250.24
aF28.0
aa(lp463
F252.62
aF15.0
aag324
a(lp464
F251.0
aF19.0
aag327
ag21
a(lp465
F231.44
aF29.0
aa(lp466
F237.5
aF16.0
aa(lp467
F227.73
aF18.0
aa(lp468
F245.2
aF28.0
aa(lp469
F232.33
aF16.0
aa(lp470
F234.47
aF29.0
aa(lp471
F251.41
aF20.0
aa(lp472
F230.79
aF29.0
aa(lp473
F207.12
aF29.0
aa(lp474
F237.47
aF28.0
aa(lp475
F219.83
aF28.0
aa(lp476
F240.99
aF15.0
aa(lp477
F264.74
aF19.0
aa(lp478
F209.58
aF15.0
aag345
a(lp479
F214.48
aF15.0
aa(lp480
F236.89
aF15.0
aa(lp481
F257.71
aF12.0
aa(lp482
F256.18
aF19.0
aa(lp483
F218.96
aF28.0
aa(lp484
F243.44
aF28.0
aa(lp485
F232.86
aF16.0
aa(lp486
F238.7
aF28.0
aag354
a(lp487
F236.59
aF28.0
aa(lp488
F204.96
aF29.0
aa(lp489
F240.07
aF16.0
aa(lp490
F258.83
aF20.0
aag357
a(lp491
F249.28
aF20.0
aa(lp492
F262.01
aF12.0
aa(lp493
F222.37
aF29.0
aag247
a(lp494
F252.58
aF20.0
aag210
ag271
a(lp495
F230.94
aF19.0
aa(lp496
F229.19
aF18.0
aag363
a(lp497
F207.65
aF29.0
aa(lp498
F248.89
aF20.0
aa(lp499
F247.67
aF18.0
aag447
a(lp500
F261.57
aF19.0
aag230
a(lp501
F228.28
aF28.0
aa(lp502
F251.79
aF28.0
aa(lp503
F234.25
aF16.0
aag87
ag178
ag403
a(lp504
F235.31
aF27.0
aa(lp505
F214.37
aF26.0
aag179
a(lp506
F237.69
aF15.0
aa(lp507
F252.09
aF18.0
aa(lp508
F213.0
aF15.0
aa(lp509
F261.9
aF12.0
aa(lp510
F257.04
aF12.0
aa(lp511
F252.14
aF20.0
aa(lp512
F238.56
aF28.0
aa(lp513
F205.36
aF29.0
aa(lp514
F264.17
aF20.0
aa(lp515
F220.57
aF29.0
aag153
ag110
a(lp516
F244.23
aF28.0
aa(lp517
F252.13
aF15.0
aa(lp518
F201.7
aF29.0
aag513
a(lp519
F243.26
aF28.0
aag22
ag3
a(lp520
F214.0
aF28.0
aag516
ag502
ag386
a(lp521
F251.52
aF18.0
aa(lp522
F237.23
aF28.0
aag477
ag102
ag338
a(lp523
F252.45
aF18.0
aa(lp524
F236.98
aF28.0
aa(lp525
F242.55
aF15.0
aa(lp526
F232.59
aF28.0
aa(lp527
F241.23
aF28.0
aa(lp528
F241.69
aF15.0
aa(lp529
F255.21
aF28.0
aa(lp530
F267.17
aF19.0
aa(lp531
F239.79
aF15.0
aa(lp532
F259.76
aF19.0
aa(lp533
F203.86
aF29.0
aa(lp534
F248.71
aF18.0
aa(lp535
F216.84
aF14.0
aa(lp536
F248.06
aF15.0
aa(lp537
F260.69
aF19.0
aa(lp538
F215.18
aF28.0
aa(lp539
F224.99
aF19.0
aa(lp540
F213.48
aF28.0
aa(lp541
F200.82
aF29.0
aag23
ag20
ag128
a(lp542
F254.39
aF15.0
aa(lp543
F218.56
aF29.0
aa(lp544
F214.89
aF29.0
aa(lp545
F234.22
aF28.0
aa(lp546
F218.12
aF29.0
aa(lp547
F221.62
aF29.0
aag126
a(lp548
F251.3
aF18.0
aa(lp549
F218.62
aF14.0
aa(lp550
F203.19
aF29.0
aag108
a(lp551
F229.31
aF28.0
aa(lp552
F232.7
aF28.0
aag142
ag482
ag224
a(lp553
F264.47
aF20.0
aag205
ag8
a(lp554
F234.56
aF28.0
aa(lp555
F237.7
aF28.0
aag152
ag127
a(lp556
F254.13
aF20.0
aa(lp557
F214.05
aF15.0
aa(lp558
F222.09
aF29.0
aa(lp559
F231.25
aF19.0
aa(lp560
F228.3
aF29.0
aa(lp561
F251.52
aF20.0
aag242
a(lp562
F220.42
aF29.0
aa(lp563
F266.11
aF18.0
aa(lp564
F255.64
aF15.0
aa(lp565
F214.28
aF29.0
aa(lp566
F237.75
aF29.0
aag24
a(lp567
F211.48
aF14.0
aa(lp568
F224.34
aF29.0
aa(lp569
F203.93
aF29.0
aag348
a(lp570
F233.28
aF19.0
aag98
ag25
a(lp571
F247.31
aF18.0
aa(lp572
F220.08
aF28.0
aa(lp573
F222.19
aF29.0
aag384
a(lp574
F207.1
aF29.0
aag25
a(lp575
F255.02
aF19.0
aag97
a(lp576
F253.57
aF28.0
aag199
ag417
ag267
ag213
ag264
a(lp577
F209.7
aF15.0
aa(lp578
F217.9
aF29.0
aag251
a(lp579
F232.49
aF28.0
aag559
a(lp580
F234.05
aF28.0
aa(lp581
F222.24
aF29.0
aag497
a(lp582
F228.56
aF28.0
aa(lp583
F251.31
aF15.0
aa(lp584
F231.91
aF15.0
aag26
ag326
a(lp585
F223.07
aF29.0
aa(lp586
F260.77
aF12.0
aag425
ag406
a(lp587
F230.14
aF18.0
aa(lp588
F256.06
aF12.0
aa(lp589
F200.92
aF29.0
aa(lp590
F227.18
aF29.0
aag521
a(lp591
F247.25
aF16.0
aa(lp592
F235.51
aF28.0
aag529
a(lp593
F216.23
aF28.0
aa(lp594
F240.41
aF28.0
aa(lp595
F251.52
aF18.0
aag27
a(lp596
F233.43
aF15.0
aag330
ag208
a(lp597
F251.24
aF16.0
aag211
ag302
a(lp598
F235.16
aF28.0
aag402
ag407
ag595
ag573
ag99
a(lp599
F201.97
aF29.0
aag28
a(lp600
F227.91
aF29.0
aa(lp601
F219.64
aF14.0
aa(lp602
F234.45
aF28.0
aag21
ag328
a(lp603
F202.69
aF29.0
aa(lp604
F214.65
aF28.0
aag150
ag334
ag339
a(lp605
F255.62
aF20.0
aa(lp606
F225.16
aF29.0
aa(lp607
F206.9
aF26.0
aa(lp608
F201.47
aF29.0
aag269
a(lp609
F218.04
aF28.0
aag564
a(lp610
F219.08
aF29.0
aag293
a(lp611
F240.98
aF28.0
aa(lp612
F242.79
aF29.0
aa(lp613
F261.09
aF18.0
aag203
ag279
a(lp614
F206.43
aF29.0
aa(lp615
F220.37
aF29.0
aa(lp616
F264.16
aF19.0
aag344
a(lp617
F228.72
aF29.0
aa(lp618
F249.81
aF19.0
aa(lp619
F249.66
aF16.0
aa(lp620
F237.51
aF28.0
aag29
ag519
ag527
a(lp621
F249.41
aF28.0
aa(lp622
F258.02
aF19.0
aag583
ag241
a(lp623
F232.64
aF28.0
aa(lp624
F250.43
aF18.0
aa(lp625
F242.56
aF28.0
aa(lp626
F223.21
aF29.0
aa(lp627
F220.21
aF29.0
aag418
ag23
ag415
ag190
a(lp628
F231.89
aF28.0
aa(lp629
F261.08
aF12.0
aa(lp630
F247.26
aF18.0
aa(lp631
F246.32
aF16.0
aa(lp632
F264.93
aF19.0
aag598
a(lp633
F232.65
aF27.0
aa(lp634
F267.07
aF12.0
aa(lp635
F217.09
aF29.0
aa(lp636
F233.43
aF29.0
aa(lp637
F201.83
aF29.0
aa(lp638
F216.87
aF28.0
aag574
a(lp639
F202.68
aF29.0
aa(lp640
F205.74
aF29.0
aa(lp641
F254.14
aF20.0
aa(lp642
F236.53
aF29.0
aag349
ag282
ag450
a(lp643
F234.1
aF28.0
aag119
ag484
ag304
ag288
a(lp644
F199.68
aF29.0
aag607
a(lp645
F230.77
aF19.0
aag434
ag473
ag281
a(lp646
F231.62
aF28.0
aa(lp647
F249.34
aF18.0
aa(lp648
F227.29
aF18.0
aa(lp649
F238.1
aF28.0
aag30
a(lp650
F227.94
aF28.0
aa(lp651
F222.63
aF29.0
aag161
a(lp652
F234.75
aF28.0
aa(lp653
F241.78
aF28.0
aa(lp654
F226.5
aF29.0
aag167
ag31
a(lp655
F252.27
aF16.0
aa(lp656
F225.77
aF28.0
aa(lp657
F254.89
aF19.0
aag617
a(lp658
F246.09
aF15.0
aa(lp659
F231.76
aF29.0
aa(lp660
F236.24
aF16.0
aag487
a(lp661
F232.64
aF29.0
aa(lp662
F216.91
aF29.0
aag301
a(lp663
F221.01
aF29.0
aag383
a(lp664
F233.54
aF28.0
aa(lp665
F203.64
aF26.0
aa(lp666
F246.01
aF19.0
aa(lp667
F217.29
aF29.0
aag13
a(lp668
F200.38
aF29.0
aa(lp669
F255.43
aF28.0
aag10
a(lp670
F247.79
aF15.0
aa(lp671
F247.17
aF28.0
aa(lp672
F210.34
aF27.0
aa(lp673
F231.8
aF28.0
aag673
ag26
a(lp674
F234.05
aF28.0
aag11
a(lp675
F240.34
aF28.0
aa(lp676
F263.19
aF12.0
aa(lp677
F220.98
aF29.0
aa(lp678
F238.73
aF28.0
aa(lp679
F244.85
aF15.0
aa(lp680
F233.12
aF29.0
aag490
ag387
a(lp681
F264.6
aF19.0
aa(lp682
F237.06
aF28.0
aa(lp683
F248.43
aF17.0
aa(lp684
F229.21
aF18.0
aag552
a(lp685
F257.51
aF20.0
aag495
a(lp686
F259.37
aF12.0
aa(lp687
F248.65
aF18.0
aag669
a(lp688
F218.32
aF14.0
aa(lp689
F232.47
aF28.0
aag120
ag430
ag493
ag494
a(lp690
F219.08
aF29.0
aa(lp691
F232.76
aF18.0
aa(lp692
F241.78
aF14.0
aag606
ag113
ag109
ag214
a(lp693
F228.65
aF19.0
aag601
ag618
a(lp694
F251.58
aF19.0
aag542
ag441
a(lp695
F255.47
aF20.0
aag522
ag353
a(lp696
F211.59
aF15.0
aa(lp697
F250.57
aF16.0
aag32
a(lp698
F216.92
aF14.0
aag294
a(lp699
F258.16
aF12.0
aa(lp700
F231.63
aF27.0
aa(lp701
F234.7
aF28.0
aa(lp702
F219.15
aF29.0
aag394
a(lp703
F240.62
aF16.0
aag33
a(lp704
F248.58
aF18.0
aa(lp705
F249.83
aF18.0
aag351
a(lp706
F238.27
aF28.0
aa(lp707
F202.06
aF29.0
aa(lp708
F249.62
aF16.0
aag285
ag590
a(lp709
F221.61
aF29.0
aa(lp710
F227.75
aF18.0
aag34
a(lp711
F233.15
aF29.0
aa(lp712
F256.25
aF28.0
aa(lp713
F252.68
aF19.0
aa(lp714
F203.56
aF29.0
aag698
a(lp715
F235.73
aF28.0
aag597
a(lp716
F250.37
aF17.0
aa(lp717
F226.75
aF18.0
aa(lp718
F236.89
aF29.0
aag122
a(lp719
F238.78
aF16.0
aag634
a(lp720
F214.38
aF15.0
aa(lp721
F235.85
aF28.0
aa(lp722
F230.13
aF28.0
aag365
ag309
ag688
ag580
ag691
ag145
ag523
a(lp723
F215.03
aF29.0
aa(lp724
F235.23
aF27.0
aag212
ag483
a(lp725
F249.74
aF17.0
aag570
ag616
a(lp726
F259.69
aF12.0
aa(lp727
F248.74
aF16.0
aa(lp728
F261.36
aF19.0
aag33
ag724
ag12
ag463
a(lp729
F213.53
aF26.0
aag317
a(lp730
F252.06
aF20.0
aag476
a(lp731
F211.0
aF14.0
aa(lp732
F241.7
aF29.0
aag572
a(lp733
F213.1
aF15.0
aag318
a(lp734
F215.13
aF27.0
aa(lp735
F251.91
aF16.0
aa(lp736
F231.04
aF15.0
aag535
ag712
ag168
ag507
a(lp737
F251.03
aF15.0
aa(lp738
F202.39
aF26.0
aa(lp739
F263.57
aF12.0
aa(lp740
F249.36
aF18.0
aag320
a(lp741
F244.03
aF15.0
aa(lp742
F237.87
aF15.0
aag671
ag681
a(lp743
F222.27
aF29.0
aag471
a(lp744
F215.37
aF15.0
aag685
a(lp745
F227.44
aF29.0
aa(lp746
F217.07
aF29.0
aa(lp747
F215.48
aF28.0
aa(lp748
F257.17
aF19.0
aag404
ag347
ag405
a(lp749
F246.16
aF28.0
aa(lp750
F251.32
aF28.0
aag35
ag36
a(lp751
F229.82
aF28.0
aa(lp752
F247.47
aF16.0
aa(lp753
F216.27
aF29.0
aa(lp754
F225.8
aF18.0
aag30
a(lp755
F229.55
aF18.0
aa(lp756
F266.09
aF19.0
aa(lp757
F269.38
aF19.0
aag139
a(lp758
F269.47
aF18.0
aa(lp759
F231.32
aF29.0
aa(lp760
F234.65
aF29.0
aa(lp761
F219.97
aF29.0
aag37
a(lp762
F253.65
aF20.0
aag741
a(lp763
F256.47
aF19.0
aag250
a(lp764
F230.69
aF18.0
aag763
a(lp765
F238.25
aF15.0
aag585
ag549
a(lp766
F262.74
aF19.0
aag393
a(lp767
F213.27
aF26.0
aa(lp768
F249.25
aF18.0
aa(lp769
F234.87
aF29.0
aag22
a(lp770
F225.26
aF29.0
aa(lp771
F200.66
aF27.0
aa(lp772
F243.81
aF16.0
aa(lp773
F227.01
aF18.0
aa(lp774
F261.53
aF12.0
aa(lp775
F249.46
aF28.0
aa(lp776
F262.68
aF19.0
aag757
ag558
ag204
a(lp777
F255.39
aF19.0
aag655
ag614
ag663
a(lp778
F244.26
aF28.0
aa(lp779
F230.47
aF29.0
aa(lp780
F221.25
aF29.0
aag561
a(lp781
F215.29
aF26.0
aa(lp782
F219.63
aF29.0
aag238
a(lp783
F253.15
aF19.0
aa(lp784
F246.81
aF28.0
aag331
ag335
ag610
a(lp785
F252.51
aF20.0
aag575
a(lp786
F240.05
aF15.0
aag475
a(lp787
F216.06
aF29.0
aa(lp788
F236.64
aF28.0
aag555
a(lp789
F258.56
aF18.0
aa(lp790
F216.91
aF29.0
aa(lp791
F208.37
aF15.0
aag38
a(lp792
F252.28
aF28.0
aag742
ag310
ag642
ag144
a(lp793
F245.21
aF16.0
aag28
a(lp794
F248.06
aF28.0
aa(lp795
F250.73
aF20.0
aa(lp796
F232.22
aF28.0
aa(lp797
F240.21
aF28.0
aa(lp798
F224.88
aF28.0
aa(lp799
F250.62
aF19.0
aa(lp800
F218.89
aF29.0
aa(lp801
F230.17
aF16.0
aa(lp802
F203.19
aF29.0
aag315
a(lp803
F249.79
aF16.0
aag217
a(lp804
F250.48
aF28.0
aag785
a(lp805
F219.91
aF29.0
aa(lp806
F260.17
aF19.0
aa(lp807
F213.85
aF15.0
aag410
a(lp808
F219.39
aF29.0
aa(lp809
F215.96
aF28.0
aa(lp810
F262.11
aF19.0
aa(lp811
F268.41
aF18.0
aag18
a(lp812
F229.12
aF19.0
aag94
a(lp813
F250.86
aF20.0
aag721
a(lp814
F225.62
aF29.0
aag525
ag125
ag464
a(lp815
F227.78
aF29.0
aag411
asS'actual_pf'
p816
(lp817
g367
ag712
ag712
ag83
ag144
ag144
as.