(dp0
S'complaint_data'
p1
(lp2
(lp3
F254.47
aF28.0
aa(lp4
F245.16
aF28.0
aa(lp5
F253.67
aF18.0
aa(lp6
F270.4
aF19.0
aa(lp7
F242.86
aF28.0
aa(lp8
F255.32
aF28.0
aa(lp9
F241.02
aF28.0
aa(lp10
F254.34
aF28.0
aa(lp11
F254.5
aF28.0
aag5
ag4
a(lp12
F269.52
aF19.0
aag11
a(lp13
F253.51
aF28.0
aa(lp14
F246.76
aF28.0
aag3
a(lp15
F255.21
aF28.0
aa(lp16
F246.03
aF28.0
aag13
ag7
a(lp17
F245.94
aF28.0
aag17
ag15
a(lp18
F253.15
aF18.0
aag14
ag16
a(lp19
F241.97
aF28.0
aag10
a(lp20
F255.43
aF28.0
aag8
ag20
a(lp21
F242.09
aF28.0
aa(lp22
F256.25
aF28.0
aag21
ag9
ag22
ag19
ag6
ag18
ag12
asS'convex_hull_y'
p23
(lp24
cnumpy.core.multiarray
scalar
p25
(cnumpy
dtype
p26
(S'f8'
p27
I0
I1
tp28
Rp29
(I3
S'<'
p30
NNNI-1
I-1
I0
tp31
bS'\x86\x91k:{\x1f\x07@'
p32
tp33
Rp34
ag25
(g29
S',\xb3\x04\x066\x8e\x07@'
p35
tp36
Rp37
ag25
(g29
S'#J\x96\xd6Z\xa8\n@'
p38
tp39
Rp40
ag25
(g29
S'#J\x96\xd6Z\xa8\n@'
p41
tp42
Rp43
ag25
(g29
S'\x86\x91k:{\x1f\x07@'
p44
tp45
Rp46
asS'convex_hull_x'
p47
(lp48
g25
(g29
S'\xf6\xfe\xe0&\xe6$\x16@'
p49
tp50
Rp51
ag25
(g29
S'\xbe\xfe\xd3\xccLf\x16@'
p52
tp53
Rp54
ag25
(g29
S'E\x8e\xff\xdeB/\x16@'
p55
tp56
Rp57
ag25
(g29
S'\xc2Mr\\\x84\xf0\x15@'
p58
tp59
Rp60
ag25
(g29
S'\xc6^\xbb:\xcc"\x16@'
p61
tp62
Rp63
asS'current_pf'
p64
(lp65
(lp66
F240.16
aF29.0
aag8
a(lp67
F266.21
aF20.0
aa(lp68
F268.42
aF19.0
aasS'all_data_dep'
p69
(lp70
(lp71
F219.87
aF29.0
aag67
a(lp72
F259.26
aF19.0
aa(lp73
F244.91
aF19.0
aa(lp74
F263.04
aF12.0
aa(lp75
F218.73
aF29.0
aa(lp76
F215.02
aF28.0
aag3
a(lp77
F251.57
aF15.0
aa(lp78
F231.39
aF18.0
aa(lp79
F227.19
aF19.0
aa(lp80
F258.9
aF12.0
aa(lp81
F266.32
aF11.0
aa(lp82
F205.09
aF29.0
aa(lp83
F219.95
aF27.0
aa(lp84
F240.99
aF16.0
aa(lp85
F259.5
aF12.0
aa(lp86
F237.52
aF15.0
aa(lp87
F232.96
aF15.0
aa(lp88
F252.89
aF16.0
aa(lp89
F239.24
aF15.0
aa(lp90
F229.79
aF29.0
aa(lp91
F244.12
aF14.0
aa(lp92
F231.77
aF18.0
aa(lp93
F217.47
aF14.0
aa(lp94
F243.78
aF15.0
aa(lp95
F251.02
aF18.0
aa(lp96
F235.53
aF16.0
aag68
a(lp97
F251.81
aF28.0
aa(lp98
F233.12
aF28.0
aa(lp99
F267.04
aF18.0
aa(lp100
F232.03
aF28.0
aa(lp101
F233.0
aF29.0
aa(lp102
F215.47
aF14.0
aa(lp103
F253.49
aF28.0
aa(lp104
F229.64
aF19.0
aag4
a(lp105
F254.59
aF15.0
aa(lp106
F204.51
aF29.0
aa(lp107
F244.25
aF15.0
aa(lp108
F250.44
aF15.0
aa(lp109
F262.22
aF18.0
aa(lp110
F239.04
aF28.0
aa(lp111
F238.23
aF28.0
aa(lp112
F247.28
aF28.0
aa(lp113
F231.34
aF28.0
aa(lp114
F263.59
aF19.0
aa(lp115
F253.47
aF15.0
aa(lp116
F208.99
aF15.0
aa(lp117
F232.0
aF28.0
aa(lp118
F234.06
aF28.0
aag5
a(lp119
F206.62
aF29.0
aa(lp120
F220.82
aF29.0
aa(lp121
F221.06
aF29.0
aa(lp122
F252.81
aF28.0
aa(lp123
F230.74
aF29.0
aa(lp124
F266.39
aF12.0
aa(lp125
F243.52
aF28.0
aa(lp126
F234.08
aF18.0
aa(lp127
F268.38
aF19.0
aag6
a(lp128
F235.95
aF27.0
aa(lp129
F244.92
aF16.0
aag108
a(lp130
F252.68
aF18.0
aa(lp131
F201.55
aF29.0
aa(lp132
F248.4
aF16.0
aa(lp133
F234.68
aF19.0
aa(lp134
F235.79
aF28.0
aa(lp135
F227.12
aF29.0
aa(lp136
F231.31
aF28.0
aa(lp137
F229.3
aF18.0
aa(lp138
F228.97
aF19.0
aa(lp139
F217.55
aF26.0
aa(lp140
F246.61
aF18.0
aa(lp141
F232.2
aF28.0
aa(lp142
F265.38
aF11.0
aa(lp143
F233.79
aF28.0
aa(lp144
F268.58
aF19.0
aa(lp145
F257.33
aF15.0
aa(lp146
F223.3
aF29.0
aa(lp147
F219.4
aF29.0
aa(lp148
F201.52
aF26.0
aa(lp149
F224.3
aF28.0
aa(lp150
F239.59
aF27.0
aa(lp151
F215.88
aF14.0
aa(lp152
F202.23
aF26.0
aa(lp153
F223.98
aF29.0
aa(lp154
F250.87
aF28.0
aa(lp155
F235.78
aF28.0
aa(lp156
F243.12
aF28.0
aag127
ag66
ag95
a(lp157
F267.28
aF19.0
aa(lp158
F252.87
aF28.0
aa(lp159
F251.25
aF15.0
aa(lp160
F251.71
aF28.0
aa(lp161
F230.57
aF18.0
aa(lp162
F239.96
aF28.0
aa(lp163
F264.18
aF11.0
aa(lp164
F209.84
aF14.0
aa(lp165
F214.24
aF29.0
aa(lp166
F229.95
aF19.0
aa(lp167
F260.41
aF12.0
aa(lp168
F216.3
aF28.0
aa(lp169
F233.85
aF27.0
aa(lp170
F240.43
aF28.0
aa(lp171
F247.72
aF19.0
aa(lp172
F265.82
aF19.0
aa(lp173
F219.5
aF26.0
aa(lp174
F244.61
aF28.0
aa(lp175
F224.49
aF18.0
aa(lp176
F249.34
aF20.0
aa(lp177
F236.84
aF15.0
aa(lp178
F223.01
aF29.0
aa(lp179
F252.04
aF15.0
aa(lp180
F228.86
aF19.0
aa(lp181
F203.98
aF29.0
aa(lp182
F206.12
aF29.0
aa(lp183
F261.68
aF19.0
aa(lp184
F253.64
aF19.0
aa(lp185
F205.13
aF26.0
aa(lp186
F218.15
aF14.0
aa(lp187
F222.56
aF29.0
aa(lp188
F247.69
aF28.0
aa(lp189
F248.02
aF28.0
aa(lp190
F243.96
aF28.0
aag142
a(lp191
F251.43
aF28.0
aa(lp192
F250.45
aF18.0
aa(lp193
F227.39
aF29.0
aa(lp194
F239.32
aF15.0
aa(lp195
F251.74
aF28.0
aa(lp196
F218.23
aF14.0
aa(lp197
F248.78
aF15.0
aa(lp198
F238.75
aF28.0
aa(lp199
F249.68
aF15.0
aa(lp200
F208.92
aF29.0
aa(lp201
F247.43
aF17.0
aa(lp202
F224.18
aF29.0
aa(lp203
F247.08
aF20.0
aa(lp204
F239.37
aF28.0
aa(lp205
F257.17
aF12.0
aa(lp206
F225.5
aF29.0
aa(lp207
F245.32
aF19.0
aa(lp208
F211.19
aF14.0
aa(lp209
F232.52
aF18.0
aa(lp210
F236.43
aF28.0
aa(lp211
F249.12
aF20.0
aa(lp212
F236.38
aF27.0
aa(lp213
F231.33
aF18.0
aa(lp214
F256.94
aF11.0
aa(lp215
F255.17
aF15.0
aa(lp216
F221.33
aF29.0
aa(lp217
F210.51
aF15.0
aa(lp218
F233.42
aF28.0
aa(lp219
F262.66
aF19.0
aag124
a(lp220
F208.05
aF29.0
aag157
ag172
a(lp221
F224.07
aF29.0
aa(lp222
F227.99
aF18.0
aa(lp223
F207.89
aF29.0
aa(lp224
F221.17
aF29.0
aa(lp225
F256.23
aF15.0
aa(lp226
F219.37
aF29.0
aa(lp227
F223.52
aF29.0
aa(lp228
F226.88
aF18.0
aa(lp229
F245.5
aF17.0
aa(lp230
F260.17
aF18.0
aag163
a(lp231
F248.19
aF17.0
aa(lp232
F226.13
aF29.0
aa(lp233
F247.08
aF19.0
aa(lp234
F250.04
aF15.0
aa(lp235
F205.71
aF29.0
aag7
a(lp236
F253.39
aF15.0
aag159
a(lp237
F243.08
aF14.0
aa(lp238
F219.33
aF29.0
aa(lp239
F228.27
aF18.0
aag234
a(lp240
F215.19
aF29.0
aa(lp241
F244.59
aF28.0
aa(lp242
F215.94
aF14.0
aa(lp243
F251.01
aF28.0
aa(lp244
F212.71
aF15.0
aa(lp245
F228.47
aF18.0
aa(lp246
F210.24
aF14.0
aa(lp247
F235.03
aF15.0
aa(lp248
F241.23
aF28.0
aa(lp249
F248.81
aF20.0
aa(lp250
F267.43
aF12.0
aa(lp251
F212.92
aF29.0
aa(lp252
F212.45
aF26.0
aa(lp253
F250.12
aF16.0
aa(lp254
F235.37
aF28.0
aag8
a(lp255
F235.97
aF15.0
aa(lp256
F250.05
aF28.0
aag9
a(lp257
F251.79
aF17.0
aa(lp258
F224.33
aF29.0
aa(lp259
F235.92
aF15.0
aa(lp260
F248.54
aF20.0
aag68
a(lp261
F201.9
aF26.0
aa(lp262
F243.93
aF16.0
aag185
a(lp263
F259.38
aF12.0
aa(lp264
F253.26
aF20.0
aa(lp265
F264.93
aF19.0
aa(lp266
F234.34
aF15.0
aa(lp267
F256.45
aF20.0
aa(lp268
F224.43
aF29.0
aa(lp269
F239.06
aF15.0
aa(lp270
F266.03
aF12.0
aa(lp271
F260.5
aF19.0
aa(lp272
F226.57
aF19.0
aa(lp273
F265.65
aF12.0
aa(lp274
F230.24
aF28.0
aa(lp275
F207.75
aF15.0
aa(lp276
F224.95
aF29.0
aa(lp277
F217.29
aF14.0
aa(lp278
F202.94
aF29.0
aa(lp279
F212.05
aF15.0
aa(lp280
F221.73
aF29.0
aa(lp281
F237.9
aF28.0
aa(lp282
F218.02
aF27.0
aa(lp283
F202.81
aF29.0
aa(lp284
F213.86
aF29.0
aa(lp285
F246.65
aF18.0
aa(lp286
F210.71
aF15.0
aag254
a(lp287
F232.62
aF28.0
aag212
a(lp288
F215.31
aF14.0
aag10
a(lp289
F236.36
aF28.0
aa(lp290
F218.1
aF29.0
aa(lp291
F232.29
aF19.0
aa(lp292
F246.5
aF15.0
aa(lp293
F220.87
aF28.0
aa(lp294
F267.59
aF18.0
aa(lp295
F211.59
aF15.0
aag200
a(lp296
F239.51
aF15.0
aa(lp297
F269.47
aF19.0
aa(lp298
F234.87
aF28.0
aa(lp299
F254.27
aF16.0
aa(lp300
F242.46
aF16.0
aa(lp301
F232.22
aF29.0
aa(lp302
F235.7
aF28.0
aa(lp303
F237.44
aF15.0
aa(lp304
F251.91
aF18.0
aag130
a(lp305
F218.43
aF26.0
aa(lp306
F214.25
aF14.0
aa(lp307
F212.44
aF15.0
aa(lp308
F233.28
aF19.0
aag304
ag11
a(lp309
F236.06
aF29.0
aa(lp310
F235.21
aF28.0
aag288
a(lp311
F214.33
aF26.0
aa(lp312
F235.12
aF28.0
aag220
a(lp313
F226.65
aF29.0
aa(lp314
F266.19
aF12.0
aa(lp315
F251.24
aF16.0
aa(lp316
F263.79
aF19.0
aa(lp317
F201.15
aF26.0
aa(lp318
F256.22
aF15.0
aag5
ag221
a(lp319
F236.35
aF28.0
aa(lp320
F223.34
aF29.0
aa(lp321
F239.56
aF28.0
aa(lp322
F230.59
aF28.0
aag4
a(lp323
F205.99
aF26.0
aa(lp324
F236.23
aF16.0
aa(lp325
F246.73
aF20.0
aa(lp326
F267.17
aF12.0
aa(lp327
F247.99
aF28.0
aag293
a(lp328
F232.14
aF19.0
aa(lp329
F237.1
aF28.0
aa(lp330
F249.56
aF15.0
aa(lp331
F221.44
aF29.0
aa(lp332
F216.91
aF14.0
aa(lp333
F257.54
aF20.0
aag139
a(lp334
F252.5
aF18.0
aa(lp335
F253.74
aF28.0
aa(lp336
F233.74
aF16.0
aa(lp337
F223.42
aF29.0
aa(lp338
F218.4
aF26.0
aa(lp339
F219.05
aF29.0
aa(lp340
F234.65
aF16.0
aa(lp341
F242.5
aF15.0
aa(lp342
F247.01
aF15.0
aa(lp343
F252.77
aF28.0
aag12
ag90
a(lp344
F253.1
aF20.0
aag141
a(lp345
F247.27
aF20.0
aa(lp346
F233.0
aF28.0
aa(lp347
F217.29
aF14.0
aa(lp348
F249.3
aF19.0
aa(lp349
F204.96
aF29.0
aa(lp350
F231.0
aF29.0
aa(lp351
F261.01
aF12.0
aa(lp352
F231.16
aF19.0
aag119
a(lp353
F266.12
aF12.0
aag146
a(lp354
F229.24
aF28.0
aa(lp355
F264.64
aF11.0
aa(lp356
F254.24
aF20.0
aa(lp357
F243.37
aF29.0
aa(lp358
F232.98
aF28.0
aag11
a(lp359
F266.45
aF18.0
aa(lp360
F215.85
aF28.0
aa(lp361
F236.58
aF28.0
aa(lp362
F257.68
aF12.0
aag332
a(lp363
F252.52
aF15.0
aag170
a(lp364
F211.74
aF15.0
aa(lp365
F260.88
aF12.0
aa(lp366
F248.34
aF28.0
aa(lp367
F216.22
aF26.0
aa(lp368
F211.27
aF15.0
aa(lp369
F231.22
aF29.0
aag145
a(lp370
F250.26
aF15.0
aa(lp371
F217.7
aF29.0
aa(lp372
F222.56
aF29.0
aa(lp373
F237.41
aF28.0
aa(lp374
F246.5
aF28.0
aa(lp375
F230.74
aF29.0
aa(lp376
F242.43
aF28.0
aa(lp377
F242.16
aF15.0
aa(lp378
F212.94
aF14.0
aag329
a(lp379
F247.8
aF28.0
aa(lp380
F264.6
aF18.0
aa(lp381
F239.27
aF29.0
aa(lp382
F245.79
aF18.0
aa(lp383
F231.69
aF18.0
aa(lp384
F240.35
aF28.0
aag206
a(lp385
F228.34
aF29.0
aa(lp386
F237.36
aF28.0
aa(lp387
F255.42
aF15.0
aa(lp388
F216.4
aF29.0
aag154
a(lp389
F214.15
aF15.0
aa(lp390
F242.81
aF28.0
aa(lp391
F248.6
aF16.0
aa(lp392
F245.56
aF16.0
aa(lp393
F264.18
aF12.0
aag225
a(lp394
F237.35
aF28.0
aa(lp395
F240.54
aF15.0
aa(lp396
F218.3
aF29.0
aa(lp397
F236.31
aF28.0
aa(lp398
F258.05
aF20.0
aa(lp399
F265.42
aF19.0
aag219
a(lp400
F223.49
aF29.0
aa(lp401
F264.74
aF12.0
aag277
ag309
ag383
a(lp402
F245.34
aF15.0
aa(lp403
F231.33
aF16.0
aa(lp404
F239.93
aF28.0
aa(lp405
F235.85
aF28.0
aa(lp406
F266.54
aF12.0
aa(lp407
F212.52
aF15.0
aa(lp408
F265.4
aF12.0
aag243
a(lp409
F263.72
aF19.0
aag77
a(lp410
F226.13
aF18.0
aa(lp411
F260.82
aF12.0
aa(lp412
F247.87
aF18.0
aa(lp413
F246.94
aF16.0
aa(lp414
F247.13
aF18.0
aa(lp415
F232.99
aF27.0
aa(lp416
F224.51
aF29.0
aa(lp417
F261.43
aF12.0
aa(lp418
F243.79
aF14.0
aag13
ag298
a(lp419
F225.34
aF18.0
aa(lp420
F268.8
aF18.0
aa(lp421
F251.25
aF18.0
aa(lp422
F222.16
aF29.0
aa(lp423
F245.79
aF16.0
aa(lp424
F234.13
aF28.0
aa(lp425
F232.96
aF18.0
aa(lp426
F215.85
aF14.0
aa(lp427
F246.94
aF20.0
aa(lp428
F212.45
aF15.0
aa(lp429
F227.53
aF19.0
aa(lp430
F244.28
aF28.0
aa(lp431
F251.09
aF15.0
aa(lp432
F219.31
aF28.0
aag356
a(lp433
F246.38
aF16.0
aa(lp434
F247.61
aF28.0
aa(lp435
F253.82
aF16.0
aa(lp436
F219.87
aF29.0
aa(lp437
F234.25
aF28.0
aag426
ag386
a(lp438
F227.64
aF29.0
aa(lp439
F248.03
aF19.0
aa(lp440
F226.7
aF29.0
aag210
a(lp441
F226.57
aF29.0
aa(lp442
F255.44
aF12.0
aa(lp443
F248.9
aF28.0
aa(lp444
F218.82
aF29.0
aag242
ag331
a(lp445
F259.38
aF12.0
aa(lp446
F232.05
aF27.0
aa(lp447
F213.41
aF15.0
aa(lp448
F259.39
aF11.0
aa(lp449
F245.6
aF28.0
aa(lp450
F227.15
aF19.0
aag303
a(lp451
F199.95
aF26.0
aa(lp452
F238.25
aF16.0
aa(lp453
F250.24
aF28.0
aa(lp454
F252.62
aF15.0
aag312
a(lp455
F251.0
aF19.0
aag315
ag14
a(lp456
F231.44
aF29.0
aa(lp457
F237.5
aF16.0
aa(lp458
F227.73
aF18.0
aa(lp459
F245.2
aF28.0
aa(lp460
F232.33
aF16.0
aa(lp461
F234.47
aF29.0
aa(lp462
F251.41
aF20.0
aa(lp463
F230.79
aF29.0
aa(lp464
F207.12
aF29.0
aa(lp465
F237.47
aF28.0
aa(lp466
F219.83
aF28.0
aa(lp467
F240.99
aF15.0
aa(lp468
F264.74
aF19.0
aa(lp469
F209.58
aF15.0
aag334
a(lp470
F214.48
aF15.0
aa(lp471
F236.89
aF15.0
aa(lp472
F257.71
aF12.0
aa(lp473
F256.18
aF19.0
aa(lp474
F218.96
aF28.0
aa(lp475
F243.44
aF28.0
aa(lp476
F232.86
aF16.0
aa(lp477
F238.7
aF28.0
aag344
a(lp478
F236.59
aF28.0
aa(lp479
F204.96
aF29.0
aa(lp480
F240.07
aF16.0
aa(lp481
F258.83
aF20.0
aag347
a(lp482
F249.28
aF20.0
aa(lp483
F262.01
aF12.0
aa(lp484
F222.37
aF29.0
aag232
a(lp485
F252.58
aF20.0
aag194
ag258
a(lp486
F230.94
aF19.0
aa(lp487
F229.19
aF18.0
aag353
a(lp488
F207.65
aF29.0
aa(lp489
F248.89
aF20.0
aa(lp490
F247.67
aF18.0
aag438
a(lp491
F261.57
aF19.0
aag215
a(lp492
F228.28
aF28.0
aa(lp493
F251.79
aF28.0
aa(lp494
F234.25
aF16.0
aag71
ag161
ag394
a(lp495
F235.31
aF27.0
aa(lp496
F214.37
aF26.0
aag162
a(lp497
F237.69
aF15.0
aa(lp498
F252.09
aF18.0
aa(lp499
F213.0
aF15.0
aa(lp500
F261.9
aF12.0
aa(lp501
F257.04
aF12.0
aa(lp502
F252.14
aF20.0
aa(lp503
F238.56
aF28.0
aa(lp504
F205.36
aF29.0
aa(lp505
F264.17
aF20.0
aa(lp506
F220.57
aF29.0
aag136
ag94
a(lp507
F244.23
aF28.0
aa(lp508
F252.13
aF15.0
aa(lp509
F201.7
aF29.0
aag504
a(lp510
F243.26
aF28.0
aa(lp511
F251.16
aF28.0
aag3
a(lp512
F214.0
aF28.0
aag507
ag493
ag376
a(lp513
F251.52
aF18.0
aa(lp514
F237.23
aF28.0
aag468
ag86
ag326
a(lp515
F252.45
aF18.0
aa(lp516
F236.98
aF28.0
aa(lp517
F242.55
aF15.0
aa(lp518
F232.59
aF28.0
aa(lp519
F241.23
aF28.0
aa(lp520
F241.69
aF15.0
aag15
a(lp521
F267.17
aF19.0
aa(lp522
F239.79
aF15.0
aa(lp523
F259.76
aF19.0
aa(lp524
F203.86
aF29.0
aa(lp525
F248.71
aF18.0
aa(lp526
F216.84
aF14.0
aa(lp527
F248.06
aF15.0
aa(lp528
F260.69
aF19.0
aa(lp529
F215.18
aF28.0
aa(lp530
F224.99
aF19.0
aa(lp531
F213.48
aF28.0
aa(lp532
F200.82
aF29.0
aag16
ag13
ag113
a(lp533
F254.39
aF15.0
aa(lp534
F218.56
aF29.0
aa(lp535
F214.89
aF29.0
aa(lp536
F234.22
aF28.0
aa(lp537
F218.12
aF29.0
aa(lp538
F221.62
aF29.0
aag111
a(lp539
F251.3
aF18.0
aa(lp540
F218.62
aF14.0
aa(lp541
F203.19
aF29.0
aag92
a(lp542
F229.31
aF28.0
aa(lp543
F232.7
aF28.0
aag126
ag473
ag209
a(lp544
F264.47
aF20.0
aag189
ag7
a(lp545
F234.56
aF28.0
aa(lp546
F237.7
aF28.0
aag135
ag112
a(lp547
F254.13
aF20.0
aa(lp548
F214.05
aF15.0
aa(lp549
F222.09
aF29.0
aa(lp550
F231.25
aF19.0
aa(lp551
F228.3
aF29.0
aa(lp552
F251.52
aF20.0
aag227
a(lp553
F220.42
aF29.0
aa(lp554
F266.11
aF18.0
aa(lp555
F255.64
aF15.0
aa(lp556
F214.28
aF29.0
aa(lp557
F237.75
aF29.0
aa(lp558
F249.99
aF28.0
aa(lp559
F211.48
aF14.0
aa(lp560
F224.34
aF29.0
aa(lp561
F203.93
aF29.0
aag338
a(lp562
F233.28
aF19.0
aag82
ag17
a(lp563
F247.31
aF18.0
aa(lp564
F220.08
aF28.0
aa(lp565
F222.19
aF29.0
aag374
a(lp566
F207.1
aF29.0
aag17
a(lp567
F255.02
aF19.0
aag81
a(lp568
F253.57
aF28.0
aag182
ag408
ag253
ag198
ag250
a(lp569
F209.7
aF15.0
aa(lp570
F217.9
aF29.0
aag236
a(lp571
F232.49
aF28.0
aag550
a(lp572
F234.05
aF28.0
aa(lp573
F222.24
aF29.0
aag488
a(lp574
F228.56
aF28.0
aa(lp575
F251.31
aF15.0
aa(lp576
F231.91
aF15.0
aa(lp577
F251.98
aF28.0
aag314
a(lp578
F223.07
aF29.0
aa(lp579
F260.77
aF12.0
aag416
ag397
a(lp580
F230.14
aF18.0
aa(lp581
F256.06
aF12.0
aa(lp582
F200.92
aF29.0
aa(lp583
F227.18
aF29.0
aag513
a(lp584
F247.25
aF16.0
aa(lp585
F235.51
aF28.0
aag15
a(lp586
F216.23
aF28.0
aa(lp587
F240.41
aF28.0
aa(lp588
F251.52
aF18.0
aa(lp589
F252.82
aF28.0
aa(lp590
F233.43
aF15.0
aag318
ag192
a(lp591
F251.24
aF16.0
aag196
ag289
a(lp592
F235.16
aF28.0
aag393
ag398
ag588
ag565
ag83
a(lp593
F201.97
aF29.0
aag18
a(lp594
F227.91
aF29.0
aa(lp595
F219.64
aF14.0
aa(lp596
F234.45
aF28.0
aag14
ag316
a(lp597
F202.69
aF29.0
aa(lp598
F214.65
aF28.0
aag133
ag322
ag328
a(lp599
F255.62
aF20.0
aa(lp600
F225.16
aF29.0
aa(lp601
F206.9
aF26.0
aa(lp602
F201.47
aF29.0
aag255
a(lp603
F218.04
aF28.0
aag555
a(lp604
F219.08
aF29.0
aag281
a(lp605
F240.98
aF28.0
aa(lp606
F242.79
aF29.0
aa(lp607
F261.09
aF18.0
aag186
ag267
a(lp608
F206.43
aF29.0
aa(lp609
F220.37
aF29.0
aa(lp610
F264.16
aF19.0
aag333
a(lp611
F228.72
aF29.0
aa(lp612
F249.81
aF19.0
aa(lp613
F249.66
aF16.0
aa(lp614
F237.51
aF28.0
aa(lp615
F250.6
aF28.0
aag510
ag519
a(lp616
F249.41
aF28.0
aa(lp617
F258.02
aF19.0
aag575
ag226
a(lp618
F232.64
aF28.0
aa(lp619
F250.43
aF18.0
aa(lp620
F242.56
aF28.0
aa(lp621
F223.21
aF29.0
aa(lp622
F220.21
aF29.0
aag409
ag16
ag406
ag173
a(lp623
F231.89
aF28.0
aa(lp624
F261.08
aF12.0
aa(lp625
F247.26
aF18.0
aa(lp626
F246.32
aF16.0
aa(lp627
F264.93
aF19.0
aag592
a(lp628
F232.65
aF27.0
aa(lp629
F267.07
aF12.0
aa(lp630
F217.09
aF29.0
aa(lp631
F233.43
aF29.0
aa(lp632
F201.83
aF29.0
aa(lp633
F216.87
aF28.0
aag566
a(lp634
F202.68
aF29.0
aa(lp635
F205.74
aF29.0
aa(lp636
F254.14
aF20.0
aa(lp637
F236.53
aF29.0
aag339
ag270
ag441
a(lp638
F234.1
aF28.0
aag104
ag475
ag291
ag276
a(lp639
F199.68
aF29.0
aag601
a(lp640
F230.77
aF19.0
aag425
ag464
ag269
a(lp641
F231.62
aF28.0
aa(lp642
F249.34
aF18.0
aa(lp643
F227.29
aF18.0
aa(lp644
F238.1
aF28.0
aag19
a(lp645
F227.94
aF28.0
aa(lp646
F222.63
aF29.0
aag144
a(lp647
F234.75
aF28.0
aa(lp648
F241.78
aF28.0
aa(lp649
F226.5
aF29.0
aag150
a(lp650
F250.07
aF28.0
aa(lp651
F252.27
aF16.0
aa(lp652
F225.77
aF28.0
aa(lp653
F254.89
aF19.0
aag611
a(lp654
F246.09
aF15.0
aa(lp655
F231.76
aF29.0
aa(lp656
F236.24
aF16.0
aag478
a(lp657
F232.64
aF29.0
aa(lp658
F216.91
aF29.0
aag10
a(lp659
F221.01
aF29.0
aag373
a(lp660
F233.54
aF28.0
aa(lp661
F203.64
aF26.0
aa(lp662
F246.01
aF19.0
aa(lp663
F217.29
aF29.0
aag265
a(lp664
F200.38
aF29.0
aag20
ag8
a(lp665
F247.79
aF15.0
aa(lp666
F247.17
aF28.0
aa(lp667
F210.34
aF27.0
aa(lp668
F231.8
aF28.0
aag668
ag577
a(lp669
F234.05
aF28.0
aag256
a(lp670
F240.34
aF28.0
aa(lp671
F263.19
aF12.0
aa(lp672
F220.98
aF29.0
aa(lp673
F238.73
aF28.0
aa(lp674
F244.85
aF15.0
aa(lp675
F233.12
aF29.0
aag481
ag377
a(lp676
F264.6
aF19.0
aa(lp677
F237.06
aF28.0
aa(lp678
F248.43
aF17.0
aa(lp679
F229.21
aF18.0
aag543
a(lp680
F257.51
aF20.0
aag486
a(lp681
F259.37
aF12.0
aa(lp682
F248.65
aF18.0
aag20
a(lp683
F218.32
aF14.0
aa(lp684
F232.47
aF28.0
aag105
ag421
ag484
ag485
a(lp685
F219.08
aF29.0
aa(lp686
F232.76
aF18.0
aa(lp687
F241.78
aF14.0
aag600
ag97
ag93
ag199
a(lp688
F228.65
aF19.0
aag595
ag612
a(lp689
F251.58
aF19.0
aag533
ag432
a(lp690
F255.47
aF20.0
aag514
ag343
a(lp691
F211.59
aF15.0
aa(lp692
F250.57
aF16.0
aa(lp693
F249.44
aF28.0
aa(lp694
F216.92
aF14.0
aag282
a(lp695
F258.16
aF12.0
aa(lp696
F231.63
aF27.0
aa(lp697
F234.7
aF28.0
aa(lp698
F219.15
aF29.0
aag385
a(lp699
F240.62
aF16.0
aag21
a(lp700
F248.58
aF18.0
aa(lp701
F249.83
aF18.0
aag341
a(lp702
F238.27
aF28.0
aa(lp703
F202.06
aF29.0
aa(lp704
F249.62
aF16.0
aag273
ag583
a(lp705
F221.61
aF29.0
aa(lp706
F227.75
aF18.0
aa(lp707
F249.04
aF28.0
aa(lp708
F233.15
aF29.0
aag22
a(lp709
F252.68
aF19.0
aa(lp710
F203.56
aF29.0
aag694
a(lp711
F235.73
aF28.0
aag591
a(lp712
F250.37
aF17.0
aa(lp713
F226.75
aF18.0
aa(lp714
F236.89
aF29.0
aag107
a(lp715
F238.78
aF16.0
aag629
a(lp716
F214.38
aF15.0
aa(lp717
F235.85
aF28.0
aa(lp718
F230.13
aF28.0
aag355
ag296
ag683
ag572
ag686
ag128
ag515
a(lp719
F215.03
aF29.0
aa(lp720
F235.23
aF27.0
aag197
ag474
a(lp721
F249.74
aF17.0
aag562
ag610
a(lp722
F259.69
aF12.0
aa(lp723
F248.74
aF16.0
aa(lp724
F261.36
aF19.0
aag21
ag720
ag9
ag454
a(lp725
F213.53
aF26.0
aag305
a(lp726
F252.06
aF20.0
aag467
a(lp727
F211.0
aF14.0
aa(lp728
F241.7
aF29.0
aag564
a(lp729
F213.1
aF15.0
aag306
a(lp730
F215.13
aF27.0
aa(lp731
F251.91
aF16.0
aa(lp732
F231.04
aF15.0
aag526
ag22
ag151
ag498
a(lp733
F251.03
aF15.0
aa(lp734
F202.39
aF26.0
aa(lp735
F263.57
aF12.0
aa(lp736
F249.36
aF18.0
aag308
a(lp737
F244.03
aF15.0
aa(lp738
F237.87
aF15.0
aag666
ag676
a(lp739
F222.27
aF29.0
aag462
a(lp740
F215.37
aF15.0
aag680
a(lp741
F227.44
aF29.0
aa(lp742
F217.07
aF29.0
aa(lp743
F215.48
aF28.0
aa(lp744
F257.17
aF19.0
aag395
ag337
ag396
a(lp745
F246.16
aF28.0
aa(lp746
F251.32
aF28.0
aa(lp747
F254.42
aF28.0
aa(lp748
F251.93
aF28.0
aa(lp749
F229.82
aF28.0
aa(lp750
F247.47
aF16.0
aa(lp751
F216.27
aF29.0
aa(lp752
F225.8
aF18.0
aag19
a(lp753
F229.55
aF18.0
aa(lp754
F266.09
aF19.0
aa(lp755
F269.38
aF19.0
aag123
a(lp756
F269.47
aF18.0
aa(lp757
F231.32
aF29.0
aa(lp758
F234.65
aF29.0
aa(lp759
F219.97
aF29.0
aa(lp760
F251.85
aF28.0
aa(lp761
F253.65
aF20.0
aag737
a(lp762
F256.47
aF19.0
aag235
a(lp763
F230.69
aF18.0
aag762
a(lp764
F238.25
aF15.0
aag578
ag540
a(lp765
F262.74
aF19.0
aag384
a(lp766
F213.27
aF26.0
aa(lp767
F249.25
aF18.0
aa(lp768
F234.87
aF29.0
aag511
a(lp769
F225.26
aF29.0
aa(lp770
F200.66
aF27.0
aa(lp771
F243.81
aF16.0
aa(lp772
F227.01
aF18.0
aa(lp773
F261.53
aF12.0
aa(lp774
F249.46
aF28.0
aa(lp775
F262.68
aF19.0
aag755
ag549
ag187
a(lp776
F255.39
aF19.0
aag651
ag608
ag659
a(lp777
F244.26
aF28.0
aa(lp778
F230.47
aF29.0
aa(lp779
F221.25
aF29.0
aag552
a(lp780
F215.29
aF26.0
aa(lp781
F219.63
aF29.0
aag223
a(lp782
F253.15
aF19.0
aa(lp783
F246.81
aF28.0
aag319
ag323
ag604
a(lp784
F252.51
aF20.0
aag567
a(lp785
F240.05
aF15.0
aag466
a(lp786
F216.06
aF29.0
aa(lp787
F236.64
aF28.0
aag546
a(lp788
F258.56
aF18.0
aa(lp789
F216.91
aF29.0
aa(lp790
F208.37
aF15.0
aa(lp791
F246.0
aF28.0
aa(lp792
F252.28
aF28.0
aag738
ag297
ag637
ag6
a(lp793
F245.21
aF16.0
aag18
a(lp794
F248.06
aF28.0
aa(lp795
F250.73
aF20.0
aa(lp796
F232.22
aF28.0
aa(lp797
F240.21
aF28.0
aa(lp798
F224.88
aF28.0
aa(lp799
F250.62
aF19.0
aa(lp800
F218.89
aF29.0
aa(lp801
F230.17
aF16.0
aa(lp802
F203.19
aF29.0
aag302
a(lp803
F249.79
aF16.0
aag202
a(lp804
F250.48
aF28.0
aag784
a(lp805
F219.91
aF29.0
aa(lp806
F260.17
aF19.0
aa(lp807
F213.85
aF15.0
aag401
a(lp808
F219.39
aF29.0
aa(lp809
F215.96
aF28.0
aa(lp810
F262.11
aF19.0
aa(lp811
F268.41
aF18.0
aag12
a(lp812
F229.12
aF19.0
aag78
a(lp813
F250.86
aF20.0
aag717
a(lp814
F225.62
aF29.0
aag517
ag110
ag455
a(lp815
F227.78
aF29.0
aag402
asS'actual_pf'
p816
(lp817
g357
ag22
ag22
ag67
ag6
ag6
as.