(dp0
S'complaint_data'
p1
(lp2
(lp3
F245.16
aF28.0
aa(lp4
F247.28
aF28.0
aa(lp5
F253.67
aF18.0
aa(lp6
F243.52
aF28.0
aa(lp7
F270.4
aF19.0
aa(lp8
F243.12
aF28.0
aa(lp9
F240.16
aF29.0
aa(lp10
F244.61
aF28.0
aa(lp11
F248.02
aF28.0
aa(lp12
F243.96
aF28.0
aa(lp13
F239.37
aF28.0
aa(lp14
F242.86
aF28.0
aa(lp15
F244.59
aF28.0
aa(lp16
F241.23
aF28.0
aa(lp17
F241.02
aF28.0
aag5
a(lp18
F239.56
aF28.0
aag3
a(lp19
F269.52
aF19.0
aa(lp20
F243.37
aF29.0
aa(lp21
F246.5
aF28.0
aa(lp22
F242.43
aF28.0
aa(lp23
F239.27
aF29.0
aa(lp24
F242.81
aF28.0
aa(lp25
F239.93
aF28.0
aa(lp26
F244.28
aF28.0
aa(lp27
F245.6
aF28.0
aa(lp28
F246.76
aF28.0
aa(lp29
F245.2
aF28.0
aa(lp30
F243.44
aF28.0
aa(lp31
F238.7
aF28.0
aa(lp32
F244.23
aF28.0
aa(lp33
F243.26
aF28.0
aag32
ag22
a(lp34
F246.03
aF28.0
aag11
ag14
ag4
a(lp35
F237.75
aF29.0
aa(lp36
F245.94
aF28.0
aag21
ag36
a(lp37
F240.41
aF28.0
aa(lp38
F253.15
aF18.0
aag28
a(lp39
F240.98
aF28.0
aa(lp40
F242.79
aF29.0
aag33
a(lp41
F242.56
aF28.0
aag34
ag30
a(lp42
F238.1
aF28.0
aa(lp43
F241.97
aF28.0
aa(lp44
F241.78
aF28.0
aa(lp45
F247.17
aF28.0
aa(lp46
F240.34
aF28.0
aa(lp47
F238.73
aF28.0
aa(lp48
F242.09
aF28.0
aa(lp49
F236.89
aF29.0
aag48
ag17
a(lp50
F241.7
aF29.0
aag45
a(lp51
F246.16
aF28.0
aag43
a(lp52
F234.87
aF29.0
aa(lp53
F244.26
aF28.0
aag7
ag38
a(lp54
F240.21
aF28.0
aag19
asS'convex_hull_y'
p55
(lp56
cnumpy.core.multiarray
scalar
p57
(cnumpy
dtype
p58
(S'f8'
p59
I0
I1
tp60
Rp61
(I3
S'<'
p62
NNNI-1
I-1
I0
tp63
bS'\x86\x91k:{\x1f\x07@'
p64
tp65
Rp66
ag57
(g61
S',\xb3\x04\x066\x8e\x07@'
p67
tp68
Rp69
ag57
(g61
S'#J\x96\xd6Z\xa8\n@'
p70
tp71
Rp72
ag57
(g61
S'\x1f\xfe\xcd\xcb8\xf0\n@'
p73
tp74
Rp75
ag57
(g61
S'\x1f\xfe\xcd\xcb8\xf0\n@'
p76
tp77
Rp78
ag57
(g61
S'\x86\x91k:{\x1f\x07@'
p79
tp80
Rp81
asS'convex_hull_x'
p82
(lp83
g57
(g61
S'\xf6\xfe\xe0&\xe6$\x16@'
p84
tp85
Rp86
ag57
(g61
S'\xbe\xfe\xd3\xccLf\x16@'
p87
tp88
Rp89
ag57
(g61
S'\xc3\xe0\xafg\xd5\r\x16@'
p90
tp91
Rp92
ag57
(g61
S'\x14\xfd\xd9\xf1s\xfa\x15@'
p93
tp94
Rp95
ag57
(g61
S'\xb5\xc4p\x87\x0c\xd6\x15@'
p96
tp97
Rp98
ag57
(g61
S'\xc6^\xbb:\xcc"\x16@'
p99
tp100
Rp101
asS'current_pf'
p102
(lp103
(lp104
F229.79
aF29.0
aa(lp105
F254.47
aF28.0
aa(lp106
F266.21
aF20.0
aa(lp107
F268.42
aF19.0
aasS'all_data_dep'
p108
(lp109
(lp110
F219.87
aF29.0
aag106
a(lp111
F259.26
aF19.0
aa(lp112
F244.91
aF19.0
aa(lp113
F263.04
aF12.0
aa(lp114
F218.73
aF29.0
aa(lp115
F215.02
aF28.0
aag105
a(lp116
F251.57
aF15.0
aa(lp117
F231.39
aF18.0
aa(lp118
F227.19
aF19.0
aa(lp119
F258.9
aF12.0
aa(lp120
F266.32
aF11.0
aa(lp121
F205.09
aF29.0
aa(lp122
F219.95
aF27.0
aa(lp123
F240.99
aF16.0
aa(lp124
F259.5
aF12.0
aa(lp125
F237.52
aF15.0
aa(lp126
F232.96
aF15.0
aa(lp127
F252.89
aF16.0
aa(lp128
F239.24
aF15.0
aag104
a(lp129
F244.12
aF14.0
aa(lp130
F231.77
aF18.0
aa(lp131
F217.47
aF14.0
aa(lp132
F243.78
aF15.0
aa(lp133
F251.02
aF18.0
aa(lp134
F235.53
aF16.0
aag107
a(lp135
F251.81
aF28.0
aa(lp136
F233.12
aF28.0
aa(lp137
F267.04
aF18.0
aa(lp138
F232.03
aF28.0
aa(lp139
F233.0
aF29.0
aa(lp140
F215.47
aF14.0
aa(lp141
F253.49
aF28.0
aa(lp142
F229.64
aF19.0
aag3
a(lp143
F254.59
aF15.0
aa(lp144
F204.51
aF29.0
aa(lp145
F244.25
aF15.0
aa(lp146
F250.44
aF15.0
aa(lp147
F262.22
aF18.0
aa(lp148
F239.04
aF28.0
aa(lp149
F238.23
aF28.0
aag4
a(lp150
F231.34
aF28.0
aa(lp151
F263.59
aF19.0
aa(lp152
F253.47
aF15.0
aa(lp153
F208.99
aF15.0
aa(lp154
F232.0
aF28.0
aa(lp155
F234.06
aF28.0
aag5
a(lp156
F206.62
aF29.0
aa(lp157
F220.82
aF29.0
aa(lp158
F221.06
aF29.0
aa(lp159
F252.81
aF28.0
aa(lp160
F230.74
aF29.0
aa(lp161
F266.39
aF12.0
aag6
a(lp162
F234.08
aF18.0
aa(lp163
F268.38
aF19.0
aag7
a(lp164
F235.95
aF27.0
aa(lp165
F244.92
aF16.0
aag146
a(lp166
F252.68
aF18.0
aa(lp167
F201.55
aF29.0
aa(lp168
F248.4
aF16.0
aa(lp169
F234.68
aF19.0
aa(lp170
F235.79
aF28.0
aa(lp171
F227.12
aF29.0
aa(lp172
F231.31
aF28.0
aa(lp173
F229.3
aF18.0
aa(lp174
F228.97
aF19.0
aa(lp175
F217.55
aF26.0
aa(lp176
F246.61
aF18.0
aa(lp177
F232.2
aF28.0
aa(lp178
F265.38
aF11.0
aa(lp179
F233.79
aF28.0
aa(lp180
F268.58
aF19.0
aa(lp181
F257.33
aF15.0
aa(lp182
F223.3
aF29.0
aa(lp183
F219.4
aF29.0
aa(lp184
F201.52
aF26.0
aa(lp185
F224.3
aF28.0
aa(lp186
F239.59
aF27.0
aa(lp187
F215.88
aF14.0
aa(lp188
F202.23
aF26.0
aa(lp189
F223.98
aF29.0
aa(lp190
F250.87
aF28.0
aa(lp191
F235.78
aF28.0
aag8
ag163
ag9
ag133
a(lp192
F267.28
aF19.0
aa(lp193
F252.87
aF28.0
aa(lp194
F251.25
aF15.0
aa(lp195
F251.71
aF28.0
aa(lp196
F230.57
aF18.0
aa(lp197
F239.96
aF28.0
aa(lp198
F264.18
aF11.0
aa(lp199
F209.84
aF14.0
aa(lp200
F214.24
aF29.0
aa(lp201
F229.95
aF19.0
aa(lp202
F260.41
aF12.0
aa(lp203
F216.3
aF28.0
aa(lp204
F233.85
aF27.0
aa(lp205
F240.43
aF28.0
aa(lp206
F247.72
aF19.0
aa(lp207
F265.82
aF19.0
aa(lp208
F219.5
aF26.0
aag10
a(lp209
F224.49
aF18.0
aa(lp210
F249.34
aF20.0
aa(lp211
F236.84
aF15.0
aa(lp212
F223.01
aF29.0
aa(lp213
F252.04
aF15.0
aa(lp214
F228.86
aF19.0
aa(lp215
F203.98
aF29.0
aa(lp216
F206.12
aF29.0
aa(lp217
F261.68
aF19.0
aa(lp218
F253.64
aF19.0
aa(lp219
F205.13
aF26.0
aa(lp220
F218.15
aF14.0
aa(lp221
F222.56
aF29.0
aa(lp222
F247.69
aF28.0
aag11
ag12
ag178
a(lp223
F251.43
aF28.0
aa(lp224
F250.45
aF18.0
aa(lp225
F227.39
aF29.0
aa(lp226
F239.32
aF15.0
aa(lp227
F251.74
aF28.0
aa(lp228
F218.23
aF14.0
aa(lp229
F248.78
aF15.0
aa(lp230
F238.75
aF28.0
aa(lp231
F249.68
aF15.0
aa(lp232
F208.92
aF29.0
aa(lp233
F247.43
aF17.0
aa(lp234
F224.18
aF29.0
aa(lp235
F247.08
aF20.0
aag13
a(lp236
F257.17
aF12.0
aa(lp237
F225.5
aF29.0
aa(lp238
F245.32
aF19.0
aa(lp239
F211.19
aF14.0
aa(lp240
F232.52
aF18.0
aa(lp241
F236.43
aF28.0
aa(lp242
F249.12
aF20.0
aa(lp243
F236.38
aF27.0
aa(lp244
F231.33
aF18.0
aa(lp245
F256.94
aF11.0
aa(lp246
F255.17
aF15.0
aa(lp247
F221.33
aF29.0
aa(lp248
F210.51
aF15.0
aa(lp249
F233.42
aF28.0
aa(lp250
F262.66
aF19.0
aag161
a(lp251
F208.05
aF29.0
aag192
ag207
a(lp252
F224.07
aF29.0
aa(lp253
F227.99
aF18.0
aa(lp254
F207.89
aF29.0
aa(lp255
F221.17
aF29.0
aa(lp256
F256.23
aF15.0
aa(lp257
F219.37
aF29.0
aa(lp258
F223.52
aF29.0
aa(lp259
F226.88
aF18.0
aa(lp260
F245.5
aF17.0
aa(lp261
F260.17
aF18.0
aag198
a(lp262
F248.19
aF17.0
aa(lp263
F226.13
aF29.0
aa(lp264
F247.08
aF19.0
aa(lp265
F250.04
aF15.0
aa(lp266
F205.71
aF29.0
aag14
a(lp267
F253.39
aF15.0
aag194
a(lp268
F243.08
aF14.0
aa(lp269
F219.33
aF29.0
aa(lp270
F228.27
aF18.0
aag265
a(lp271
F215.19
aF29.0
aag15
a(lp272
F215.94
aF14.0
aa(lp273
F251.01
aF28.0
aa(lp274
F212.71
aF15.0
aa(lp275
F228.47
aF18.0
aa(lp276
F210.24
aF14.0
aa(lp277
F235.03
aF15.0
aag16
a(lp278
F248.81
aF20.0
aa(lp279
F267.43
aF12.0
aa(lp280
F212.92
aF29.0
aa(lp281
F212.45
aF26.0
aa(lp282
F250.12
aF16.0
aa(lp283
F235.37
aF28.0
aa(lp284
F255.32
aF28.0
aa(lp285
F235.97
aF15.0
aa(lp286
F250.05
aF28.0
aag17
a(lp287
F251.79
aF17.0
aa(lp288
F224.33
aF29.0
aa(lp289
F235.92
aF15.0
aa(lp290
F248.54
aF20.0
aag107
a(lp291
F201.9
aF26.0
aa(lp292
F243.93
aF16.0
aag219
a(lp293
F259.38
aF12.0
aa(lp294
F253.26
aF20.0
aa(lp295
F264.93
aF19.0
aa(lp296
F234.34
aF15.0
aa(lp297
F256.45
aF20.0
aa(lp298
F224.43
aF29.0
aa(lp299
F239.06
aF15.0
aa(lp300
F266.03
aF12.0
aa(lp301
F260.5
aF19.0
aa(lp302
F226.57
aF19.0
aa(lp303
F265.65
aF12.0
aa(lp304
F230.24
aF28.0
aa(lp305
F207.75
aF15.0
aa(lp306
F224.95
aF29.0
aa(lp307
F217.29
aF14.0
aa(lp308
F202.94
aF29.0
aa(lp309
F212.05
aF15.0
aa(lp310
F221.73
aF29.0
aa(lp311
F237.9
aF28.0
aa(lp312
F218.02
aF27.0
aa(lp313
F202.81
aF29.0
aa(lp314
F213.86
aF29.0
aa(lp315
F246.65
aF18.0
aa(lp316
F210.71
aF15.0
aag283
a(lp317
F232.62
aF28.0
aag243
a(lp318
F215.31
aF14.0
aa(lp319
F254.34
aF28.0
aa(lp320
F236.36
aF28.0
aa(lp321
F218.1
aF29.0
aa(lp322
F232.29
aF19.0
aa(lp323
F246.5
aF15.0
aa(lp324
F220.87
aF28.0
aa(lp325
F267.59
aF18.0
aa(lp326
F211.59
aF15.0
aag232
a(lp327
F239.51
aF15.0
aa(lp328
F269.47
aF19.0
aa(lp329
F234.87
aF28.0
aa(lp330
F254.27
aF16.0
aa(lp331
F242.46
aF16.0
aa(lp332
F232.22
aF29.0
aa(lp333
F235.7
aF28.0
aa(lp334
F237.44
aF15.0
aa(lp335
F251.91
aF18.0
aag166
a(lp336
F218.43
aF26.0
aa(lp337
F214.25
aF14.0
aa(lp338
F212.44
aF15.0
aa(lp339
F233.28
aF19.0
aag335
a(lp340
F254.5
aF28.0
aa(lp341
F236.06
aF29.0
aa(lp342
F235.21
aF28.0
aag318
a(lp343
F214.33
aF26.0
aa(lp344
F235.12
aF28.0
aag251
a(lp345
F226.65
aF29.0
aa(lp346
F266.19
aF12.0
aa(lp347
F251.24
aF16.0
aa(lp348
F263.79
aF19.0
aa(lp349
F201.15
aF26.0
aa(lp350
F256.22
aF15.0
aag5
ag252
a(lp351
F236.35
aF28.0
aa(lp352
F223.34
aF29.0
aag18
a(lp353
F230.59
aF28.0
aag3
a(lp354
F205.99
aF26.0
aa(lp355
F236.23
aF16.0
aa(lp356
F246.73
aF20.0
aa(lp357
F267.17
aF12.0
aa(lp358
F247.99
aF28.0
aag324
a(lp359
F232.14
aF19.0
aa(lp360
F237.1
aF28.0
aa(lp361
F249.56
aF15.0
aa(lp362
F221.44
aF29.0
aa(lp363
F216.91
aF14.0
aa(lp364
F257.54
aF20.0
aag175
a(lp365
F252.5
aF18.0
aa(lp366
F253.74
aF28.0
aa(lp367
F233.74
aF16.0
aa(lp368
F223.42
aF29.0
aa(lp369
F218.4
aF26.0
aa(lp370
F219.05
aF29.0
aa(lp371
F234.65
aF16.0
aa(lp372
F242.5
aF15.0
aa(lp373
F247.01
aF15.0
aa(lp374
F252.77
aF28.0
aag19
ag104
a(lp375
F253.1
aF20.0
aag177
a(lp376
F247.27
aF20.0
aa(lp377
F233.0
aF28.0
aa(lp378
F217.29
aF14.0
aa(lp379
F249.3
aF19.0
aa(lp380
F204.96
aF29.0
aa(lp381
F231.0
aF29.0
aa(lp382
F261.01
aF12.0
aa(lp383
F231.16
aF19.0
aag156
a(lp384
F266.12
aF12.0
aag182
a(lp385
F229.24
aF28.0
aa(lp386
F264.64
aF11.0
aa(lp387
F254.24
aF20.0
aag20
a(lp388
F232.98
aF28.0
aag340
a(lp389
F266.45
aF18.0
aa(lp390
F215.85
aF28.0
aa(lp391
F236.58
aF28.0
aa(lp392
F257.68
aF12.0
aag363
a(lp393
F252.52
aF15.0
aag205
a(lp394
F211.74
aF15.0
aa(lp395
F260.88
aF12.0
aa(lp396
F248.34
aF28.0
aa(lp397
F216.22
aF26.0
aa(lp398
F211.27
aF15.0
aa(lp399
F231.22
aF29.0
aag181
a(lp400
F250.26
aF15.0
aa(lp401
F217.7
aF29.0
aa(lp402
F222.56
aF29.0
aa(lp403
F237.41
aF28.0
aag21
a(lp404
F230.74
aF29.0
aag22
a(lp405
F242.16
aF15.0
aa(lp406
F212.94
aF14.0
aag360
a(lp407
F247.8
aF28.0
aa(lp408
F264.6
aF18.0
aag23
a(lp409
F245.79
aF18.0
aa(lp410
F231.69
aF18.0
aa(lp411
F240.35
aF28.0
aag237
a(lp412
F228.34
aF29.0
aa(lp413
F237.36
aF28.0
aa(lp414
F255.42
aF15.0
aa(lp415
F216.4
aF29.0
aag190
a(lp416
F214.15
aF15.0
aag24
a(lp417
F248.6
aF16.0
aa(lp418
F245.56
aF16.0
aa(lp419
F264.18
aF12.0
aag256
a(lp420
F237.35
aF28.0
aa(lp421
F240.54
aF15.0
aa(lp422
F218.3
aF29.0
aa(lp423
F236.31
aF28.0
aa(lp424
F258.05
aF20.0
aa(lp425
F265.42
aF19.0
aag250
a(lp426
F223.49
aF29.0
aa(lp427
F264.74
aF12.0
aag307
ag341
ag410
a(lp428
F245.34
aF15.0
aa(lp429
F231.33
aF16.0
aag25
a(lp430
F235.85
aF28.0
aa(lp431
F266.54
aF12.0
aa(lp432
F212.52
aF15.0
aa(lp433
F265.4
aF12.0
aag273
a(lp434
F263.72
aF19.0
aag116
a(lp435
F226.13
aF18.0
aa(lp436
F260.82
aF12.0
aa(lp437
F247.87
aF18.0
aa(lp438
F246.94
aF16.0
aa(lp439
F247.13
aF18.0
aa(lp440
F232.99
aF27.0
aa(lp441
F224.51
aF29.0
aa(lp442
F261.43
aF12.0
aa(lp443
F243.79
aF14.0
aa(lp444
F253.51
aF28.0
aag329
a(lp445
F225.34
aF18.0
aa(lp446
F268.8
aF18.0
aa(lp447
F251.25
aF18.0
aa(lp448
F222.16
aF29.0
aa(lp449
F245.79
aF16.0
aa(lp450
F234.13
aF28.0
aa(lp451
F232.96
aF18.0
aa(lp452
F215.85
aF14.0
aa(lp453
F246.94
aF20.0
aa(lp454
F212.45
aF15.0
aa(lp455
F227.53
aF19.0
aag26
a(lp456
F251.09
aF15.0
aa(lp457
F219.31
aF28.0
aag387
a(lp458
F246.38
aF16.0
aa(lp459
F247.61
aF28.0
aa(lp460
F253.82
aF16.0
aa(lp461
F219.87
aF29.0
aa(lp462
F234.25
aF28.0
aag452
ag413
a(lp463
F227.64
aF29.0
aa(lp464
F248.03
aF19.0
aa(lp465
F226.7
aF29.0
aag241
a(lp466
F226.57
aF29.0
aa(lp467
F255.44
aF12.0
aa(lp468
F248.9
aF28.0
aa(lp469
F218.82
aF29.0
aag272
ag362
a(lp470
F259.38
aF12.0
aa(lp471
F232.05
aF27.0
aa(lp472
F213.41
aF15.0
aa(lp473
F259.39
aF11.0
aag27
a(lp474
F227.15
aF19.0
aag334
a(lp475
F199.95
aF26.0
aa(lp476
F238.25
aF16.0
aa(lp477
F250.24
aF28.0
aa(lp478
F252.62
aF15.0
aag344
a(lp479
F251.0
aF19.0
aag347
ag28
a(lp480
F231.44
aF29.0
aa(lp481
F237.5
aF16.0
aa(lp482
F227.73
aF18.0
aag29
a(lp483
F232.33
aF16.0
aa(lp484
F234.47
aF29.0
aa(lp485
F251.41
aF20.0
aa(lp486
F230.79
aF29.0
aa(lp487
F207.12
aF29.0
aa(lp488
F237.47
aF28.0
aa(lp489
F219.83
aF28.0
aa(lp490
F240.99
aF15.0
aa(lp491
F264.74
aF19.0
aa(lp492
F209.58
aF15.0
aag365
a(lp493
F214.48
aF15.0
aa(lp494
F236.89
aF15.0
aa(lp495
F257.71
aF12.0
aa(lp496
F256.18
aF19.0
aa(lp497
F218.96
aF28.0
aag30
a(lp498
F232.86
aF16.0
aag31
ag375
a(lp499
F236.59
aF28.0
aa(lp500
F204.96
aF29.0
aa(lp501
F240.07
aF16.0
aa(lp502
F258.83
aF20.0
aag378
a(lp503
F249.28
aF20.0
aa(lp504
F262.01
aF12.0
aa(lp505
F222.37
aF29.0
aag263
a(lp506
F252.58
aF20.0
aag226
ag288
a(lp507
F230.94
aF19.0
aa(lp508
F229.19
aF18.0
aag384
a(lp509
F207.65
aF29.0
aa(lp510
F248.89
aF20.0
aa(lp511
F247.67
aF18.0
aag463
a(lp512
F261.57
aF19.0
aag246
a(lp513
F228.28
aF28.0
aa(lp514
F251.79
aF28.0
aa(lp515
F234.25
aF16.0
aag110
ag196
ag420
a(lp516
F235.31
aF27.0
aa(lp517
F214.37
aF26.0
aag197
a(lp518
F237.69
aF15.0
aa(lp519
F252.09
aF18.0
aa(lp520
F213.0
aF15.0
aa(lp521
F261.9
aF12.0
aa(lp522
F257.04
aF12.0
aa(lp523
F252.14
aF20.0
aa(lp524
F238.56
aF28.0
aa(lp525
F205.36
aF29.0
aa(lp526
F264.17
aF20.0
aa(lp527
F220.57
aF29.0
aag172
ag132
ag32
a(lp528
F252.13
aF15.0
aa(lp529
F201.7
aF29.0
aag525
ag33
a(lp530
F251.16
aF28.0
aag105
a(lp531
F214.0
aF28.0
aag32
ag514
ag22
a(lp532
F251.52
aF18.0
aa(lp533
F237.23
aF28.0
aag491
ag125
ag357
a(lp534
F252.45
aF18.0
aa(lp535
F236.98
aF28.0
aa(lp536
F242.55
aF15.0
aa(lp537
F232.59
aF28.0
aa(lp538
F241.23
aF28.0
aa(lp539
F241.69
aF15.0
aa(lp540
F255.21
aF28.0
aa(lp541
F267.17
aF19.0
aa(lp542
F239.79
aF15.0
aa(lp543
F259.76
aF19.0
aa(lp544
F203.86
aF29.0
aa(lp545
F248.71
aF18.0
aa(lp546
F216.84
aF14.0
aa(lp547
F248.06
aF15.0
aa(lp548
F260.69
aF19.0
aa(lp549
F215.18
aF28.0
aa(lp550
F224.99
aF19.0
aa(lp551
F213.48
aF28.0
aa(lp552
F200.82
aF29.0
aag34
ag444
ag150
a(lp553
F254.39
aF15.0
aa(lp554
F218.56
aF29.0
aa(lp555
F214.89
aF29.0
aa(lp556
F234.22
aF28.0
aa(lp557
F218.12
aF29.0
aa(lp558
F221.62
aF29.0
aag149
a(lp559
F251.3
aF18.0
aa(lp560
F218.62
aF14.0
aa(lp561
F203.19
aF29.0
aag130
a(lp562
F229.31
aF28.0
aa(lp563
F232.7
aF28.0
aag162
ag496
ag240
a(lp564
F264.47
aF20.0
aag11
ag14
a(lp565
F234.56
aF28.0
aa(lp566
F237.7
aF28.0
aag171
ag4
a(lp567
F254.13
aF20.0
aa(lp568
F214.05
aF15.0
aa(lp569
F222.09
aF29.0
aa(lp570
F231.25
aF19.0
aa(lp571
F228.3
aF29.0
aa(lp572
F251.52
aF20.0
aag258
a(lp573
F220.42
aF29.0
aa(lp574
F266.11
aF18.0
aa(lp575
F255.64
aF15.0
aa(lp576
F214.28
aF29.0
aag35
a(lp577
F249.99
aF28.0
aa(lp578
F211.48
aF14.0
aa(lp579
F224.34
aF29.0
aa(lp580
F203.93
aF29.0
aag369
a(lp581
F233.28
aF19.0
aag121
ag36
a(lp582
F247.31
aF18.0
aa(lp583
F220.08
aF28.0
aa(lp584
F222.19
aF29.0
aag21
a(lp585
F207.1
aF29.0
aag36
a(lp586
F255.02
aF19.0
aag120
a(lp587
F253.57
aF28.0
aag216
ag433
ag282
ag230
ag279
a(lp588
F209.7
aF15.0
aa(lp589
F217.9
aF29.0
aag267
a(lp590
F232.49
aF28.0
aag570
a(lp591
F234.05
aF28.0
aa(lp592
F222.24
aF29.0
aag509
a(lp593
F228.56
aF28.0
aa(lp594
F251.31
aF15.0
aa(lp595
F231.91
aF15.0
aa(lp596
F251.98
aF28.0
aag346
a(lp597
F223.07
aF29.0
aa(lp598
F260.77
aF12.0
aag441
ag423
a(lp599
F230.14
aF18.0
aa(lp600
F256.06
aF12.0
aa(lp601
F200.92
aF29.0
aa(lp602
F227.18
aF29.0
aag532
a(lp603
F247.25
aF16.0
aa(lp604
F235.51
aF28.0
aag540
a(lp605
F216.23
aF28.0
aag37
a(lp606
F251.52
aF18.0
aa(lp607
F252.82
aF28.0
aa(lp608
F233.43
aF15.0
aag350
ag224
a(lp609
F251.24
aF16.0
aag228
ag320
a(lp610
F235.16
aF28.0
aag419
ag424
ag606
ag584
ag122
a(lp611
F201.97
aF29.0
aag38
a(lp612
F227.91
aF29.0
aa(lp613
F219.64
aF14.0
aa(lp614
F234.45
aF28.0
aag28
ag348
a(lp615
F202.69
aF29.0
aa(lp616
F214.65
aF28.0
aag169
ag353
ag359
a(lp617
F255.62
aF20.0
aa(lp618
F225.16
aF29.0
aa(lp619
F206.9
aF26.0
aa(lp620
F201.47
aF29.0
aag285
a(lp621
F218.04
aF28.0
aag575
a(lp622
F219.08
aF29.0
aag311
ag39
ag40
a(lp623
F261.09
aF18.0
aag220
ag297
a(lp624
F206.43
aF29.0
aa(lp625
F220.37
aF29.0
aa(lp626
F264.16
aF19.0
aag364
a(lp627
F228.72
aF29.0
aa(lp628
F249.81
aF19.0
aa(lp629
F249.66
aF16.0
aa(lp630
F237.51
aF28.0
aa(lp631
F250.6
aF28.0
aag33
ag538
a(lp632
F249.41
aF28.0
aa(lp633
F258.02
aF19.0
aag594
ag257
a(lp634
F232.64
aF28.0
aa(lp635
F250.43
aF18.0
aag41
a(lp636
F223.21
aF29.0
aa(lp637
F220.21
aF29.0
aag434
ag34
ag431
ag208
a(lp638
F231.89
aF28.0
aa(lp639
F261.08
aF12.0
aa(lp640
F247.26
aF18.0
aa(lp641
F246.32
aF16.0
aa(lp642
F264.93
aF19.0
aag610
a(lp643
F232.65
aF27.0
aa(lp644
F267.07
aF12.0
aa(lp645
F217.09
aF29.0
aa(lp646
F233.43
aF29.0
aa(lp647
F201.83
aF29.0
aa(lp648
F216.87
aF28.0
aag585
a(lp649
F202.68
aF29.0
aa(lp650
F205.74
aF29.0
aa(lp651
F254.14
aF20.0
aa(lp652
F236.53
aF29.0
aag370
ag300
ag466
a(lp653
F234.1
aF28.0
aag142
ag30
ag322
ag306
a(lp654
F199.68
aF29.0
aag619
a(lp655
F230.77
aF19.0
aag451
ag487
ag299
a(lp656
F231.62
aF28.0
aa(lp657
F249.34
aF18.0
aa(lp658
F227.29
aF18.0
aag42
ag43
a(lp659
F227.94
aF28.0
aa(lp660
F222.63
aF29.0
aag180
a(lp661
F234.75
aF28.0
aag44
a(lp662
F226.5
aF29.0
aag186
a(lp663
F250.07
aF28.0
aa(lp664
F252.27
aF16.0
aa(lp665
F225.77
aF28.0
aa(lp666
F254.89
aF19.0
aag627
a(lp667
F246.09
aF15.0
aa(lp668
F231.76
aF29.0
aa(lp669
F236.24
aF16.0
aag499
a(lp670
F232.64
aF29.0
aa(lp671
F216.91
aF29.0
aag319
a(lp672
F221.01
aF29.0
aag403
a(lp673
F233.54
aF28.0
aa(lp674
F203.64
aF26.0
aa(lp675
F246.01
aF19.0
aa(lp676
F217.29
aF29.0
aag295
a(lp677
F200.38
aF29.0
aa(lp678
F255.43
aF28.0
aag284
a(lp679
F247.79
aF15.0
aag45
a(lp680
F210.34
aF27.0
aa(lp681
F231.8
aF28.0
aag681
ag596
a(lp682
F234.05
aF28.0
aag286
ag46
a(lp683
F263.19
aF12.0
aa(lp684
F220.98
aF29.0
aag47
a(lp685
F244.85
aF15.0
aa(lp686
F233.12
aF29.0
aag502
ag405
a(lp687
F264.6
aF19.0
aa(lp688
F237.06
aF28.0
aa(lp689
F248.43
aF17.0
aa(lp690
F229.21
aF18.0
aag563
a(lp691
F257.51
aF20.0
aag507
a(lp692
F259.37
aF12.0
aa(lp693
F248.65
aF18.0
aag678
a(lp694
F218.32
aF14.0
aa(lp695
F232.47
aF28.0
aag143
ag447
ag505
ag506
a(lp696
F219.08
aF29.0
aa(lp697
F232.76
aF18.0
aa(lp698
F241.78
aF14.0
aag618
ag135
ag131
ag231
a(lp699
F228.65
aF19.0
aag613
ag628
a(lp700
F251.58
aF19.0
aag553
ag457
a(lp701
F255.47
aF20.0
aag533
ag374
a(lp702
F211.59
aF15.0
aa(lp703
F250.57
aF16.0
aa(lp704
F249.44
aF28.0
aa(lp705
F216.92
aF14.0
aag312
a(lp706
F258.16
aF12.0
aa(lp707
F231.63
aF27.0
aa(lp708
F234.7
aF28.0
aa(lp709
F219.15
aF29.0
aag412
a(lp710
F240.62
aF16.0
aag48
a(lp711
F248.58
aF18.0
aa(lp712
F249.83
aF18.0
aag372
a(lp713
F238.27
aF28.0
aa(lp714
F202.06
aF29.0
aa(lp715
F249.62
aF16.0
aag303
ag602
a(lp716
F221.61
aF29.0
aa(lp717
F227.75
aF18.0
aa(lp718
F249.04
aF28.0
aa(lp719
F233.15
aF29.0
aa(lp720
F256.25
aF28.0
aa(lp721
F252.68
aF19.0
aa(lp722
F203.56
aF29.0
aag705
a(lp723
F235.73
aF28.0
aag609
a(lp724
F250.37
aF17.0
aa(lp725
F226.75
aF18.0
aag49
ag145
a(lp726
F238.78
aF16.0
aag644
a(lp727
F214.38
aF15.0
aa(lp728
F235.85
aF28.0
aa(lp729
F230.13
aF28.0
aag386
ag327
ag694
ag591
ag697
ag164
ag534
a(lp730
F215.03
aF29.0
aa(lp731
F235.23
aF27.0
aag229
ag497
a(lp732
F249.74
aF17.0
aag581
ag626
a(lp733
F259.69
aF12.0
aa(lp734
F248.74
aF16.0
aa(lp735
F261.36
aF19.0
aag48
ag731
ag17
ag478
a(lp736
F213.53
aF26.0
aag336
a(lp737
F252.06
aF20.0
aag490
a(lp738
F211.0
aF14.0
aag50
ag583
a(lp739
F213.1
aF15.0
aag337
a(lp740
F215.13
aF27.0
aa(lp741
F251.91
aF16.0
aa(lp742
F231.04
aF15.0
aag546
ag720
ag187
ag519
a(lp743
F251.03
aF15.0
aa(lp744
F202.39
aF26.0
aa(lp745
F263.57
aF12.0
aa(lp746
F249.36
aF18.0
aag339
a(lp747
F244.03
aF15.0
aa(lp748
F237.87
aF15.0
aag45
ag687
a(lp749
F222.27
aF29.0
aag485
a(lp750
F215.37
aF15.0
aag691
a(lp751
F227.44
aF29.0
aa(lp752
F217.07
aF29.0
aa(lp753
F215.48
aF28.0
aa(lp754
F257.17
aF19.0
aag421
ag368
ag422
ag51
a(lp755
F251.32
aF28.0
aa(lp756
F254.42
aF28.0
aa(lp757
F251.93
aF28.0
aa(lp758
F229.82
aF28.0
aa(lp759
F247.47
aF16.0
aa(lp760
F216.27
aF29.0
aa(lp761
F225.8
aF18.0
aag43
a(lp762
F229.55
aF18.0
aa(lp763
F266.09
aF19.0
aa(lp764
F269.38
aF19.0
aag160
a(lp765
F269.47
aF18.0
aa(lp766
F231.32
aF29.0
aa(lp767
F234.65
aF29.0
aa(lp768
F219.97
aF29.0
aa(lp769
F251.85
aF28.0
aa(lp770
F253.65
aF20.0
aag747
a(lp771
F256.47
aF19.0
aag266
a(lp772
F230.69
aF18.0
aag771
a(lp773
F238.25
aF15.0
aag597
ag560
a(lp774
F262.74
aF19.0
aag411
a(lp775
F213.27
aF26.0
aa(lp776
F249.25
aF18.0
aag52
ag530
a(lp777
F225.26
aF29.0
aa(lp778
F200.66
aF27.0
aa(lp779
F243.81
aF16.0
aa(lp780
F227.01
aF18.0
aa(lp781
F261.53
aF12.0
aa(lp782
F249.46
aF28.0
aa(lp783
F262.68
aF19.0
aag764
ag569
ag221
a(lp784
F255.39
aF19.0
aag664
ag624
ag672
ag53
a(lp785
F230.47
aF29.0
aa(lp786
F221.25
aF29.0
aag572
a(lp787
F215.29
aF26.0
aa(lp788
F219.63
aF29.0
aag254
a(lp789
F253.15
aF19.0
aa(lp790
F246.81
aF28.0
aag351
ag354
ag622
a(lp791
F252.51
aF20.0
aag586
a(lp792
F240.05
aF15.0
aag489
a(lp793
F216.06
aF29.0
aa(lp794
F236.64
aF28.0
aag566
a(lp795
F258.56
aF18.0
aa(lp796
F216.91
aF29.0
aa(lp797
F208.37
aF15.0
aa(lp798
F246.0
aF28.0
aa(lp799
F252.28
aF28.0
aag748
ag328
ag652
ag7
a(lp800
F245.21
aF16.0
aag38
a(lp801
F248.06
aF28.0
aa(lp802
F250.73
aF20.0
aa(lp803
F232.22
aF28.0
aag54
a(lp804
F224.88
aF28.0
aa(lp805
F250.62
aF19.0
aa(lp806
F218.89
aF29.0
aa(lp807
F230.17
aF16.0
aa(lp808
F203.19
aF29.0
aag333
a(lp809
F249.79
aF16.0
aag234
a(lp810
F250.48
aF28.0
aag791
a(lp811
F219.91
aF29.0
aa(lp812
F260.17
aF19.0
aa(lp813
F213.85
aF15.0
aag427
a(lp814
F219.39
aF29.0
aa(lp815
F215.96
aF28.0
aa(lp816
F262.11
aF19.0
aa(lp817
F268.41
aF18.0
aag19
a(lp818
F229.12
aF19.0
aag117
a(lp819
F250.86
aF20.0
aag728
a(lp820
F225.62
aF29.0
aag536
ag148
ag479
a(lp821
F227.78
aF29.0
aag428
asS'actual_pf'
p822
(lp823
g20
ag720
ag720
ag106
ag7
ag7
as.