(dp0
S'evals'
p1
(dp2
S'xomo_ground'
p3
(dp4
S'SWAY'
p5
(lp6
I2
aF70.0
asS'AL2'
p7
(lp8
I1
aF44.0
asS'NSGAII'
p9
(lp10
I3
aF2100.0
asS'SPEA2'
p11
(lp12
I3
aF2100.0
assS'xomo_osp'
p13
(dp14
g5
(lp15
I2
aF70.0
asg7
(lp16
I1
aF43.0
asg9
(lp17
I3
aF2100.0
asg11
(lp18
I3
aF2100.0
assS'xomoo2'
p19
(dp20
g5
(lp21
I2
aF70.0
asg7
(lp22
I1
aF43.0
asg9
(lp23
I3
aF2100.0
asg11
(lp24
I3
aF2100.0
assS'xomo_flight'
p25
(dp26
g5
(lp27
I2
aF70.0
asg7
(lp28
I1
aF42.0
asg9
(lp29
I3
aF2100.0
asg11
(lp30
I3
aF2100.0
assS'xomo_all'
p31
(dp32
g5
(lp33
I2
aF70.0
asg7
(lp34
I1
aF44.0
asg9
(lp35
I3
aF2100.0
asg11
(lp36
I3
aF2100.0
asssS'gd'
p37
(dp38
g3
(dp39
g5
(lp40
I2
aF0.10871
asg7
(lp41
I1
aF0.01578
asg9
(lp42
I1
aF0.00676
asg11
(lp43
I1
aF0.00755
assg13
(dp44
g5
(lp45
I2
aF0.11853
asg7
(lp46
I1
aF0.02867
asg9
(lp47
I1
aF0.01778
asg11
(lp48
I1
aF0.01892
assg19
(dp49
g5
(lp50
I3
aF0.1405
asg7
(lp51
I2
aF0.0287
asg9
(lp52
I1
aF0.01799
asg11
(lp53
I1
aF0.01836
assg25
(dp54
g5
(lp55
I3
aF0.14256
asg7
(lp56
I2
aF0.03383
asg9
(lp57
I1
aF0.01126
asg11
(lp58
I1
aF0.01301
assg31
(dp59
g5
(lp60
I3
aF0.12989
asg7
(lp61
I2
aF0.0412
asg9
(lp62
I1
aF0.01747
asg11
(lp63
I1
aF0.02174
asssS'igd'
p64
(dp65
g3
(dp66
g7
(lp67
I2
aF0.01247
asg5
(lp68
I2
aF0.01152
asg9
(lp69
I1
aF0.00053
asg11
(lp70
I1
aF0.00048
assg13
(dp71
g5
(lp72
I2
aF0.01522
asg7
(lp73
I2
aF0.01527
asg9
(lp74
I1
aF0.00141
asg11
(lp75
I1
aF0.0011
assg19
(dp76
g7
(lp77
I1
aF0.01833
asg5
(lp78
I1
aF0.00976
asg9
(lp79
I1
aF0.00095
asg11
(lp80
I1
aF0.00114
assg25
(dp81
g7
(lp82
I2
aF0.01806
asg5
(lp83
I2
aF0.0128
asg9
(lp84
I1
aF0.00109
asg11
(lp85
I1
aF0.00098
assg31
(dp86
g7
(lp87
I1
aF0.01393
asg5
(lp88
I1
aF0.00791
asg9
(lp89
I1
aF0.00064
asg11
(lp90
I1
aF0.00073
asss.