(dp0
S'evals'
p1
(dp2
S'xomoo2_dataset1'
p3
(dp4
S'SWAY'
p5
(lp6
I2
aF70.0
asS'AL2'
p7
(lp8
I1
aF30.0
asS'NSGAII'
p9
(lp10
I3
aF2100.0
asS'SPEA2'
p11
(lp12
I3
aF2100.0
assS'xomoo2_dataset2'
p13
(dp14
g5
(lp15
I2
aF70.0
asg7
(lp16
I1
aF30.0
asg9
(lp17
I3
aF2100.0
asg11
(lp18
I3
aF2100.0
assS'xomoo2_dataset3'
p19
(dp20
g5
(lp21
I2
aF70.0
asg7
(lp22
I1
aF30.0
asg9
(lp23
I3
aF2100.0
asg11
(lp24
I3
aF2100.0
assS'xomo_all_dataset3'
p25
(dp26
g5
(lp27
I2
aF70.0
asg7
(lp28
I1
aF30.0
asg9
(lp29
I3
aF2100.0
asg11
(lp30
I3
aF2100.0
assS'xomo_all_dataset2'
p31
(dp32
g5
(lp33
I2
aF70.0
asg7
(lp34
I1
aF31.0
asg9
(lp35
I3
aF2100.0
asg11
(lp36
I3
aF2100.0
assS'xomo_all_dataset1'
p37
(dp38
g5
(lp39
I2
aF70.0
asg7
(lp40
I1
aF30.0
asg9
(lp41
I3
aF2100.0
asg11
(lp42
I3
aF2100.0
assS'xomo_osp_dataset2'
p43
(dp44
g5
(lp45
I2
aF70.0
asg7
(lp46
I1
aF30.0
asg9
(lp47
I3
aF2100.0
asg11
(lp48
I3
aF2100.0
assS'xomo_osp_dataset3'
p49
(dp50
g5
(lp51
I2
aF70.0
asg7
(lp52
I1
aF30.0
asg9
(lp53
I3
aF2100.0
asg11
(lp54
I3
aF2100.0
assS'xomo_flight_dataset3'
p55
(dp56
g5
(lp57
I2
aF70.0
asg7
(lp58
I1
aF31.0
asg9
(lp59
I3
aF2100.0
asg11
(lp60
I3
aF2100.0
assS'xomo_flight_dataset2'
p61
(dp62
g5
(lp63
I2
aF70.0
asg7
(lp64
I1
aF29.0
asg9
(lp65
I3
aF2100.0
asg11
(lp66
I3
aF2100.0
assS'xomo_flight_dataset1'
p67
(dp68
g5
(lp69
I2
aF70.0
asg7
(lp70
I1
aF30.0
asg9
(lp71
I3
aF2100.0
asg11
(lp72
I3
aF2100.0
assS'xomo_osp_dataset1'
p73
(dp74
g5
(lp75
I2
aF70.0
asg7
(lp76
I1
aF30.0
asg9
(lp77
I3
aF2100.0
asg11
(lp78
I3
aF2100.0
assS'xomo_ground_dataset2'
p79
(dp80
g5
(lp81
I2
aF70.0
asg7
(lp82
I1
aF30.0
asg9
(lp83
I3
aF2100.0
asg11
(lp84
I3
aF2100.0
assS'xomo_ground_dataset3'
p85
(dp86
g5
(lp87
I2
aF70.0
asg7
(lp88
I1
aF30.0
asg9
(lp89
I3
aF2100.0
asg11
(lp90
I3
aF2100.0
assS'xomo_ground_dataset1'
p91
(dp92
g5
(lp93
I2
aF70.0
asg7
(lp94
I1
aF30.0
asg9
(lp95
I3
aF2100.0
asg11
(lp96
I3
aF2100.0
asssS'gd'
p97
(dp98
g3
(dp99
g5
(lp100
I2
aF0.14233
asg7
(lp101
I1
aF0.01083
asg9
(lp102
I1
aF0.01383
asg11
(lp103
I1
aF0.01256
assg13
(dp104
g5
(lp105
I2
aF1226.64573
asg7
(lp106
I1
aF0.01116
asg9
(lp107
I1
aF0.01542
asg11
(lp108
I1
aF0.01449
assg19
(dp109
g5
(lp110
I2
aF5.43212
asg7
(lp111
I1
aF0.00019
asg9
(lp112
I1
aF0.00548
asg11
(lp113
I1
aF0.00477
assg25
(dp114
g5
(lp115
I2
aF5.84155
asg7
(lp116
I1
aF0.00267
asg9
(lp117
I1
aF0.00706
asg11
(lp118
I1
aF0.00466
assg31
(dp119
g5
(lp120
I2
aF1065.39466
asg7
(lp121
I1
aF0.01359
asg9
(lp122
I1
aF0.01054
asg11
(lp123
I1
aF0.01119
assg37
(dp124
g5
(lp125
I2
aF0.12449
asg7
(lp126
I1
aF0.01047
asg9
(lp127
I1
aF0.01134
asg11
(lp128
I1
aF0.01113
assg43
(dp129
g5
(lp130
I2
aF1137.61404
asg7
(lp131
I1
aF0.01097
asg9
(lp132
I1
aF0.00958
asg11
(lp133
I1
aF0.00864
assg49
(dp134
g5
(lp135
I2
aF5.39611
asg7
(lp136
I1
aF0.00131
asg9
(lp137
I1
aF0.00559
asg11
(lp138
I1
aF0.00447
assg55
(dp139
g5
(lp140
I1
aF0.00668
asg7
(lp141
I1
aF0.00014
asg9
(lp142
I1
aF0.00806
asg11
(lp143
I1
aF0.00376
assg61
(dp144
g5
(lp145
I2
aF1311.65707
asg7
(lp146
I1
aF0.01446
asg9
(lp147
I1
aF0.00844
asg11
(lp148
I1
aF0.00763
assg67
(dp149
g5
(lp150
I2
aF0.12864
asg7
(lp151
I1
aF0.01403
asg9
(lp152
I1
aF0.00945
asg11
(lp153
I1
aF0.00823
assg73
(dp154
g5
(lp155
I2
aF0.12295
asg7
(lp156
I1
aF0.01167
asg9
(lp157
I1
aF0.01078
asg11
(lp158
I1
aF0.01013
assg79
(dp159
g5
(lp160
I2
aF1061.47716
asg7
(lp161
I1
aF0.00394
asg9
(lp162
I1
aF0.00714
asg11
(lp163
I1
aF0.00735
assg85
(dp164
g5
(lp165
I2
aF7.00287
asg7
(lp166
I1
aF0.00492
asg9
(lp167
I1
aF0.02457
asg11
(lp168
I1
aF0.01833
assg91
(dp169
g5
(lp170
I2
aF0.11739
asg7
(lp171
I1
aF0.01127
asg9
(lp172
I1
aF0.01158
asg11
(lp173
I1
aF0.01046
asssS'igd'
p174
(dp175
g3
(dp176
g7
(lp177
I1
aF0.00957
asg5
(lp178
I1
aF0.00676
asg9
(lp179
I1
aF0.00061
asg11
(lp180
I1
aF0.0004
assg13
(dp181
g5
(lp182
I1
aF0.32345
asg7
(lp183
I1
aF0.01033
asg9
(lp184
I1
aF0.00044
asg11
(lp185
I1
aF0.0005
assg19
(dp186
g5
(lp187
I2
aF0.4614
asg7
(lp188
I1
aF0.00112
asg9
(lp189
I1
aF0.0
asg11
(lp190
I1
aF0.0
assg25
(dp191
g5
(lp192
I2
aF0.51073
asg7
(lp193
I1
aF0.00415
asg9
(lp194
I1
aF0.0
asg11
(lp195
I1
aF0.0
assg31
(dp196
g5
(lp197
I2
aF0.29043
asg7
(lp198
I1
aF0.00839
asg9
(lp199
I1
aF0.0001
asg11
(lp200
I1
aF0.00027
assg37
(dp201
g7
(lp202
I1
aF0.00958
asg5
(lp203
I1
aF0.00457
asg9
(lp204
I1
aF0.00038
asg11
(lp205
I1
aF0.00034
assg43
(dp206
g5
(lp207
I3
aF0.68685
asg7
(lp208
I2
aF0.01105
asg9
(lp209
I1
aF0.0001
asg11
(lp210
I1
aF0.00016
assg49
(dp211
g5
(lp212
I2
aF0.52248
asg7
(lp213
I1
aF0.00178
asg9
(lp214
I1
aF0.0
asg11
(lp215
I1
aF0.0
assg55
(dp216
g7
(lp217
I1
aF0.00392
asg5
(lp218
I1
aF1e-05
asg9
(lp219
I1
aF0.0
asg11
(lp220
I1
aF0.0
assg61
(dp221
g5
(lp222
I1
aF0.30866
asg7
(lp223
I1
aF0.01196
asg9
(lp224
I1
aF6e-05
asg11
(lp225
I1
aF6e-05
assg67
(dp226
g7
(lp227
I1
aF0.0106
asg5
(lp228
I1
aF0.00598
asg9
(lp229
I1
aF0.00013
asg11
(lp230
I1
aF9e-05
assg73
(dp231
g7
(lp232
I1
aF0.0089
asg5
(lp233
I1
aF0.00439
asg9
(lp234
I1
aF0.00017
asg11
(lp235
I1
aF0.00018
assg79
(dp236
g5
(lp237
I1
aF0.43851
asg7
(lp238
I1
aF0.00309
asg9
(lp239
I1
aF9e-05
asg11
(lp240
I1
aF6e-05
assg85
(dp241
g5
(lp242
I2
aF0.93783
asg7
(lp243
I1
aF0.00011
asg9
(lp244
I1
aF0.0
asg11
(lp245
I1
aF0.0
assg91
(dp246
g7
(lp247
I1
aF0.00876
asg5
(lp248
I1
aF0.00526
asg9
(lp249
I1
aF0.00053
asg11
(lp250
I1
aF0.00055
asss.