(dp0
S'evals'
p1
(dp2
S'xomo_ground'
p3
(dp4
S'Flash4'
p5
(lp6
I2
aF59.0
asS'SWAY'
p7
(lp8
I3
aF70.0
asS'AL2'
p9
(lp10
I1
aF44.0
asS'NSGAII'
p11
(lp12
I4
aF2100.0
asS'SPEA2'
p13
(lp14
I4
aF2100.0
assS'xomo_osp'
p15
(dp16
g5
(lp17
I2
aF59.0
asg7
(lp18
I3
aF70.0
asg9
(lp19
I1
aF43.0
asg11
(lp20
I4
aF2100.0
asg13
(lp21
I4
aF2100.0
assS'xomoo2'
p22
(dp23
g5
(lp24
I2
aF59.0
asg7
(lp25
I3
aF70.0
asg9
(lp26
I1
aF43.0
asg11
(lp27
I4
aF2100.0
asg13
(lp28
I4
aF2100.0
assS'xomo_flight'
p29
(dp30
g5
(lp31
I2
aF59.0
asg7
(lp32
I3
aF70.0
asg9
(lp33
I1
aF42.0
asg11
(lp34
I4
aF2100.0
asg13
(lp35
I4
aF2100.0
assS'xomo_all'
p36
(dp37
g5
(lp38
I2
aF59.0
asg7
(lp39
I3
aF70.0
asg9
(lp40
I1
aF44.0
asg11
(lp41
I4
aF2100.0
asg13
(lp42
I4
aF2100.0
asssS'gd'
p43
(dp44
g3
(dp45
g5
(lp46
I1
aF0.01638
asg7
(lp47
I2
aF0.10871
asg9
(lp48
I1
aF0.01578
asg11
(lp49
I1
aF0.00676
asg13
(lp50
I1
aF0.00755
assg15
(dp51
g5
(lp52
I1
aF0.02928
asg7
(lp53
I2
aF0.11853
asg9
(lp54
I1
aF0.02867
asg11
(lp55
I1
aF0.01778
asg13
(lp56
I1
aF0.01892
assg22
(dp57
g5
(lp58
I2
aF0.04293
asg7
(lp59
I3
aF0.1405
asg9
(lp60
I2
aF0.0287
asg11
(lp61
I1
aF0.01799
asg13
(lp62
I1
aF0.01836
assg29
(dp63
g5
(lp64
I2
aF0.02778
asg7
(lp65
I3
aF0.14256
asg9
(lp66
I2
aF0.03383
asg11
(lp67
I1
aF0.01126
asg13
(lp68
I1
aF0.01301
assg36
(dp69
g5
(lp70
I2
aF0.03793
asg7
(lp71
I3
aF0.12989
asg9
(lp72
I2
aF0.0412
asg11
(lp73
I1
aF0.01747
asg13
(lp74
I1
aF0.02174
asssS'igd'
p75
(dp76
g3
(dp77
g5
(lp78
I1
aF0.00944
asg9
(lp79
I1
aF0.01247
asg7
(lp80
I1
aF0.01152
asg11
(lp81
I1
aF0.00053
asg13
(lp82
I1
aF0.00048
assg15
(dp83
g5
(lp84
I2
aF0.01503
asg7
(lp85
I2
aF0.01522
asg9
(lp86
I2
aF0.01527
asg11
(lp87
I1
aF0.00141
asg13
(lp88
I1
aF0.0011
assg22
(dp89
g5
(lp90
I1
aF0.01564
asg9
(lp91
I1
aF0.01833
asg7
(lp92
I1
aF0.00976
asg11
(lp93
I1
aF0.00095
asg13
(lp94
I1
aF0.00114
assg29
(dp95
g5
(lp96
I2
aF0.01839
asg9
(lp97
I2
aF0.01806
asg7
(lp98
I2
aF0.0128
asg11
(lp99
I1
aF0.00109
asg13
(lp100
I1
aF0.00098
assg36
(dp101
g5
(lp102
I1
aF0.01292
asg9
(lp103
I1
aF0.01393
asg7
(lp104
I1
aF0.00791
asg11
(lp105
I1
aF0.00064
asg13
(lp106
I1
aF0.00073
asss.