(dp0
S'evals'
p1
(dp2
S'xomo_ground'
p3
(dp4
S'SWAY'
p5
(lp6
I3
aF70.0
asS'AL2'
p7
(lp8
I1
aF32.0
asS'NSGAII'
p9
(lp10
I4
aF2100.0
asS'SPEA2'
p11
(lp12
I4
aF2100.0
asS'Flash3'
p13
(lp14
I2
aF59.0
assS'xomo_osp'
p15
(dp16
g5
(lp17
I3
aF70.0
asg7
(lp18
I1
aF32.0
asg9
(lp19
I4
aF2100.0
asg11
(lp20
I4
aF2100.0
asg13
(lp21
I2
aF59.0
assS'xomoo2'
p22
(dp23
g5
(lp24
I3
aF70.0
asg7
(lp25
I1
aF32.0
asg9
(lp26
I4
aF2100.0
asg11
(lp27
I4
aF2100.0
asg13
(lp28
I2
aF59.0
assS'xomo_flight'
p29
(dp30
g5
(lp31
I3
aF70.0
asg7
(lp32
I1
aF32.0
asg9
(lp33
I4
aF2100.0
asg11
(lp34
I4
aF2100.0
asg13
(lp35
I2
aF59.0
assS'xomo_all'
p36
(dp37
g5
(lp38
I3
aF70.0
asg7
(lp39
I1
aF32.0
asg9
(lp40
I4
aF2100.0
asg11
(lp41
I4
aF2100.0
asg13
(lp42
I2
aF59.0
asssS'gd'
p43
(dp44
g3
(dp45
g5
(lp46
I2
aF0.10871
asg7
(lp47
I1
aF0.02014
asg9
(lp48
I1
aF0.00676
asg11
(lp49
I1
aF0.00755
asg13
(lp50
I1
aF0.0161
assg15
(dp51
g5
(lp52
I3
aF0.11853
asg7
(lp53
I2
aF0.04226
asg9
(lp54
I1
aF0.01778
asg11
(lp55
I1
aF0.01892
asg13
(lp56
I2
aF0.03434
assg22
(dp57
g5
(lp58
I3
aF0.1405
asg7
(lp59
I2
aF0.03782
asg9
(lp60
I1
aF0.01799
asg11
(lp61
I1
aF0.01836
asg13
(lp62
I2
aF0.02895
assg29
(dp63
g5
(lp64
I3
aF0.14256
asg7
(lp65
I2
aF0.03713
asg9
(lp66
I1
aF0.01126
asg11
(lp67
I1
aF0.01301
asg13
(lp68
I1
aF0.02108
assg36
(dp69
g5
(lp70
I3
aF0.12989
asg7
(lp71
I2
aF0.04796
asg9
(lp72
I1
aF0.01747
asg11
(lp73
I1
aF0.02174
asg13
(lp74
I2
aF0.04002
asssS'igd'
p75
(dp76
g3
(dp77
g5
(lp78
I1
aF0.01152
asg7
(lp79
I1
aF0.01191
asg9
(lp80
I1
aF0.00053
asg11
(lp81
I1
aF0.00048
asg13
(lp82
I1
aF0.00799
assg15
(dp83
g7
(lp84
I2
aF0.01958
asg5
(lp85
I2
aF0.01522
asg9
(lp86
I1
aF0.00141
asg11
(lp87
I1
aF0.0011
asg13
(lp88
I2
aF0.01559
assg22
(dp89
g7
(lp90
I1
aF0.02349
asg5
(lp91
I1
aF0.00976
asg9
(lp92
I1
aF0.00095
asg11
(lp93
I1
aF0.00114
asg13
(lp94
I1
aF0.01537
assg29
(dp95
g7
(lp96
I2
aF0.02523
asg5
(lp97
I2
aF0.0128
asg9
(lp98
I1
aF0.00109
asg11
(lp99
I1
aF0.00098
asg13
(lp100
I2
aF0.01867
assg36
(dp101
g7
(lp102
I1
aF0.01882
asg5
(lp103
I1
aF0.00791
asg9
(lp104
I1
aF0.00064
asg11
(lp105
I1
aF0.00073
asg13
(lp106
I1
aF0.00894
asss.