(dp0
S'evals'
p1
(dp2
S'xomo_ground'
p3
(dp4
S'MOEAD'
p5
(lp6
I4
aF2100.0
asS'SPEA2'
p7
(lp8
I4
aF2100.0
asS'AL2'
p9
(lp10
I1
aF44.0
asS'AL5'
p11
(lp12
I3
aF102.0
asS'SWAY'
p13
(lp14
I2
aF70.0
asS'NSGAII'
p15
(lp16
I4
aF2100.0
assS'xomo_osp'
p17
(dp18
g5
(lp19
I4
aF2100.0
asg7
(lp20
I4
aF2100.0
asg9
(lp21
I1
aF43.0
asg11
(lp22
I3
aF103.0
asg13
(lp23
I2
aF70.0
asg15
(lp24
I4
aF2100.0
assS'xomoo2'
p25
(dp26
g5
(lp27
I4
aF2100.0
asg7
(lp28
I4
aF2100.0
asg9
(lp29
I1
aF43.0
asg11
(lp30
I3
aF102.0
asg13
(lp31
I2
aF70.0
asg15
(lp32
I4
aF2100.0
assS'xomo_flight'
p33
(dp34
g5
(lp35
I4
aF2100.0
asg7
(lp36
I4
aF2100.0
asg9
(lp37
I1
aF42.0
asg11
(lp38
I3
aF103.0
asg13
(lp39
I2
aF70.0
asg15
(lp40
I4
aF2100.0
assS'xomo_all'
p41
(dp42
g5
(lp43
I4
aF2100.0
asg7
(lp44
I4
aF2100.0
asg9
(lp45
I1
aF44.0
asg11
(lp46
I3
aF102.0
asg13
(lp47
I2
aF70.0
asg15
(lp48
I4
aF2100.0
asssS'gd'
p49
(dp50
g3
(dp51
g5
(lp52
I1
aF0.00231
asg7
(lp53
I1
aF0.00755
asg9
(lp54
I1
aF0.01578
asg11
(lp55
I2
aF0.10388
asg13
(lp56
I2
aF0.10871
asg15
(lp57
I1
aF0.00676
assg17
(dp58
g5
(lp59
I1
aF0.00537
asg7
(lp60
I2
aF0.01892
asg9
(lp61
I2
aF0.02867
asg11
(lp62
I3
aF0.11894
asg13
(lp63
I3
aF0.11853
asg15
(lp64
I2
aF0.01778
assg25
(dp65
g5
(lp66
I1
aF0.00589
asg7
(lp67
I2
aF0.01836
asg9
(lp68
I3
aF0.0287
asg11
(lp69
I4
aF0.14059
asg13
(lp70
I4
aF0.1405
asg15
(lp71
I2
aF0.01799
assg33
(dp72
g5
(lp73
I1
aF0.00268
asg7
(lp74
I1
aF0.01301
asg9
(lp75
I2
aF0.03383
asg11
(lp76
I3
aF0.12856
asg13
(lp77
I4
aF0.14256
asg15
(lp78
I1
aF0.01126
assg41
(dp79
g5
(lp80
I1
aF0.00686
asg7
(lp81
I2
aF0.02174
asg9
(lp82
I3
aF0.0412
asg11
(lp83
I4
aF0.13971
asg13
(lp84
I4
aF0.12989
asg15
(lp85
I2
aF0.01747
asssS'igd'
p86
(dp87
g3
(dp88
g5
(lp89
I1
aF0.00095
asg7
(lp90
I1
aF0.00048
asg13
(lp91
I1
aF0.01152
asg11
(lp92
I1
aF0.00533
asg9
(lp93
I1
aF0.01247
asg15
(lp94
I1
aF0.00053
assg17
(dp95
g5
(lp96
I1
aF0.00095
asg7
(lp97
I1
aF0.0011
asg9
(lp98
I1
aF0.01527
asg11
(lp99
I1
aF0.00784
asg13
(lp100
I1
aF0.01522
asg15
(lp101
I1
aF0.00141
assg25
(dp102
g5
(lp103
I1
aF0.00202
asg7
(lp104
I1
aF0.00114
asg13
(lp105
I1
aF0.00976
asg11
(lp106
I1
aF0.01086
asg9
(lp107
I1
aF0.01833
asg15
(lp108
I1
aF0.00095
assg33
(dp109
g5
(lp110
I1
aF0.0017
asg7
(lp111
I1
aF0.00098
asg13
(lp112
I1
aF0.0128
asg11
(lp113
I1
aF0.00927
asg9
(lp114
I1
aF0.01806
asg15
(lp115
I1
aF0.00109
assg41
(dp116
g5
(lp117
I1
aF0.00105
asg7
(lp118
I1
aF0.00073
asg13
(lp119
I1
aF0.00791
asg11
(lp120
I1
aF0.00683
asg9
(lp121
I1
aF0.01393
asg15
(lp122
I1
aF0.00064
asss.