(dp0
S'./Data/POM3C.csv'
p1
(dp2
S'evals'
p3
(lp4
I77
asS'igd'
p5
(lp6
cnumpy.core.multiarray
scalar
p7
(cnumpy
dtype
p8
(S'f8'
p9
I0
I1
tp10
Rp11
(I3
S'<'
p12
NNNI-1
I-1
I0
tp13
bS'\xb4c\xd7x\x1cs\xa6?'
p14
tp15
Rp16
asS'gen_dist'
p17
(lp18
g7
(g11
S'W\xbaw\xd7\r\x18\x92?'
p19
tp20
Rp21
ass.