(dp0
S'./Data/POM3A.csv'
p1
(dp2
S'evals'
p3
(lp4
I63
asS'igd'
p5
(lp6
cnumpy.core.multiarray
scalar
p7
(cnumpy
dtype
p8
(S'f8'
p9
I0
I1
tp10
Rp11
(I3
S'<'
p12
NNNI-1
I-1
I0
tp13
bS'p\xba\x91T\xa1+\x90?'
p14
tp15
Rp16
asS'gen_dist'
p17
(lp18
g7
(g11
S'\x89\x88\xe9[\x98(\x84?'
p19
tp20
Rp21
ass.