(dp0
S'./Data/POM3D.csv'
p1
(dp2
S'evals'
p3
(lp4
I62
asS'igd'
p5
(lp6
cnumpy.core.multiarray
scalar
p7
(cnumpy
dtype
p8
(S'f8'
p9
I0
I1
tp10
Rp11
(I3
S'<'
p12
NNNI-1
I-1
I0
tp13
bS'\xc1@C\xd3\xfd+\xe9?'
p14
tp15
Rp16
asS'gen_dist'
p17
(lp18
g7
(g11
S'\x08L\xd7`\x8b\xae\xbe?'
p19
tp20
Rp21
ass.