(dp0
S'./Data/POM3C.csv'
p1
(dp2
S'evals'
p3
(lp4
I61
asS'igd'
p5
(lp6
cnumpy.core.multiarray
scalar
p7
(cnumpy
dtype
p8
(S'f8'
p9
I0
I1
tp10
Rp11
(I3
S'<'
p12
NNNI-1
I-1
I0
tp13
bS'\xc9o\xb1}?\xf0\xa6?'
p14
tp15
Rp16
asS'gen_dist'
p17
(lp18
g7
(g11
S'D\xc4J\x81-\xbe\xae?'
p19
tp20
Rp21
ass.