(dp0
S'./Data/xomo_osp.csv'
p1
(dp2
S'evals'
p3
(lp4
I50
asS'igd'
p5
(lp6
cnumpy.core.multiarray
scalar
p7
(cnumpy
dtype
p8
(S'f8'
p9
I0
I1
tp10
Rp11
(I3
S'<'
p12
NNNI-1
I-1
I0
tp13
bS"\x90\xb0'\xb8g\xfct?"
p14
tp15
Rp16
asS'gen_dist'
p17
(lp18
g7
(g11
S'G\x881\xea\xb2U\x97?'
p19
tp20
Rp21
ass.