(dp0
S'../../Data/noc_CM_log.csv'
p1
(dp2
S'pf'
p3
(lp4
(lp5
F9.672985692000001
aF5.123159887
aa(lp6
F9.672985692000001
aF5.123159887
aa(lp7
F9.726829514
aF5.123157473
aa(lp8
F9.726829514
aF5.123157473
aa(lp9
F9.726829514
aF5.123157473
aa(lp10
F9.740247934
aF5.121424796
aa(lp11
F9.740247934
aF5.121424796
aa(lp12
F9.740247934
aF5.121424796
aa(lp13
F9.740247934
aF5.121424796
aa(lp14
F9.766851864
aF5.117965171
aa(lp15
F9.766851864
aF5.117965171
aa(lp16
F9.766851864
aF5.117965171
aa(lp17
F9.766851864
aF5.117965171
aa(lp18
F9.824529208
aF5.104190483
aa(lp19
F9.824529208
aF5.104190483
aa(lp20
F9.824529208
aF5.104190483
aa(lp21
F9.824529208
aF5.104190483
aa(lp22
F9.858304322
aF5.0661620869999995
aa(lp23
F9.858304322
aF5.0661620869999995
aa(lp24
F9.858304322
aF5.0661620869999995
aa(lp25
F9.858304322
aF5.0661620869999995
aa(lp26
F9.965784285
aF5.066154451
aa(lp27
F9.965784285
aF5.066154451
aa(lp28
F9.965784285
aF5.066154451
aa(lp29
F9.965784285
aF5.066154451
aassS'../../Data/wc-3d-c4.csv'
p30
(dp31
g3
(lp32
(lp33
F7990.6
aF1.2994
aa(lp34
F34466.0
aF2.9167
aa(lp35
F57293.0
aF15.94
aa(lp36
F57972.0
aF16.279
aa(lp37
F63510.0
aF116.06
aa(lp38
F66556.0
aF117.56
aa(lp39
F69097.0
aF127.68
aa(lp40
F70644.0
aF142.51
aa(lp41
F72028.0
aF364.41
aa(lp42
F72768.0
aF390.52
aa(lp43
F76190.0
aF789.55
aa(lp44
F79489.0
aF1165.2
aa(lp45
F81320.0
aF10245.0
aa(lp46
F83057.0
aF10676.0
aa(lp47
F87119.0
aF26320.0
aa(lp48
F95094.0
aF36603.0
aassS'../../Data/wc+sol-3d-c4.csv'
p49
(dp50
g3
(lp51
(lp52
F4850.4
aF2.1844
aa(lp53
F4869.9
aF2.2345
aa(lp54
F18604.0
aF5.2717
aa(lp55
F18656.0
aF5.6942
aa(lp56
F18872.0
aF5.704
aa(lp57
F19215.0
aF5.9139
aa(lp58
F23470.0
aF35.825
aa(lp59
F23940.0
aF35.91
aa(lp60
F28395.0
aF36.861
aa(lp61
F28405.0
aF38.097
aa(lp62
F35508.0
aF330.13
aa(lp63
F36125.0
aF46551.0
aa(lp64
F61403.0
aF52488.0
aa(lp65
F63734.0
aF71418.0
aassS'../../Data/wc-6d-c1.csv'
p66
(dp67
g3
(lp68
(lp69
F2906.1
aF3.3172
aa(lp70
F3022.4
aF3.3911
aa(lp71
F3070.8
aF3.3944
aa(lp72
F5400.1
aF3.714
aa(lp73
F7452.7
aF4.0717
aa(lp74
F7720.8
aF4.1567
aa(lp75
F10600.0
aF5.8378
aa(lp76
F10890.0
aF5.9394
aa(lp77
F12951.0
aF7.4564
aa(lp78
F13260.0
aF7.6618
aa(lp79
F13513.0
aF7.7715
aa(lp80
F13519.0
aF7.825
aa(lp81
F13699.0
aF7.8794
aa(lp82
F14299.0
aF7.907
aa(lp83
F18199.0
aF17.336
aa(lp84
F18617.0
aF17.469
aa(lp85
F19217.0
aF17.840999999999998
aa(lp86
F19542.0
aF18.180999999999997
aa(lp87
F19597.0
aF18.542
aa(lp88
F22829.0
aF45.261
aa(lp89
F30962.0
aF1087.6
aa(lp90
F34740.0
aF1130.6
aassS'../../Data/wc-c3-3d-c1.csv'
p91
(dp92
g3
(lp93
(lp94
F10871.0
aF247.45
aa(lp95
F11930.0
aF250.78
aassS'../../Data/llvm_input.csv'
p96
(dp97
g3
(lp98
(lp99
F243.37
aF29.0
aa(lp100
F256.25
aF28.0
aa(lp101
F266.21
aF20.0
aa(lp102
F270.4
aF19.0
aassS'../../Data/wc-c1-3d-c1.csv'
p103
(dp104
g3
(lp105
(lp106
F22124.0
aF148.88
aa(lp107
F22799.0
aF156.83
aa(lp108
F23075.0
aF158.68
aassS'../../Data/rs-6d-c3.csv'
p109
(dp110
g3
(lp111
(lp112
F37536.0
aF1.9
aa(lp113
F37562.0
aF1.9218
aa(lp114
F37902.0
aF1.9280000000000002
aa(lp115
F38129.0
aF1.9659
aa(lp116
F38269.0
aF2.0
aa(lp117
F38504.0
aF2.0226
aa(lp118
F38515.0
aF2.0567
aa(lp119
F41402.0
aF16.875
aa(lp120
F49325.0
aF17.546
aa(lp121
F76598.0
aF80.993
aa(lp122
F77268.0
aF84.14
aa(lp123
F78978.0
aF84.17200000000001
aa(lp124
F79579.0
aF86.74600000000001
aa(lp125
F80826.0
aF87.35700000000001
aa(lp126
F85162.0
aF90.695
aa(lp127
F131000.0
aF168.78
aa(lp128
F135000.0
aF170.85
aa(lp129
F136000.0
aF174.24
aa(lp130
F138000.0
aF175.02
aa(lp131
F141000.0
aF177.87
aa(lp132
F142000.0
aF191.95
aa(lp133
F145000.0
aF310.09
aa(lp134
F151000.0
aF324.74
aa(lp135
F165000.0
aF344.83
aa(lp136
F166000.0
aF370.02
aa(lp137
F169000.0
aF371.02
aa(lp138
F171000.0
aF377.17
aa(lp139
F179000.0
aF378.84
aa(lp140
F201000.0
aF961.5
aa(lp141
F203000.0
aF981.1
aa(lp142
F210000.0
aF997.2
aa(lp143
F213000.0
aF1001.3
aa(lp144
F225000.0
aF1041.0
aa(lp145
F232000.0
aF1213.6
aassS'../../Data/wc-5d-c5.csv'
p146
(dp147
g3
(lp148
(lp149
F20591.0
aF47.387
aassS'../../Data/wc+rs-3d-c4.csv'
p150
(dp151
g3
(lp152
(lp153
F5591.7
aF1.9243
aa(lp154
F20995.0
aF4.3988
aa(lp155
F22447.0
aF4.7671
aa(lp156
F25682.0
aF29.726999999999997
aa(lp157
F33784.0
aF32.883
aa(lp158
F38350.0
aF294.81
aa(lp159
F38846.0
aF299.2
aa(lp160
F72394.0
aF58477.0
aassS'../../Data/wc+wc-3d-c4.csv'
p161
(dp162
g3
(lp163
(lp164
F5151.0
aF2.0815
aa(lp165
F19528.0
aF4.9185
aa(lp166
F20066.0
aF5.0202
aa(lp167
F20089.0
aF5.2988
aa(lp168
F20233.0
aF5.7734
aa(lp169
F23675.0
aF32.286
aa(lp170
F25565.0
aF39.446999999999996
aa(lp171
F26373.0
aF40.169000000000004
aa(lp172
F26596.0
aF273.88
aa(lp173
F33549.0
aF321.53
aa(lp174
F35418.0
aF3138.8
aa(lp175
F36900.0
aF17797.0
aa(lp176
F41829.0
aF24516.0
aa(lp177
F41953.0
aF36772.0
aa(lp178
F65823.0
aF46988.0
aassS'../../Data/sort_256.csv'
p179
(dp180
g3
(lp181
(lp182
F15.39590226
aF14.71664238
aa(lp183
F15.48733762
aF14.60766939
aa(lp184
F15.56718368
aF13.49537757
aa(lp185
F15.762459900000001
aF12.82026986
aa(lp186
F16.24881706
aF12.12185067
aassS'../../Data/MONRP_50_4_5_0_110.csv'
p187
(dp188
g3
(lp189
(lp190
F94994.0
aF727.0
aF99466.0
aa(lp191
F95114.0
aF669.0
aF99507.0
aa(lp192
F95123.0
aF675.0
aF99498.0
aa(lp193
F95134.0
aF685.0
aF99493.0
aa(lp194
F95152.0
aF666.0
aF99504.0
aa(lp195
F95192.0
aF695.0
aF99486.0
aa(lp196
F95194.0
aF671.0
aF99502.0
aa(lp197
F95197.0
aF683.0
aF99487.0
aa(lp198
F95201.0
aF647.0
aF99517.0
aa(lp199
F95201.0
aF660.0
aF99504.0
aa(lp200
F95201.0
aF672.0
aF99499.0
aa(lp201
F95202.0
aF647.0
aF99509.0
aa(lp202
F95207.0
aF700.0
aF99481.0
aa(lp203
F95207.0
aF661.0
aF99503.0
aa(lp204
F95210.0
aF711.0
aF99469.0
aa(lp205
F95217.0
aF652.0
aF99500.0
aa(lp206
F95229.0
aF681.0
aF99497.0
aa(lp207
F95231.0
aF676.0
aF99493.0
aa(lp208
F95233.0
aF675.0
aF99495.0
aa(lp209
F95239.0
aF628.0
aF99520.0
aa(lp210
F95240.0
aF681.0
aF99486.0
aa(lp211
F95248.0
aF670.0
aF99497.0
aa(lp212
F95260.0
aF695.0
aF99484.0
aa(lp213
F95266.0
aF697.0
aF99477.0
aa(lp214
F95269.0
aF669.0
aF99498.0
aa(lp215
F95269.0
aF623.0
aF99522.0
aa(lp216
F95269.0
aF693.0
aF99483.0
aa(lp217
F95274.0
aF629.0
aF99518.0
aa(lp218
F95276.0
aF689.0
aF99484.0
aa(lp219
F95285.0
aF640.0
aF99515.0
aa(lp220
F95292.0
aF669.0
aF99495.0
aa(lp221
F95295.0
aF620.0
aF99531.0
aa(lp222
F95306.0
aF644.0
aF99508.0
aa(lp223
F95318.0
aF638.0
aF99511.0
aa(lp224
F95320.0
aF642.0
aF99509.0
aa(lp225
F95330.0
aF601.0
aF99534.0
aa(lp226
F95337.0
aF668.0
aF99499.0
aa(lp227
F95350.0
aF610.0
aF99528.0
aa(lp228
F95352.0
aF621.0
aF99523.0
aa(lp229
F95356.0
aF693.0
aF99480.0
aa(lp230
F95359.0
aF636.0
aF99517.0
aa(lp231
F95367.0
aF657.0
aF99499.0
aa(lp232
F95371.0
aF673.0
aF99493.0
aa(lp233
F95375.0
aF636.0
aF99512.0
aa(lp234
F95382.0
aF620.0
aF99521.0
aa(lp235
F95384.0
aF647.0
aF99506.0
aa(lp236
F95385.0
aF621.0
aF99520.0
aa(lp237
F95391.0
aF668.0
aF99494.0
aa(lp238
F95401.0
aF709.0
aF99473.0
aa(lp239
F95408.0
aF665.0
aF99495.0
aa(lp240
F95409.0
aF631.0
aF99516.0
aa(lp241
F95417.0
aF600.0
aF99539.0
aa(lp242
F95418.0
aF608.0
aF99532.0
aa(lp243
F95421.0
aF592.0
aF99550.0
aa(lp244
F95423.0
aF679.0
aF99492.0
aa(lp245
F95440.0
aF591.0
aF99545.0
aa(lp246
F95441.0
aF591.0
aF99542.0
aa(lp247
F95441.0
aF648.0
aF99504.0
aa(lp248
F95455.0
aF639.0
aF99508.0
aa(lp249
F95455.0
aF625.0
aF99514.0
aa(lp250
F95457.0
aF641.0
aF99506.0
aa(lp251
F95506.0
aF678.0
aF99489.0
aa(lp252
F95506.0
aF633.0
aF99513.0
aa(lp253
F95507.0
aF648.0
aF99502.0
aa(lp254
F95514.0
aF612.0
aF99526.0
aa(lp255
F95517.0
aF647.0
aF99505.0
aa(lp256
F95519.0
aF590.0
aF99554.0
aa(lp257
F95545.0
aF599.0
aF99538.0
aa(lp258
F95549.0
aF617.0
aF99522.0
aa(lp259
F95559.0
aF677.0
aF99491.0
aa(lp260
F95562.0
aF588.0
aF99553.0
aa(lp261
F95569.0
aF588.0
aF99552.0
aa(lp262
F95571.0
aF633.0
aF99511.0
aa(lp263
F95577.0
aF580.0
aF99559.0
aa(lp264
F95594.0
aF576.0
aF99550.0
aa(lp265
F95597.0
aF609.0
aF99531.0
aa(lp266
F95603.0
aF575.0
aF99561.0
aa(lp267
F95606.0
aF597.0
aF99541.0
aa(lp268
F95614.0
aF598.0
aF99539.0
aa(lp269
F95615.0
aF590.0
aF99549.0
aa(lp270
F95632.0
aF565.0
aF99568.0
aa(lp271
F95635.0
aF566.0
aF99559.0
aa(lp272
F95644.0
aF619.0
aF99520.0
aa(lp273
F95675.0
aF564.0
aF99582.0
aa(lp274
F95676.0
aF580.0
aF99545.0
aa(lp275
F95679.0
aF575.0
aF99555.0
aa(lp276
F95684.0
aF606.0
aF99531.0
aa(lp277
F95702.0
aF538.0
aF99586.0
aa(lp278
F95716.0
aF597.0
aF99540.0
aa(lp279
F95719.0
aF568.0
aF99557.0
aa(lp280
F95735.0
aF600.0
aF99537.0
aa(lp281
F95742.0
aF586.0
aF99540.0
aa(lp282
F95743.0
aF556.0
aF99572.0
aa(lp283
F95747.0
aF567.0
aF99553.0
aa(lp284
F95751.0
aF560.0
aF99563.0
aa(lp285
F95761.0
aF685.0
aF99485.0
aa(lp286
F95782.0
aF565.0
aF99557.0
aa(lp287
F95810.0
aF574.0
aF99548.0
aa(lp288
F95811.0
aF545.0
aF99582.0
aa(lp289
F95822.0
aF553.0
aF99573.0
aa(lp290
F95841.0
aF556.0
aF99560.0
aa(lp291
F95858.0
aF549.0
aF99581.0
aa(lp292
F95907.0
aF597.0
aF99539.0
aa(lp293
F95927.0
aF551.0
aF99563.0
aa(lp294
F95928.0
aF608.0
aF99529.0
aa(lp295
F95933.0
aF574.0
aF99547.0
aa(lp296
F95953.0
aF535.0
aF99598.0
aa(lp297
F95961.0
aF533.0
aF99593.0
aa(lp298
F95964.0
aF531.0
aF99590.0
aa(lp299
F95969.0
aF543.0
aF99582.0
aa(lp300
F96009.0
aF521.0
aF99585.0
aa(lp301
F96016.0
aF546.0
aF99577.0
aa(lp302
F96038.0
aF515.0
aF99612.0
aa(lp303
F96055.0
aF548.0
aF99569.0
aa(lp304
F96061.0
aF504.0
aF99597.0
aa(lp305
F96077.0
aF534.0
aF99584.0
aa(lp306
F96079.0
aF563.0
aF99559.0
aa(lp307
F96101.0
aF534.0
aF99582.0
aa(lp308
F96127.0
aF545.0
aF99578.0
aa(lp309
F96133.0
aF539.0
aF99580.0
aa(lp310
F96198.0
aF501.0
aF99607.0
aa(lp311
F96227.0
aF494.0
aF99630.0
aa(lp312
F96243.0
aF541.0
aF99575.0
aa(lp313
F96245.0
aF498.0
aF99613.0
aa(lp314
F96317.0
aF545.0
aF99574.0
aa(lp315
F96325.0
aF545.0
aF99563.0
aa(lp316
F96476.0
aF480.0
aF99639.0
aa(lp317
F96500.0
aF537.0
aF99581.0
aa(lp318
F96651.0
aF452.0
aF99648.0
aass.