(dp0
S'../../Data/noc_CM_log.csv'
p1
(dp2
S'pf'
p3
(lp4
(lp5
F9.672985692000001
aF5.123159887
aa(lp6
F9.672985692000001
aF5.123159887
aa(lp7
F9.726829514
aF5.123157473
aa(lp8
F9.726829514
aF5.123157473
aa(lp9
F9.726829514
aF5.123157473
aa(lp10
F9.740247934
aF5.121424796
aa(lp11
F9.740247934
aF5.121424796
aa(lp12
F9.740247934
aF5.121424796
aa(lp13
F9.740247934
aF5.121424796
aa(lp14
F9.766851864
aF5.117965171
aa(lp15
F9.766851864
aF5.117965171
aa(lp16
F9.766851864
aF5.117965171
aa(lp17
F9.766851864
aF5.117965171
aa(lp18
F9.824529208
aF5.104190483
aa(lp19
F9.824529208
aF5.104190483
aa(lp20
F9.824529208
aF5.104190483
aa(lp21
F9.824529208
aF5.104190483
aa(lp22
F9.858304322
aF5.0661620869999995
aa(lp23
F9.858304322
aF5.0661620869999995
aa(lp24
F9.858304322
aF5.0661620869999995
aa(lp25
F9.858304322
aF5.0661620869999995
aa(lp26
F9.965784285
aF5.066154451
aa(lp27
F9.965784285
aF5.066154451
aa(lp28
F9.965784285
aF5.066154451
aa(lp29
F9.965784285
aF5.066154451
aassS'../../Data/wc-c1-3d-c1.csv'
p30
(dp31
g3
(lp32
(lp33
F22124.0
aF148.88
aa(lp34
F22799.0
aF156.83
aa(lp35
F23075.0
aF158.68
aassS'../../Data/rs-6d-c3.csv'
p36
(dp37
g3
(lp38
(lp39
F37536.0
aF1.9
aa(lp40
F37562.0
aF1.9218
aa(lp41
F37902.0
aF1.9280000000000002
aa(lp42
F38129.0
aF1.9659
aa(lp43
F38269.0
aF2.0
aa(lp44
F38504.0
aF2.0226
aa(lp45
F38515.0
aF2.0567
aa(lp46
F41402.0
aF16.875
aa(lp47
F49325.0
aF17.546
aa(lp48
F76598.0
aF80.993
aa(lp49
F77268.0
aF84.14
aa(lp50
F78978.0
aF84.17200000000001
aa(lp51
F79579.0
aF86.74600000000001
aa(lp52
F80826.0
aF87.35700000000001
aa(lp53
F85162.0
aF90.695
aa(lp54
F131000.0
aF168.78
aa(lp55
F135000.0
aF170.85
aa(lp56
F136000.0
aF174.24
aa(lp57
F138000.0
aF175.02
aa(lp58
F141000.0
aF177.87
aa(lp59
F142000.0
aF191.95
aa(lp60
F145000.0
aF310.09
aa(lp61
F151000.0
aF324.74
aa(lp62
F165000.0
aF344.83
aa(lp63
F166000.0
aF370.02
aa(lp64
F169000.0
aF371.02
aa(lp65
F171000.0
aF377.17
aa(lp66
F179000.0
aF378.84
aa(lp67
F201000.0
aF961.5
aa(lp68
F203000.0
aF981.1
aa(lp69
F210000.0
aF997.2
aa(lp70
F213000.0
aF1001.3
aa(lp71
F225000.0
aF1041.0
aa(lp72
F232000.0
aF1213.6
aassS'../../Data/xomo_flight.csv'
p73
(dp74
g3
(lp75
(lp76
F5.07704875571
aF8.26568114472
aF17.3356645415
aF2.6809651474500003
aa(lp77
F12.2560409275
aF6.64870170642
aF10.6753616341
aF3.4852546916900002
aa(lp78
F12.379935917100001
aF5.79962055412
aF306.038456886
aF4.289544235919999
aa(lp79
F12.8443515786
aF11.280765606500001
aF17.4031728192
aF0.0
aa(lp80
F12.9678211916
aF6.6366395025400005
aF59.3990378768
aF0.0
aa(lp81
F13.582469211900001
aF8.19453950294
aF36.6043821519
aF0.536193029491
aa(lp82
F14.907745013
aF5.8507096803
aF51.7159769075
aF6.16621983914
aa(lp83
F15.5036583892
aF7.12184370259
aF33.2266501248
aF1.60857908847
aa(lp84
F16.968730029
aF8.798161506669999
aF23.997411776
aF1.87667560322
aa(lp85
F21.6000530271
aF7.73148448472
aF29.177984971
aF2.6809651474500003
aassS'../../Data/MONRP_50_4_5_0_90.csv'
p86
(dp87
g3
(lp88
(lp89
F95394.0
aF599.0
aF99341.0
aa(lp90
F95440.0
aF563.0
aF99372.0
aa(lp91
F95472.0
aF598.0
aF99358.0
aa(lp92
F95496.0
aF557.0
aF99387.0
aa(lp93
F95508.0
aF574.0
aF99370.0
aa(lp94
F95509.0
aF571.0
aF99359.0
aa(lp95
F95535.0
aF591.0
aF99353.0
aa(lp96
F95548.0
aF588.0
aF99356.0
aa(lp97
F95575.0
aF550.0
aF99410.0
aa(lp98
F95592.0
aF524.0
aF99412.0
aa(lp99
F95604.0
aF554.0
aF99388.0
aa(lp100
F95616.0
aF543.0
aF99403.0
aa(lp101
F95622.0
aF550.0
aF99397.0
aa(lp102
F95627.0
aF548.0
aF99397.0
aa(lp103
F95629.0
aF562.0
aF99384.0
aa(lp104
F95632.0
aF562.0
aF99371.0
aa(lp105
F95632.0
aF543.0
aF99398.0
aa(lp106
F95634.0
aF537.0
aF99409.0
aa(lp107
F95637.0
aF545.0
aF99393.0
aa(lp108
F95640.0
aF584.0
aF99358.0
aa(lp109
F95644.0
aF544.0
aF99397.0
aa(lp110
F95654.0
aF531.0
aF99406.0
aa(lp111
F95669.0
aF568.0
aF99365.0
aa(lp112
F95688.0
aF542.0
aF99398.0
aa(lp113
F95688.0
aF558.0
aF99386.0
aa(lp114
F95691.0
aF542.0
aF99386.0
aa(lp115
F95692.0
aF558.0
aF99385.0
aa(lp116
F95703.0
aF520.0
aF99421.0
aa(lp117
F95708.0
aF534.0
aF99405.0
aa(lp118
F95708.0
aF511.0
aF99437.0
aa(lp119
F95714.0
aF540.0
aF99400.0
aa(lp120
F95715.0
aF560.0
aF99378.0
aa(lp121
F95722.0
aF553.0
aF99381.0
aa(lp122
F95728.0
aF539.0
aF99401.0
aa(lp123
F95743.0
aF510.0
aF99445.0
aa(lp124
F95746.0
aF531.0
aF99405.0
aa(lp125
F95748.0
aF514.0
aF99430.0
aa(lp126
F95750.0
aF510.0
aF99439.0
aa(lp127
F95751.0
aF526.0
aF99410.0
aa(lp128
F95758.0
aF537.0
aF99402.0
aa(lp129
F95789.0
aF522.0
aF99418.0
aa(lp130
F95792.0
aF540.0
aF99399.0
aa(lp131
F95802.0
aF510.0
aF99438.0
aa(lp132
F95809.0
aF523.0
aF99414.0
aa(lp133
F95813.0
aF517.0
aF99428.0
aa(lp134
F95815.0
aF515.0
aF99418.0
aa(lp135
F95820.0
aF506.0
aF99432.0
aa(lp136
F95837.0
aF534.0
aF99404.0
aa(lp137
F95841.0
aF528.0
aF99402.0
aa(lp138
F95841.0
aF518.0
aF99410.0
aa(lp139
F95844.0
aF523.0
aF99403.0
aa(lp140
F95848.0
aF502.0
aF99457.0
aa(lp141
F95864.0
aF491.0
aF99439.0
aa(lp142
F95872.0
aF486.0
aF99472.0
aa(lp143
F95883.0
aF538.0
aF99400.0
aa(lp144
F95893.0
aF488.0
aF99448.0
aa(lp145
F95905.0
aF508.0
aF99430.0
aa(lp146
F95909.0
aF513.0
aF99428.0
aa(lp147
F95917.0
aF490.0
aF99446.0
aa(lp148
F95919.0
aF505.0
aF99436.0
aa(lp149
F95921.0
aF511.0
aF99428.0
aa(lp150
F95934.0
aF481.0
aF99471.0
aa(lp151
F95936.0
aF511.0
aF99419.0
aa(lp152
F95936.0
aF489.0
aF99434.0
aa(lp153
F95939.0
aF483.0
aF99453.0
aa(lp154
F95939.0
aF480.0
aF99473.0
aa(lp155
F95967.0
aF506.0
aF99429.0
aa(lp156
F95971.0
aF503.0
aF99432.0
aa(lp157
F95982.0
aF473.0
aF99470.0
aa(lp158
F95983.0
aF480.0
aF99454.0
aa(lp159
F95995.0
aF510.0
aF99428.0
aa(lp160
F95999.0
aF515.0
aF99415.0
aa(lp161
F96028.0
aF508.0
aF99428.0
aa(lp162
F96051.0
aF462.0
aF99497.0
aa(lp163
F96054.0
aF472.0
aF99476.0
aa(lp164
F96059.0
aF502.0
aF99425.0
aa(lp165
F96096.0
aF463.0
aF99496.0
aa(lp166
F96097.0
aF474.0
aF99462.0
aa(lp167
F96115.0
aF483.0
aF99452.0
aa(lp168
F96136.0
aF462.0
aF99473.0
aa(lp169
F96152.0
aF479.0
aF99456.0
aa(lp170
F96158.0
aF470.0
aF99462.0
aa(lp171
F96166.0
aF487.0
aF99449.0
aa(lp172
F96198.0
aF444.0
aF99495.0
aa(lp173
F96281.0
aF443.0
aF99532.0
aa(lp174
F96292.0
aF432.0
aF99527.0
aa(lp175
F96304.0
aF448.0
aF99493.0
aa(lp176
F96312.0
aF458.0
aF99487.0
aa(lp177
F96322.0
aF451.0
aF99487.0
aa(lp178
F96347.0
aF449.0
aF99486.0
aa(lp179
F96361.0
aF481.0
aF99448.0
aa(lp180
F96445.0
aF419.0
aF99543.0
aa(lp181
F96450.0
aF414.0
aF99539.0
aa(lp182
F96492.0
aF429.0
aF99536.0
aa(lp183
F96496.0
aF461.0
aF99470.0
aa(lp184
F96541.0
aF442.0
aF99517.0
aa(lp185
F96706.0
aF441.0
aF99518.0
aa(lp186
F96901.0
aF435.0
aF99523.0
aa(lp187
F96908.0
aF400.0
aF99574.0
aassS'../../Data/sort_256.csv'
p188
(dp189
g3
(lp190
(lp191
F15.39590226
aF14.71664238
aa(lp192
F15.48733762
aF14.60766939
aa(lp193
F15.56718368
aF13.49537757
aa(lp194
F15.762459900000001
aF12.82026986
aa(lp195
F16.24881706
aF12.12185067
aassS'../../Data/xomo_all.csv'
p196
(dp197
g3
(lp198
(lp199
F5.8900921014900005
aF8.79740187386
aF14.9038336217
aF0.0
aa(lp200
F7.60260921773
aF5.70862368202
aF27.823257363499998
aF3.21715817694
aa(lp201
F9.11034618634
aF7.541527317839999
aF35.0961999584
aF1.34048257373
aa(lp202
F16.3046320178
aF7.25552740046
aF165.058043529
aF2.9490616622
aa(lp203
F16.7867298776
aF7.183802965439999
aF57.3493125595
aF1.87667560322
aa(lp204
F17.6211924331
aF7.197929561989999
aF126.84055519299999
aF1.0723860589799998
aa(lp205
F27.694628211399998
aF7.04143572048
aF47.075409641099995
aF1.60857908847
aa(lp206
F35.1865240218
aF7.82099216756
aF28.0743347981
aF1.87667560322
aa(lp207
F49.6308981847
aF8.561133091819999
aF17.452352515799998
aF2.1447721179599997
aassS'../../Data/wc-3d-c4.csv'
p208
(dp209
g3
(lp210
(lp211
F7990.6
aF1.2994
aa(lp212
F34466.0
aF2.9167
aa(lp213
F57293.0
aF15.94
aa(lp214
F57972.0
aF16.279
aa(lp215
F63510.0
aF116.06
aa(lp216
F66556.0
aF117.56
aa(lp217
F69097.0
aF127.68
aa(lp218
F70644.0
aF142.51
aa(lp219
F72028.0
aF364.41
aa(lp220
F72768.0
aF390.52
aa(lp221
F76190.0
aF789.55
aa(lp222
F79489.0
aF1165.2
aa(lp223
F81320.0
aF10245.0
aa(lp224
F83057.0
aF10676.0
aa(lp225
F87119.0
aF26320.0
aa(lp226
F95094.0
aF36603.0
aassS'../../Data/MONRP_50_4_5_4_90.csv'
p227
(dp228
g3
(lp229
(lp230
F94759.0
aF627.0
aF99394.0
aa(lp231
F94783.0
aF640.0
aF99388.0
aa(lp232
F94790.0
aF633.0
aF99385.0
aa(lp233
F94808.0
aF635.0
aF99383.0
aa(lp234
F94819.0
aF631.0
aF99386.0
aa(lp235
F94859.0
aF626.0
aF99393.0
aa(lp236
F94866.0
aF616.0
aF99405.0
aa(lp237
F94870.0
aF613.0
aF99392.0
aa(lp238
F94890.0
aF603.0
aF99410.0
aa(lp239
F94900.0
aF625.0
aF99390.0
aa(lp240
F94902.0
aF610.0
aF99405.0
aa(lp241
F94906.0
aF627.0
aF99388.0
aa(lp242
F94919.0
aF608.0
aF99398.0
aa(lp243
F94919.0
aF601.0
aF99411.0
aa(lp244
F94919.0
aF599.0
aF99420.0
aa(lp245
F94934.0
aF599.0
aF99413.0
aa(lp246
F94939.0
aF584.0
aF99427.0
aa(lp247
F94943.0
aF597.0
aF99415.0
aa(lp248
F94946.0
aF590.0
aF99425.0
aa(lp249
F94948.0
aF599.0
aF99408.0
aa(lp250
F94958.0
aF602.0
aF99403.0
aa(lp251
F94973.0
aF584.0
aF99422.0
aa(lp252
F94975.0
aF615.0
aF99388.0
aa(lp253
F95004.0
aF582.0
aF99427.0
aa(lp254
F95005.0
aF564.0
aF99441.0
aa(lp255
F95013.0
aF596.0
aF99417.0
aa(lp256
F95015.0
aF594.0
aF99417.0
aa(lp257
F95036.0
aF575.0
aF99436.0
aa(lp258
F95037.0
aF561.0
aF99448.0
aa(lp259
F95045.0
aF580.0
aF99424.0
aa(lp260
F95047.0
aF586.0
aF99420.0
aa(lp261
F95050.0
aF569.0
aF99440.0
aa(lp262
F95065.0
aF591.0
aF99415.0
aa(lp263
F95070.0
aF577.0
aF99430.0
aa(lp264
F95071.0
aF553.0
aF99449.0
aa(lp265
F95073.0
aF574.0
aF99434.0
aa(lp266
F95075.0
aF573.0
aF99432.0
aa(lp267
F95079.0
aF599.0
aF99407.0
aa(lp268
F95081.0
aF572.0
aF99437.0
aa(lp269
F95129.0
aF570.0
aF99434.0
aa(lp270
F95131.0
aF575.0
aF99428.0
aa(lp271
F95139.0
aF598.0
aF99411.0
aa(lp272
F95139.0
aF539.0
aF99465.0
aa(lp273
F95140.0
aF592.0
aF99412.0
aa(lp274
F95141.0
aF561.0
aF99443.0
aa(lp275
F95141.0
aF583.0
aF99419.0
aa(lp276
F95146.0
aF564.0
aF99433.0
aa(lp277
F95148.0
aF591.0
aF99413.0
aa(lp278
F95159.0
aF579.0
aF99427.0
aa(lp279
F95163.0
aF551.0
aF99456.0
aa(lp280
F95171.0
aF542.0
aF99455.0
aa(lp281
F95175.0
aF579.0
aF99426.0
aa(lp282
F95176.0
aF588.0
aF99414.0
aa(lp283
F95207.0
aF589.0
aF99412.0
aa(lp284
F95210.0
aF559.0
aF99447.0
aa(lp285
F95238.0
aF529.0
aF99482.0
aa(lp286
F95242.0
aF551.0
aF99447.0
aa(lp287
F95252.0
aF569.0
aF99431.0
aa(lp288
F95262.0
aF578.0
aF99427.0
aa(lp289
F95269.0
aF538.0
aF99469.0
aa(lp290
F95272.0
aF536.0
aF99476.0
aa(lp291
F95282.0
aF537.0
aF99475.0
aa(lp292
F95286.0
aF538.0
aF99463.0
aa(lp293
F95287.0
aF559.0
aF99437.0
aa(lp294
F95292.0
aF571.0
aF99430.0
aa(lp295
F95303.0
aF535.0
aF99471.0
aa(lp296
F95305.0
aF525.0
aF99483.0
aa(lp297
F95306.0
aF526.0
aF99480.0
aa(lp298
F95309.0
aF531.0
aF99478.0
aa(lp299
F95312.0
aF515.0
aF99496.0
aa(lp300
F95318.0
aF528.0
aF99478.0
aa(lp301
F95334.0
aF528.0
aF99477.0
aa(lp302
F95345.0
aF538.0
aF99459.0
aa(lp303
F95352.0
aF520.0
aF99488.0
aa(lp304
F95356.0
aF512.0
aF99501.0
aa(lp305
F95361.0
aF523.0
aF99477.0
aa(lp306
F95363.0
aF534.0
aF99476.0
aa(lp307
F95368.0
aF550.0
aF99444.0
aa(lp308
F95371.0
aF536.0
aF99469.0
aa(lp309
F95376.0
aF536.0
aF99464.0
aa(lp310
F95377.0
aF513.0
aF99492.0
aa(lp311
F95399.0
aF521.0
aF99479.0
aa(lp312
F95400.0
aF527.0
aF99475.0
aa(lp313
F95405.0
aF511.0
aF99492.0
aa(lp314
F95409.0
aF532.0
aF99472.0
aa(lp315
F95411.0
aF531.0
aF99468.0
aa(lp316
F95439.0
aF513.0
aF99489.0
aa(lp317
F95441.0
aF507.0
aF99503.0
aa(lp318
F95444.0
aF479.0
aF99511.0
aa(lp319
F95471.0
aF529.0
aF99473.0
aa(lp320
F95476.0
aF510.0
aF99496.0
aa(lp321
F95481.0
aF509.0
aF99499.0
aa(lp322
F95492.0
aF506.0
aF99496.0
aa(lp323
F95494.0
aF502.0
aF99502.0
aa(lp324
F95502.0
aF533.0
aF99463.0
aa(lp325
F95503.0
aF514.0
aF99484.0
aa(lp326
F95517.0
aF496.0
aF99508.0
aa(lp327
F95521.0
aF523.0
aF99476.0
aa(lp328
F95522.0
aF504.0
aF99501.0
aa(lp329
F95547.0
aF512.0
aF99484.0
aa(lp330
F95569.0
aF510.0
aF99483.0
aa(lp331
F95570.0
aF516.0
aF99482.0
aa(lp332
F95580.0
aF532.0
aF99467.0
aa(lp333
F95581.0
aF519.0
aF99481.0
aa(lp334
F95585.0
aF508.0
aF99494.0
aa(lp335
F95589.0
aF499.0
aF99504.0
aa(lp336
F95628.0
aF503.0
aF99497.0
aa(lp337
F95688.0
aF526.0
aF99462.0
aa(lp338
F95702.0
aF500.0
aF99501.0
aa(lp339
F95719.0
aF490.0
aF99508.0
aa(lp340
F95747.0
aF477.0
aF99528.0
aa(lp341
F95772.0
aF474.0
aF99550.0
aa(lp342
F95829.0
aF470.0
aF99549.0
aa(lp343
F95839.0
aF475.0
aF99541.0
aa(lp344
F95861.0
aF492.0
aF99506.0
aa(lp345
F95901.0
aF467.0
aF99557.0
aa(lp346
F95904.0
aF466.0
aF99553.0
aa(lp347
F95913.0
aF467.0
aF99544.0
aa(lp348
F95953.0
aF463.0
aF99558.0
aa(lp349
F95985.0
aF475.0
aF99536.0
aa(lp350
F95989.0
aF454.0
aF99567.0
aa(lp351
F96008.0
aF473.0
aF99533.0
aa(lp352
F96019.0
aF467.0
aF99525.0
aa(lp353
F96066.0
aF450.0
aF99562.0
aa(lp354
F96096.0
aF451.0
aF99546.0
aa(lp355
F96352.0
aF447.0
aF99587.0
aa(lp356
F96368.0
aF449.0
aF99576.0
aa(lp357
F96396.0
aF435.0
aF99589.0
aa(lp358
F96441.0
aF417.0
aF99589.0
aa(lp359
F96679.0
aF422.0
aF99586.0
aassS'../../Data/POM3A.csv'
p360
(dp361
g3
(lp362
(lp363
F50.41390895399999
aF0.49707977428000005
aF0.0
aa(lp364
F61.3126587933
aF0.216587390088
aF0.5
aa(lp365
F64.8616672915
aF0.235026851493
aF0.0
aa(lp366
F69.8818938893
aF0.186790024937
aF0.416666666667
aa(lp367
F94.2470152073
aF0.0949515293668
aF0.45454545454499995
aa(lp368
F98.9517589828
aF0.20912915656199998
aF0.2
aa(lp369
F99.4592347071
aF0.223499814932
aF0.0
aa(lp370
F102.844175275
aF0.13721042124500002
aF0.3
aa(lp371
F103.728718326
aF0.205932975921
aF0.0
aa(lp372
F105.23878129299999
aF0.202760628092
aF0.0
aa(lp373
F115.31120346899999
aF0.195127215696
aF0.277777777778
aa(lp374
F117.204687548
aF0.120785451792
aF0.125
aa(lp375
F117.86642763299999
aF0.0467382870871
aF0.0
aa(lp376
F122.867697943
aF0.0227817249537
aF0.0
aa(lp377
F123.336551066
aF0.0
aF0.0
aa(lp378
F616.895678126
aF-2.22044604925e-16
aF0.25
aassS'../../Data/MONRP_50_4_5_0_110.csv'
p379
(dp380
g3
(lp381
(lp382
F94994.0
aF727.0
aF99466.0
aa(lp383
F95114.0
aF669.0
aF99507.0
aa(lp384
F95123.0
aF675.0
aF99498.0
aa(lp385
F95134.0
aF685.0
aF99493.0
aa(lp386
F95152.0
aF666.0
aF99504.0
aa(lp387
F95192.0
aF695.0
aF99486.0
aa(lp388
F95194.0
aF671.0
aF99502.0
aa(lp389
F95197.0
aF683.0
aF99487.0
aa(lp390
F95201.0
aF647.0
aF99517.0
aa(lp391
F95201.0
aF660.0
aF99504.0
aa(lp392
F95201.0
aF672.0
aF99499.0
aa(lp393
F95202.0
aF647.0
aF99509.0
aa(lp394
F95207.0
aF700.0
aF99481.0
aa(lp395
F95207.0
aF661.0
aF99503.0
aa(lp396
F95210.0
aF711.0
aF99469.0
aa(lp397
F95217.0
aF652.0
aF99500.0
aa(lp398
F95229.0
aF681.0
aF99497.0
aa(lp399
F95231.0
aF676.0
aF99493.0
aa(lp400
F95233.0
aF675.0
aF99495.0
aa(lp401
F95239.0
aF628.0
aF99520.0
aa(lp402
F95240.0
aF681.0
aF99486.0
aa(lp403
F95248.0
aF670.0
aF99497.0
aa(lp404
F95260.0
aF695.0
aF99484.0
aa(lp405
F95266.0
aF697.0
aF99477.0
aa(lp406
F95269.0
aF669.0
aF99498.0
aa(lp407
F95269.0
aF623.0
aF99522.0
aa(lp408
F95269.0
aF693.0
aF99483.0
aa(lp409
F95274.0
aF629.0
aF99518.0
aa(lp410
F95276.0
aF689.0
aF99484.0
aa(lp411
F95285.0
aF640.0
aF99515.0
aa(lp412
F95292.0
aF669.0
aF99495.0
aa(lp413
F95295.0
aF620.0
aF99531.0
aa(lp414
F95306.0
aF644.0
aF99508.0
aa(lp415
F95318.0
aF638.0
aF99511.0
aa(lp416
F95320.0
aF642.0
aF99509.0
aa(lp417
F95330.0
aF601.0
aF99534.0
aa(lp418
F95337.0
aF668.0
aF99499.0
aa(lp419
F95350.0
aF610.0
aF99528.0
aa(lp420
F95352.0
aF621.0
aF99523.0
aa(lp421
F95356.0
aF693.0
aF99480.0
aa(lp422
F95359.0
aF636.0
aF99517.0
aa(lp423
F95367.0
aF657.0
aF99499.0
aa(lp424
F95371.0
aF673.0
aF99493.0
aa(lp425
F95375.0
aF636.0
aF99512.0
aa(lp426
F95382.0
aF620.0
aF99521.0
aa(lp427
F95384.0
aF647.0
aF99506.0
aa(lp428
F95385.0
aF621.0
aF99520.0
aa(lp429
F95391.0
aF668.0
aF99494.0
aa(lp430
F95401.0
aF709.0
aF99473.0
aa(lp431
F95408.0
aF665.0
aF99495.0
aa(lp432
F95409.0
aF631.0
aF99516.0
aa(lp433
F95417.0
aF600.0
aF99539.0
aa(lp434
F95418.0
aF608.0
aF99532.0
aa(lp435
F95421.0
aF592.0
aF99550.0
aa(lp436
F95423.0
aF679.0
aF99492.0
aa(lp437
F95440.0
aF591.0
aF99545.0
aa(lp438
F95441.0
aF591.0
aF99542.0
aa(lp439
F95441.0
aF648.0
aF99504.0
aa(lp440
F95455.0
aF639.0
aF99508.0
aa(lp441
F95455.0
aF625.0
aF99514.0
aa(lp442
F95457.0
aF641.0
aF99506.0
aa(lp443
F95506.0
aF678.0
aF99489.0
aa(lp444
F95506.0
aF633.0
aF99513.0
aa(lp445
F95507.0
aF648.0
aF99502.0
aa(lp446
F95514.0
aF612.0
aF99526.0
aa(lp447
F95517.0
aF647.0
aF99505.0
aa(lp448
F95519.0
aF590.0
aF99554.0
aa(lp449
F95545.0
aF599.0
aF99538.0
aa(lp450
F95549.0
aF617.0
aF99522.0
aa(lp451
F95559.0
aF677.0
aF99491.0
aa(lp452
F95562.0
aF588.0
aF99553.0
aa(lp453
F95569.0
aF588.0
aF99552.0
aa(lp454
F95571.0
aF633.0
aF99511.0
aa(lp455
F95577.0
aF580.0
aF99559.0
aa(lp456
F95594.0
aF576.0
aF99550.0
aa(lp457
F95597.0
aF609.0
aF99531.0
aa(lp458
F95603.0
aF575.0
aF99561.0
aa(lp459
F95606.0
aF597.0
aF99541.0
aa(lp460
F95614.0
aF598.0
aF99539.0
aa(lp461
F95615.0
aF590.0
aF99549.0
aa(lp462
F95632.0
aF565.0
aF99568.0
aa(lp463
F95635.0
aF566.0
aF99559.0
aa(lp464
F95644.0
aF619.0
aF99520.0
aa(lp465
F95675.0
aF564.0
aF99582.0
aa(lp466
F95676.0
aF580.0
aF99545.0
aa(lp467
F95679.0
aF575.0
aF99555.0
aa(lp468
F95684.0
aF606.0
aF99531.0
aa(lp469
F95702.0
aF538.0
aF99586.0
aa(lp470
F95716.0
aF597.0
aF99540.0
aa(lp471
F95719.0
aF568.0
aF99557.0
aa(lp472
F95735.0
aF600.0
aF99537.0
aa(lp473
F95742.0
aF586.0
aF99540.0
aa(lp474
F95743.0
aF556.0
aF99572.0
aa(lp475
F95747.0
aF567.0
aF99553.0
aa(lp476
F95751.0
aF560.0
aF99563.0
aa(lp477
F95761.0
aF685.0
aF99485.0
aa(lp478
F95782.0
aF565.0
aF99557.0
aa(lp479
F95810.0
aF574.0
aF99548.0
aa(lp480
F95811.0
aF545.0
aF99582.0
aa(lp481
F95822.0
aF553.0
aF99573.0
aa(lp482
F95841.0
aF556.0
aF99560.0
aa(lp483
F95858.0
aF549.0
aF99581.0
aa(lp484
F95907.0
aF597.0
aF99539.0
aa(lp485
F95927.0
aF551.0
aF99563.0
aa(lp486
F95928.0
aF608.0
aF99529.0
aa(lp487
F95933.0
aF574.0
aF99547.0
aa(lp488
F95953.0
aF535.0
aF99598.0
aa(lp489
F95961.0
aF533.0
aF99593.0
aa(lp490
F95964.0
aF531.0
aF99590.0
aa(lp491
F95969.0
aF543.0
aF99582.0
aa(lp492
F96009.0
aF521.0
aF99585.0
aa(lp493
F96016.0
aF546.0
aF99577.0
aa(lp494
F96038.0
aF515.0
aF99612.0
aa(lp495
F96055.0
aF548.0
aF99569.0
aa(lp496
F96061.0
aF504.0
aF99597.0
aa(lp497
F96077.0
aF534.0
aF99584.0
aa(lp498
F96079.0
aF563.0
aF99559.0
aa(lp499
F96101.0
aF534.0
aF99582.0
aa(lp500
F96127.0
aF545.0
aF99578.0
aa(lp501
F96133.0
aF539.0
aF99580.0
aa(lp502
F96198.0
aF501.0
aF99607.0
aa(lp503
F96227.0
aF494.0
aF99630.0
aa(lp504
F96243.0
aF541.0
aF99575.0
aa(lp505
F96245.0
aF498.0
aF99613.0
aa(lp506
F96317.0
aF545.0
aF99574.0
aa(lp507
F96325.0
aF545.0
aF99563.0
aa(lp508
F96476.0
aF480.0
aF99639.0
aa(lp509
F96500.0
aF537.0
aF99581.0
aa(lp510
F96651.0
aF452.0
aF99648.0
aassS'../../Data/POM3D.csv'
p511
(dp512
g3
(lp513
(lp514
F0.0
aF1.0
aF0.0
aa(lp515
F0.0
aF1.0
aF0.0
aa(lp516
F0.0
aF1.0
aF0.0
aa(lp517
F0.0
aF1.0
aF0.0
aa(lp518
F0.0
aF1.0
aF0.0
aa(lp519
F0.0
aF1.0
aF0.0
aa(lp520
F0.0
aF1.0
aF0.0
aa(lp521
F0.0
aF1.0
aF0.0
aa(lp522
F16.1737424191
aF0.0
aF0.0
aa(lp523
F245.082565236
aF-2.22044604925e-16
aF0.0
aassS'../../Data/wc+sol-3d-c4.csv'
p524
(dp525
g3
(lp526
(lp527
F4850.4
aF2.1844
aa(lp528
F4869.9
aF2.2345
aa(lp529
F18604.0
aF5.2717
aa(lp530
F18656.0
aF5.6942
aa(lp531
F18872.0
aF5.704
aa(lp532
F19215.0
aF5.9139
aa(lp533
F23470.0
aF35.825
aa(lp534
F23940.0
aF35.91
aa(lp535
F28395.0
aF36.861
aa(lp536
F28405.0
aF38.097
aa(lp537
F35508.0
aF330.13
aa(lp538
F36125.0
aF46551.0
aa(lp539
F61403.0
aF52488.0
aa(lp540
F63734.0
aF71418.0
aassS'../../Data/wc-6d-c1.csv'
p541
(dp542
g3
(lp543
(lp544
F2906.1
aF3.3172
aa(lp545
F3022.4
aF3.3911
aa(lp546
F3070.8
aF3.3944
aa(lp547
F5400.1
aF3.714
aa(lp548
F7452.7
aF4.0717
aa(lp549
F7720.8
aF4.1567
aa(lp550
F10600.0
aF5.8378
aa(lp551
F10890.0
aF5.9394
aa(lp552
F12951.0
aF7.4564
aa(lp553
F13260.0
aF7.6618
aa(lp554
F13513.0
aF7.7715
aa(lp555
F13519.0
aF7.825
aa(lp556
F13699.0
aF7.8794
aa(lp557
F14299.0
aF7.907
aa(lp558
F18199.0
aF17.336
aa(lp559
F18617.0
aF17.469
aa(lp560
F19217.0
aF17.840999999999998
aa(lp561
F19542.0
aF18.180999999999997
aa(lp562
F19597.0
aF18.542
aa(lp563
F22829.0
aF45.261
aa(lp564
F30962.0
aF1087.6
aa(lp565
F34740.0
aF1130.6
aassS'../../Data/wc-c3-3d-c1.csv'
p566
(dp567
g3
(lp568
(lp569
F10871.0
aF247.45
aa(lp570
F11930.0
aF250.78
aassS'../../Data/POM3B.csv'
p571
(dp572
g3
(lp573
(lp574
F0.0
aF1.0
aF0.0
aa(lp575
F447.28797398300003
aF0.625778734642
aF0.0
aa(lp576
F622.6090222390001
aF0.536928149842
aF0.0
aa(lp577
F770.4059874239999
aF0.23748003777499999
aF0.0
aa(lp578
F791.3303458710001
aF0.0
aF0.0
aassS'../../Data/wc+rs-3d-c4.csv'
p579
(dp580
g3
(lp581
(lp582
F5591.7
aF1.9243
aa(lp583
F20995.0
aF4.3988
aa(lp584
F22447.0
aF4.7671
aa(lp585
F25682.0
aF29.726999999999997
aa(lp586
F33784.0
aF32.883
aa(lp587
F38350.0
aF294.81
aa(lp588
F38846.0
aF299.2
aa(lp589
F72394.0
aF58477.0
aassS'../../Data/MONRP_50_4_5_4_110.csv'
p590
(dp591
g3
(lp592
(lp593
F92403.0
aF662.0
aF99385.0
aa(lp594
F92408.0
aF648.0
aF99399.0
aa(lp595
F92460.0
aF648.0
aF99395.0
aa(lp596
F92608.0
aF618.0
aF99423.0
aa(lp597
F92625.0
aF660.0
aF99393.0
aa(lp598
F92635.0
aF625.0
aF99421.0
aa(lp599
F92638.0
aF684.0
aF99384.0
aa(lp600
F92639.0
aF632.0
aF99416.0
aa(lp601
F92643.0
aF696.0
aF99370.0
aa(lp602
F92673.0
aF679.0
aF99379.0
aa(lp603
F92685.0
aF646.0
aF99406.0
aa(lp604
F92693.0
aF647.0
aF99394.0
aa(lp605
F92696.0
aF631.0
aF99408.0
aa(lp606
F92720.0
aF600.0
aF99431.0
aa(lp607
F92729.0
aF644.0
aF99406.0
aa(lp608
F92735.0
aF629.0
aF99409.0
aa(lp609
F92737.0
aF616.0
aF99424.0
aa(lp610
F92747.0
aF678.0
aF99381.0
aa(lp611
F92754.0
aF639.0
aF99407.0
aa(lp612
F92762.0
aF617.0
aF99419.0
aa(lp613
F92765.0
aF626.0
aF99417.0
aa(lp614
F92778.0
aF613.0
aF99429.0
aa(lp615
F92797.0
aF645.0
aF99402.0
aa(lp616
F92814.0
aF643.0
aF99406.0
aa(lp617
F92818.0
aF634.0
aF99407.0
aa(lp618
F92819.0
aF614.0
aF99425.0
aa(lp619
F92832.0
aF659.0
aF99390.0
aa(lp620
F92835.0
aF602.0
aF99430.0
aa(lp621
F92837.0
aF627.0
aF99414.0
aa(lp622
F92860.0
aF606.0
aF99426.0
aa(lp623
F92863.0
aF636.0
aF99405.0
aa(lp624
F92878.0
aF616.0
aF99421.0
aa(lp625
F92880.0
aF599.0
aF99435.0
aa(lp626
F92882.0
aF585.0
aF99437.0
aa(lp627
F92894.0
aF642.0
aF99404.0
aa(lp628
F92905.0
aF622.0
aF99415.0
aa(lp629
F92918.0
aF617.0
aF99416.0
aa(lp630
F92926.0
aF576.0
aF99466.0
aa(lp631
F92950.0
aF582.0
aF99451.0
aa(lp632
F92952.0
aF567.0
aF99453.0
aa(lp633
F92956.0
aF615.0
aF99417.0
aa(lp634
F92993.0
aF626.0
aF99414.0
aa(lp635
F93003.0
aF640.0
aF99402.0
aa(lp636
F93006.0
aF643.0
aF99401.0
aa(lp637
F93027.0
aF583.0
aF99435.0
aa(lp638
F93034.0
aF628.0
aF99412.0
aa(lp639
F93040.0
aF578.0
aF99448.0
aa(lp640
F93058.0
aF612.0
aF99425.0
aa(lp641
F93092.0
aF579.0
aF99443.0
aa(lp642
F93118.0
aF627.0
aF99413.0
aa(lp643
F93129.0
aF574.0
aF99447.0
aa(lp644
F93145.0
aF563.0
aF99479.0
aa(lp645
F93149.0
aF561.0
aF99476.0
aa(lp646
F93167.0
aF552.0
aF99462.0
aa(lp647
F93182.0
aF599.0
aF99433.0
aa(lp648
F93199.0
aF617.0
aF99415.0
aa(lp649
F93205.0
aF578.0
aF99445.0
aa(lp650
F93206.0
aF614.0
aF99424.0
aa(lp651
F93214.0
aF564.0
aF99461.0
aa(lp652
F93215.0
aF562.0
aF99461.0
aa(lp653
F93221.0
aF550.0
aF99476.0
aa(lp654
F93241.0
aF569.0
aF99452.0
aa(lp655
F93250.0
aF532.0
aF99479.0
aa(lp656
F93291.0
aF581.0
aF99441.0
aa(lp657
F93329.0
aF600.0
aF99423.0
aa(lp658
F93355.0
aF527.0
aF99497.0
aa(lp659
F93360.0
aF598.0
aF99431.0
aa(lp660
F93411.0
aF523.0
aF99501.0
aa(lp661
F93421.0
aF562.0
aF99460.0
aa(lp662
F93431.0
aF596.0
aF99433.0
aa(lp663
F93448.0
aF526.0
aF99495.0
aa(lp664
F93454.0
aF511.0
aF99504.0
aa(lp665
F93461.0
aF547.0
aF99476.0
aa(lp666
F93516.0
aF566.0
aF99454.0
aa(lp667
F93535.0
aF528.0
aF99489.0
aa(lp668
F93554.0
aF546.0
aF99478.0
aa(lp669
F93567.0
aF551.0
aF99473.0
aa(lp670
F93574.0
aF536.0
aF99477.0
aa(lp671
F93614.0
aF567.0
aF99449.0
aa(lp672
F93688.0
aF521.0
aF99503.0
aa(lp673
F93702.0
aF521.0
aF99497.0
aa(lp674
F93714.0
aF506.0
aF99519.0
aa(lp675
F93744.0
aF547.0
aF99473.0
aa(lp676
F93757.0
aF509.0
aF99514.0
aa(lp677
F93802.0
aF515.0
aF99501.0
aa(lp678
F93863.0
aF508.0
aF99516.0
aa(lp679
F93876.0
aF507.0
aF99508.0
aa(lp680
F94041.0
aF504.0
aF99524.0
aa(lp681
F94041.0
aF523.0
aF99495.0
aa(lp682
F94088.0
aF500.0
aF99533.0
aa(lp683
F94089.0
aF496.0
aF99545.0
aa(lp684
F94099.0
aF520.0
aF99500.0
aa(lp685
F94102.0
aF478.0
aF99533.0
aa(lp686
F94127.0
aF500.0
aF99521.0
aa(lp687
F94140.0
aF475.0
aF99552.0
aa(lp688
F94238.0
aF509.0
aF99506.0
aa(lp689
F94305.0
aF527.0
aF99492.0
aa(lp690
F94356.0
aF499.0
aF99531.0
aa(lp691
F94369.0
aF506.0
aF99518.0
aa(lp692
F94371.0
aF504.0
aF99513.0
aa(lp693
F94378.0
aF504.0
aF99506.0
aa(lp694
F94448.0
aF473.0
aF99557.0
aa(lp695
F94463.0
aF473.0
aF99554.0
aa(lp696
F94480.0
aF475.0
aF99545.0
aa(lp697
F94502.0
aF496.0
aF99528.0
aa(lp698
F94520.0
aF486.0
aF99524.0
aa(lp699
F94599.0
aF463.0
aF99573.0
aa(lp700
F94863.0
aF471.0
aF99552.0
aa(lp701
F95064.0
aF453.0
aF99593.0
aa(lp702
F95168.0
aF428.0
aF99627.0
aassS'../../Data/llvm_input.csv'
p703
(dp704
g3
(lp705
(lp706
F243.37
aF29.0
aa(lp707
F256.25
aF28.0
aa(lp708
F266.21
aF20.0
aa(lp709
F270.4
aF19.0
aassS'../../Data/wc-5d-c5.csv'
p710
(dp711
g3
(lp712
(lp713
F20591.0
aF47.387
aassS'../../Data/POM3C.csv'
p714
(dp715
g3
(lp716
(lp717
F202.22098459400002
aF0.566441972175
aF0.21596244131499998
aa(lp718
F202.471374616
aF0.681913199853
aF0.0
aa(lp719
F212.396759925
aF0.60687707087
aF0.190677966102
aa(lp720
F213.741033197
aF0.505329445856
aF0.44347826087
aa(lp721
F224.92270035599998
aF0.5604763643330001
aF0.42214532872
aa(lp722
F228.612215551
aF0.46293343656400004
aF0.0
aa(lp723
F251.483804224
aF0.444944325325
aF0.31474103585700003
aa(lp724
F260.407653602
aF0.427033549961
aF0.516891891892
aa(lp725
F276.582742248
aF0.415034718966
aF0.527272727273
aa(lp726
F289.414903601
aF0.40864664755999996
aF0.6574712643680001
aa(lp727
F354.391559201
aF0.416481009221
aF0.269503546099
aa(lp728
F410.232637474
aF0.45746524158600005
aF0.127118644068
aa(lp729
F413.65099287199996
aF0.453608784992
aF0.23943661971799998
aa(lp730
F416.83788835400003
aF0.39945305357
aF0.28402366863899997
aa(lp731
F439.304335583
aF0.441808405427
aF0.25963488843800003
aa(lp732
F446.866538209
aF0.39580925347900003
aF0.668587896254
aa(lp733
F457.91741625099996
aF0.430412958527
aF0.0
aa(lp734
F461.451802667
aF0.36918150500299995
aF0.447674418605
aa(lp735
F583.072799105
aF0.427147145778
aF0.11290322580600001
aa(lp736
F630.9370251
aF0.409621963897
aF0.110169491525
aa(lp737
F717.795973272
aF0.382274807723
aF0.135135135135
aa(lp738
F1608.31266853
aF0.421280440244
aF0.0283018867925
aassS'../../Data/wc+wc-3d-c4.csv'
p739
(dp740
g3
(lp741
(lp742
F5151.0
aF2.0815
aa(lp743
F19528.0
aF4.9185
aa(lp744
F20066.0
aF5.0202
aa(lp745
F20089.0
aF5.2988
aa(lp746
F20233.0
aF5.7734
aa(lp747
F23675.0
aF32.286
aa(lp748
F25565.0
aF39.446999999999996
aa(lp749
F26373.0
aF40.169000000000004
aa(lp750
F26596.0
aF273.88
aa(lp751
F33549.0
aF321.53
aa(lp752
F35418.0
aF3138.8
aa(lp753
F36900.0
aF17797.0
aa(lp754
F41829.0
aF24516.0
aa(lp755
F41953.0
aF36772.0
aa(lp756
F65823.0
aF46988.0
aass.