(dp0
S'evals'
p1
(dp2
S'wc+wc-3d-c4.p'
p3
(dp4
S'epal0.01'
p5
(lp6
I4
aF120.0
asS'epal0.12'
p7
(lp8
I4
aF96.0
asS'epal0.20'
p9
(lp10
I3
aF71.0
asS'epal0.04'
p11
(lp12
I4
aF111.0
asS'epal0.30'
p13
(lp14
I3
aF69.0
asS'AL2'
p15
(lp16
I2
aF37.0
asS'Flash3'
p17
(lp18
I1
aF21.0
assS'wc-5d-c5.p'
p19
(dp20
S'epal0.01'
p21
(lp22
I5
aF48.0
asS'epal0.12'
p23
(lp24
I3
aF32.0
asS'epal0.20'
p25
(lp26
I2
aF31.0
asS'epal0.04'
p27
(lp28
I4
aF35.0
asS'epal0.30'
p29
(lp30
I2
aF30.0
asg15
(lp31
I2
aF29.0
asg17
(lp32
I1
aF25.0
assS'wc-6d-c1.p'
p33
(dp34
S'epal0.01'
p35
(lp36
I4
aF215.0
asS'epal0.12'
p37
(lp38
I4
aF144.0
asS'epal0.20'
p39
(lp40
I3
aF138.0
asS'epal0.04'
p41
(lp42
I4
aF180.0
asS'epal0.30'
p43
(lp44
I3
aF140.0
asg15
(lp45
I2
aF36.0
asg17
(lp46
I1
aF32.0
assS'noc_CM_log.p'
p47
(dp48
g17
(lp49
I1
aF21.0
asS'epal0.12'
p50
(lp51
I1
aF36.0
asS'epal0.20'
p52
(lp53
I1
aF27.0
asS'epal0.04'
p54
(lp55
I2
aF60.0
asS'epal0.30'
p56
(lp57
I1
aF29.0
asg15
(lp58
I1
aF32.0
asS'epal0.01'
p59
(lp60
I2
aF53.0
assS'llvm_input.p'
p61
(dp62
g17
(lp63
I1
aF24.0
asS'epal0.12'
p64
(lp65
I1
aF43.0
asS'epal0.20'
p66
(lp67
I1
aF41.0
asS'epal0.04'
p68
(lp69
I2
aF70.0
asS'epal0.30'
p70
(lp71
I1
aF35.0
asg15
(lp72
I1
aF33.0
asS'epal0.01'
p73
(lp74
I2
aF69.0
assS'sort_256.p'
p75
(dp76
S'epal0.01'
p77
(lp78
I6
aF86.0
asS'epal0.12'
p79
(lp80
I4
aF36.0
asS'epal0.20'
p81
(lp82
I3
aF27.0
asS'epal0.04'
p83
(lp84
I5
aF67.0
asS'epal0.30'
p85
(lp86
I1
aF20.0
asg15
(lp87
I2
aF25.0
asg17
(lp88
I1
aF21.0
assS'wc+sol-3d-c4.p'
p89
(dp90
S'epal0.01'
p91
(lp92
I4
aF132.0
asS'epal0.12'
p93
(lp94
I3
aF85.0
asS'epal0.20'
p95
(lp96
I3
aF77.0
asS'epal0.04'
p97
(lp98
I4
aF119.0
asS'epal0.30'
p99
(lp100
I3
aF73.0
asg15
(lp101
I2
aF36.0
asg17
(lp102
I1
aF21.0
assS'rs-6d-c3.p'
p103
(dp104
S'epal0.01'
p105
(lp106
I2
aF187.0
asS'epal0.12'
p107
(lp108
I1
aF40.0
asS'epal0.20'
p109
(lp110
I1
aF30.0
asS'epal0.04'
p111
(lp112
I2
aF113.0
asS'epal0.30'
p113
(lp114
I1
aF30.0
asg15
(lp115
I1
aF35.0
asg17
(lp116
I1
aF35.0
assS'wc-c1-3d-c1.p'
p117
(dp118
S'epal0.01'
p119
(lp120
I5
aF112.0
asS'epal0.12'
p121
(lp122
I4
aF77.0
asS'epal0.20'
p123
(lp124
I3
aF70.0
asS'epal0.04'
p125
(lp126
I5
aF88.0
asS'epal0.30'
p127
(lp128
I3
aF74.0
asg15
(lp129
I2
aF29.0
asg17
(lp130
I1
aF26.0
assS'wc-c3-3d-c1.p'
p131
(dp132
S'epal0.01'
p133
(lp134
I5
aF248.0
asS'epal0.12'
p135
(lp136
I4
aF134.0
asS'epal0.20'
p137
(lp138
I3
aF60.0
asS'epal0.04'
p139
(lp140
I4
aF222.0
asS'epal0.30'
p141
(lp142
I3
aF101.0
asg15
(lp143
I2
aF29.0
asg17
(lp144
I1
aF26.0
assS'wc-3d-c4.p'
p145
(dp146
S'epal0.01'
p147
(lp148
I5
aF210.0
asS'epal0.12'
p149
(lp150
I4
aF72.0
asS'epal0.20'
p151
(lp152
I3
aF57.0
asS'epal0.04'
p153
(lp154
I4
aF91.0
asS'epal0.30'
p155
(lp156
I3
aF55.0
asg15
(lp157
I2
aF35.0
asg17
(lp158
I1
aF23.0
assS'wc+rs-3d-c4.p'
p159
(dp160
S'epal0.01'
p161
(lp162
I6
aF139.0
asS'epal0.12'
p163
(lp164
I4
aF78.0
asS'epal0.20'
p165
(lp166
I4
aF79.0
asS'epal0.04'
p167
(lp168
I5
aF114.0
asS'epal0.30'
p169
(lp170
I3
aF71.0
asg15
(lp171
I2
aF37.0
asg17
(lp172
I1
aF21.0
asssS'gd'
p173
(dp174
g3
(dp175
g17
(lp176
I1
aF0.01819
asS'epal0.12'
p177
(lp178
I1
aF8e-05
asS'epal0.20'
p179
(lp180
I1
aF0.00076
asS'epal0.04'
p181
(lp182
I1
aF0.00012
asS'epal0.30'
p183
(lp184
I1
aF0.00514
asg15
(lp185
I1
aF0.01114
asS'epal0.01'
p186
(lp187
I1
aF4e-05
assg19
(dp188
S'epal0.30'
p189
(lp190
I1
aF0.02783
asS'epal0.12'
p191
(lp192
I1
aF0.00281
asS'epal0.20'
p193
(lp194
I1
aF0.00869
asS'epal0.04'
p195
(lp196
I1
aF0.00444
asg17
(lp197
I1
aF0.00231
asg15
(lp198
I1
aF8e-05
asS'epal0.01'
p199
(lp200
I1
aF0.00834
assg33
(dp201
g17
(lp202
I1
aF0.00128
asS'epal0.12'
p203
(lp204
I1
aF0.00081
asS'epal0.20'
p205
(lp206
I1
aF0.00101
asS'epal0.04'
p207
(lp208
I1
aF0.00078
asS'epal0.30'
p209
(lp210
I1
aF0.00095
asg15
(lp211
I1
aF0.001
asS'epal0.01'
p212
(lp213
I1
aF0.0007
assg47
(dp214
g17
(lp215
I1
aF0.00011
asS'epal0.12'
p216
(lp217
I1
aF0.0
asS'epal0.20'
p218
(lp219
I1
aF0.0
asS'epal0.04'
p220
(lp221
I1
aF0.0
asS'epal0.30'
p222
(lp223
I1
aF0.0
asg15
(lp224
I1
aF0.0
asS'epal0.01'
p225
(lp226
I1
aF0.0
assg61
(dp227
S'epal0.30'
p228
(lp229
I1
aF0.02895
asS'epal0.12'
p230
(lp231
I1
aF0.03284
asS'epal0.20'
p232
(lp233
I1
aF0.01534
asS'epal0.04'
p234
(lp235
I1
aF0.00827
asS'epal0.01'
p236
(lp237
I1
aF0.01035
asg15
(lp238
I1
aF0.00991
asg17
(lp239
I1
aF0.0214
assg75
(dp240
g17
(lp241
I1
aF0.00612
asS'epal0.12'
p242
(lp243
I1
aF0.00012
asS'epal0.20'
p244
(lp245
I1
aF0.00018
asS'epal0.04'
p246
(lp247
I1
aF0.0
asS'epal0.30'
p248
(lp249
I1
aF0.00014
asg15
(lp250
I1
aF0.0
asS'epal0.01'
p251
(lp252
I1
aF0.0
assg89
(dp253
g17
(lp254
I1
aF0.00726
asS'epal0.12'
p255
(lp256
I1
aF0.00049
asS'epal0.20'
p257
(lp258
I1
aF0.00051
asS'epal0.04'
p259
(lp260
I1
aF0.00023
asS'epal0.30'
p261
(lp262
I1
aF0.00043
asg15
(lp263
I1
aF0.0061
asS'epal0.01'
p264
(lp265
I1
aF0.00027
assg103
(dp266
S'epal0.30'
p267
(lp268
I1
aF0.00022
asS'epal0.12'
p269
(lp270
I1
aF0.00017
asS'epal0.20'
p271
(lp272
I1
aF0.00012
asS'epal0.04'
p273
(lp274
I1
aF0.0001
asS'epal0.01'
p275
(lp276
I1
aF0.00011
asg15
(lp277
I1
aF0.0001
asg17
(lp278
I1
aF0.00012
assg117
(dp279
g17
(lp280
I1
aF0.00147
asS'epal0.12'
p281
(lp282
I1
aF0.00286
asS'epal0.20'
p283
(lp284
I1
aF0.00278
asS'epal0.04'
p285
(lp286
I1
aF0.00341
asS'epal0.30'
p287
(lp288
I1
aF0.00153
asg15
(lp289
I1
aF0.0002
asS'epal0.01'
p290
(lp291
I1
aF0.00158
assg131
(dp292
g17
(lp293
I1
aF0.00033
asS'epal0.12'
p294
(lp295
I1
aF0.00051
asS'epal0.20'
p296
(lp297
I1
aF0.00072
asS'epal0.04'
p298
(lp299
I1
aF0.00079
asS'epal0.30'
p300
(lp301
I1
aF0.00081
asg15
(lp302
I1
aF0.00031
asS'epal0.01'
p303
(lp304
I1
aF0.00059
assg145
(dp305
S'epal0.01'
p306
(lp307
I1
aF0.00119
asS'epal0.12'
p308
(lp309
I1
aF0.00194
asS'epal0.20'
p310
(lp311
I1
aF0.00138
asS'epal0.04'
p312
(lp313
I1
aF0.00138
asS'epal0.30'
p314
(lp315
I1
aF0.0012
asg15
(lp316
I1
aF0.00055
asg17
(lp317
I1
aF0.0016
assg159
(dp318
g17
(lp319
I1
aF0.02063
asS'epal0.12'
p320
(lp321
I1
aF0.00536
asS'epal0.20'
p322
(lp323
I1
aF0.00239
asS'epal0.04'
p324
(lp325
I1
aF0.00244
asS'epal0.30'
p326
(lp327
I1
aF0.01685
asg15
(lp328
I1
aF0.00824
asS'epal0.01'
p329
(lp330
I1
aF0.00017
asssS'igd'
p331
(dp332
g3
(dp333
g17
(lp334
I1
aF0.0147
asS'epal0.12'
p335
(lp336
I1
aF0.00237
asS'epal0.20'
p337
(lp338
I1
aF0.00579
asS'epal0.04'
p339
(lp340
I1
aF0.0026
asS'epal0.30'
p341
(lp342
I1
aF0.00731
asg15
(lp343
I1
aF0.01404
asS'epal0.01'
p344
(lp345
I1
aF0.00176
assg19
(dp346
S'epal0.30'
p347
(lp348
I1
aF0.02783
asS'epal0.12'
p349
(lp350
I1
aF0.00281
asS'epal0.20'
p351
(lp352
I1
aF0.00869
asS'epal0.04'
p353
(lp354
I1
aF0.00444
asg17
(lp355
I1
aF0.00231
asg15
(lp356
I1
aF8e-05
asS'epal0.01'
p357
(lp358
I1
aF0.00834
assg33
(dp359
S'epal0.01'
p360
(lp361
I1
aF0.00138
asS'epal0.12'
p362
(lp363
I1
aF0.0018
asS'epal0.20'
p364
(lp365
I1
aF0.00185
asS'epal0.04'
p366
(lp367
I1
aF0.00124
asS'epal0.30'
p368
(lp369
I1
aF0.00194
asg15
(lp370
I1
aF0.00884
asg17
(lp371
I1
aF0.00539
assg47
(dp372
g17
(lp373
I1
aF0.00054
asS'epal0.12'
p374
(lp375
I1
aF0.00014
asS'epal0.20'
p376
(lp377
I1
aF0.00021
asS'epal0.04'
p378
(lp379
I1
aF0.00013
asS'epal0.30'
p380
(lp381
I1
aF0.00023
asg15
(lp382
I1
aF3e-05
asS'epal0.01'
p383
(lp384
I1
aF0.00013
assg61
(dp385
S'epal0.01'
p386
(lp387
I1
aF0.00662
asS'epal0.12'
p388
(lp389
I1
aF0.00674
asS'epal0.20'
p390
(lp391
I1
aF0.00718
asS'epal0.04'
p392
(lp393
I1
aF0.00658
asS'epal0.30'
p394
(lp395
I1
aF0.00764
asg15
(lp396
I1
aF0.00886
asg17
(lp397
I1
aF0.00892
assg75
(dp398
g17
(lp399
I2
aF0.01671
asS'epal0.12'
p400
(lp401
I1
aF0.001
asS'epal0.20'
p402
(lp403
I1
aF0.00129
asS'epal0.04'
p404
(lp405
I1
aF0.00074
asS'epal0.30'
p406
(lp407
I1
aF0.00342
asg15
(lp408
I1
aF0.00303
asS'epal0.01'
p409
(lp410
I1
aF0.00022
assg89
(dp411
g17
(lp412
I2
aF0.03424
asS'epal0.12'
p413
(lp414
I1
aF0.00389
asS'epal0.20'
p415
(lp416
I1
aF0.00481
asS'epal0.04'
p417
(lp418
I1
aF0.00306
asS'epal0.30'
p419
(lp420
I1
aF0.00632
asg15
(lp421
I2
aF0.01787
asS'epal0.01'
p422
(lp423
I1
aF0.00302
assg103
(dp424
g17
(lp425
I1
aF0.00143
asS'epal0.12'
p426
(lp427
I1
aF0.00202
asS'epal0.20'
p428
(lp429
I1
aF0.0016
asS'epal0.04'
p430
(lp431
I1
aF0.00138
asS'epal0.30'
p432
(lp433
I1
aF0.00173
asg15
(lp434
I1
aF0.00191
asS'epal0.01'
p435
(lp436
I1
aF0.00173
assg117
(dp437
g17
(lp438
I1
aF0.00088
asS'epal0.12'
p439
(lp440
I1
aF0.00337
asS'epal0.20'
p441
(lp442
I1
aF0.00215
asS'epal0.04'
p443
(lp444
I1
aF0.00335
asS'epal0.30'
p445
(lp446
I1
aF0.00217
asg15
(lp447
I1
aF0.00042
asS'epal0.01'
p448
(lp449
I1
aF0.00244
assg131
(dp450
g17
(lp451
I1
aF0.00325
asS'epal0.12'
p452
(lp453
I1
aF0.00444
asS'epal0.20'
p454
(lp455
I1
aF0.0049
asS'epal0.04'
p456
(lp457
I1
aF0.00466
asS'epal0.30'
p458
(lp459
I1
aF0.00447
asg15
(lp460
I1
aF0.00293
asS'epal0.01'
p461
(lp462
I1
aF0.00383
assg145
(dp463
S'epal0.01'
p464
(lp465
I1
aF0.00381
asS'epal0.12'
p466
(lp467
I1
aF0.00741
asS'epal0.20'
p468
(lp469
I1
aF0.00825
asS'epal0.04'
p470
(lp471
I1
aF0.00495
asS'epal0.30'
p472
(lp473
I1
aF0.00777
asg15
(lp474
I1
aF0.02196
asg17
(lp475
I1
aF0.01743
assg159
(dp476
g17
(lp477
I1
aF0.01225
asS'epal0.12'
p478
(lp479
I1
aF0.00427
asS'epal0.20'
p480
(lp481
I1
aF0.00239
asS'epal0.04'
p482
(lp483
I1
aF0.00119
asS'epal0.30'
p484
(lp485
I1
aF0.00582
asg15
(lp486
I1
aF0.00674
asS'epal0.01'
p487
(lp488
I1
aF0.00023
asss.