(dp0
S'evals'
p1
(dp2
S'wc+wc-3d-c4.p'
p3
(dp4
S'epal0.02'
p5
I4
sS'AL'
p6
I2
sS'epal0.12'
p7
I3
sS'epal0.08'
p8
I3
sS'epal0.16'
p9
I2
sS'epal0.20'
p10
I2
sS'epal0.04'
p11
I4
sS'epal0.30'
p12
I2
sS'AL2'
p13
I1
sS'epal0.01'
p14
I4
ssS'wc-5d-c5.p'
p15
(dp16
S'epal0.02'
p17
I3
sg6
I1
sS'epal0.12'
p18
I2
sS'epal0.08'
p19
I2
sS'epal0.16'
p20
I1
sS'epal0.20'
p21
I1
sS'epal0.04'
p22
I3
sS'epal0.30'
p23
I1
sg13
I1
sS'epal0.01'
p24
I4
ssS'wc-6d-c1.p'
p25
(dp26
S'epal0.02'
p27
I3
sg6
I2
sS'epal0.12'
p28
I3
sS'epal0.08'
p29
I2
sS'epal0.16'
p30
I2
sS'epal0.20'
p31
I2
sS'epal0.04'
p32
I3
sS'epal0.30'
p33
I2
sg13
I1
sS'epal0.01'
p34
I3
ssS'noc_CM_log.p'
p35
(dp36
S'epal0.02'
p37
I2
sg6
I1
sS'epal0.12'
p38
I1
sS'epal0.08'
p39
I1
sS'epal0.16'
p40
I1
sS'epal0.20'
p41
I1
sS'epal0.04'
p42
I2
sS'epal0.30'
p43
I1
sg13
I1
sS'epal0.01'
p44
I2
ssS'llvm_input.p'
p45
(dp46
S'epal0.02'
p47
I4
sg6
I2
sS'epal0.12'
p48
I3
sS'epal0.08'
p49
I3
sS'epal0.16'
p50
I3
sS'epal0.20'
p51
I2
sS'epal0.04'
p52
I4
sS'epal0.30'
p53
I2
sg13
I1
sS'epal0.01'
p54
I4
ssS'sort_256.p'
p55
(dp56
S'epal0.02'
p57
I6
sg6
I1
sS'epal0.12'
p58
I4
sS'epal0.08'
p59
I5
sS'epal0.16'
p60
I3
sS'epal0.20'
p61
I3
sS'epal0.04'
p62
I5
sS'epal0.30'
p63
I1
sg13
I2
sS'epal0.01'
p64
I6
ssS'wc+sol-3d-c4.p'
p65
(dp66
S'epal0.02'
p67
I4
sg6
I2
sS'epal0.12'
p68
I2
sS'epal0.08'
p69
I3
sS'epal0.16'
p70
I2
sS'epal0.20'
p71
I2
sS'epal0.04'
p72
I4
sS'epal0.30'
p73
I2
sg13
I1
sS'epal0.01'
p74
I4
ssS'rs-6d-c3.p'
p75
(dp76
S'epal0.02'
p77
I2
sg6
I1
sS'epal0.12'
p78
I1
sS'epal0.08'
p79
I1
sS'epal0.16'
p80
I1
sS'epal0.20'
p81
I1
sS'epal0.04'
p82
I2
sS'epal0.30'
p83
I1
sg13
I1
sS'epal0.01'
p84
I2
ssS'wc-c1-3d-c1.p'
p85
(dp86
S'epal0.02'
p87
I4
sg6
I2
sS'epal0.12'
p88
I3
sS'epal0.08'
p89
I4
sS'epal0.16'
p90
I3
sS'epal0.20'
p91
I2
sS'epal0.04'
p92
I4
sS'epal0.30'
p93
I2
sg13
I1
sS'epal0.01'
p94
I4
ssS'wc-c3-3d-c1.p'
p95
(dp96
S'epal0.02'
p97
I4
sg6
I2
sS'epal0.12'
p98
I3
sS'epal0.08'
p99
I3
sS'epal0.16'
p100
I2
sS'epal0.20'
p101
I2
sS'epal0.04'
p102
I3
sS'epal0.30'
p103
I2
sg13
I1
sS'epal0.01'
p104
I4
ssS'wc-3d-c4.p'
p105
(dp106
S'epal0.02'
p107
I3
sg6
I2
sS'epal0.12'
p108
I3
sS'epal0.08'
p109
I3
sS'epal0.16'
p110
I2
sS'epal0.20'
p111
I2
sS'epal0.04'
p112
I3
sS'epal0.30'
p113
I2
sg13
I1
sS'epal0.01'
p114
I4
ssS'wc+rs-3d-c4.p'
p115
(dp116
S'epal0.02'
p117
I4
sg6
I2
sS'epal0.12'
p118
I3
sS'epal0.08'
p119
I4
sS'epal0.16'
p120
I4
sS'epal0.20'
p121
I3
sS'epal0.04'
p122
I4
sS'epal0.30'
p123
I2
sg13
I1
sS'epal0.01'
p124
I5
sssS'gd'
p125
(dp126
g3
(dp127
S'epal0.02'
p128
I4
sg6
I2
sS'epal0.12'
p129
I3
sS'epal0.08'
p130
I3
sS'epal0.16'
p131
I2
sS'epal0.20'
p132
I2
sS'epal0.04'
p133
I4
sS'epal0.30'
p134
I2
sg13
I1
sS'epal0.01'
p135
I4
ssg15
(dp136
S'epal0.02'
p137
I3
sg6
I1
sS'epal0.12'
p138
I2
sS'epal0.08'
p139
I2
sS'epal0.16'
p140
I1
sS'epal0.20'
p141
I1
sS'epal0.04'
p142
I3
sS'epal0.30'
p143
I1
sg13
I1
sS'epal0.01'
p144
I4
ssg25
(dp145
S'epal0.02'
p146
I3
sg6
I2
sS'epal0.12'
p147
I3
sS'epal0.08'
p148
I2
sS'epal0.16'
p149
I2
sS'epal0.20'
p150
I2
sS'epal0.04'
p151
I3
sS'epal0.30'
p152
I2
sg13
I1
sS'epal0.01'
p153
I3
ssg35
(dp154
S'epal0.02'
p155
I2
sg6
I1
sS'epal0.12'
p156
I1
sS'epal0.08'
p157
I1
sS'epal0.16'
p158
I1
sS'epal0.20'
p159
I1
sS'epal0.04'
p160
I2
sS'epal0.30'
p161
I1
sg13
I1
sS'epal0.01'
p162
I2
ssg45
(dp163
S'epal0.02'
p164
I4
sg6
I2
sS'epal0.12'
p165
I3
sS'epal0.08'
p166
I3
sS'epal0.16'
p167
I3
sS'epal0.20'
p168
I2
sS'epal0.04'
p169
I4
sS'epal0.30'
p170
I2
sg13
I1
sS'epal0.01'
p171
I4
ssg55
(dp172
S'epal0.02'
p173
I6
sg6
I1
sS'epal0.12'
p174
I4
sS'epal0.08'
p175
I5
sS'epal0.16'
p176
I3
sS'epal0.20'
p177
I3
sS'epal0.04'
p178
I5
sS'epal0.30'
p179
I1
sg13
I2
sS'epal0.01'
p180
I6
ssg65
(dp181
S'epal0.02'
p182
I4
sg6
I2
sS'epal0.12'
p183
I2
sS'epal0.08'
p184
I3
sS'epal0.16'
p185
I2
sS'epal0.20'
p186
I2
sS'epal0.04'
p187
I4
sS'epal0.30'
p188
I2
sg13
I1
sS'epal0.01'
p189
I4
ssg75
(dp190
S'epal0.02'
p191
I2
sg6
I1
sS'epal0.12'
p192
I1
sS'epal0.08'
p193
I1
sS'epal0.16'
p194
I1
sS'epal0.20'
p195
I1
sS'epal0.04'
p196
I2
sS'epal0.30'
p197
I1
sg13
I1
sS'epal0.01'
p198
I2
ssg85
(dp199
S'epal0.02'
p200
I4
sg6
I2
sS'epal0.12'
p201
I3
sS'epal0.08'
p202
I4
sS'epal0.16'
p203
I3
sS'epal0.20'
p204
I2
sS'epal0.04'
p205
I4
sS'epal0.30'
p206
I2
sg13
I1
sS'epal0.01'
p207
I4
ssg95
(dp208
S'epal0.02'
p209
I4
sg6
I2
sS'epal0.12'
p210
I3
sS'epal0.08'
p211
I3
sS'epal0.16'
p212
I2
sS'epal0.20'
p213
I2
sS'epal0.04'
p214
I3
sS'epal0.30'
p215
I2
sg13
I1
sS'epal0.01'
p216
I4
ssg105
(dp217
S'epal0.02'
p218
I3
sg6
I2
sS'epal0.12'
p219
I3
sS'epal0.08'
p220
I3
sS'epal0.16'
p221
I2
sS'epal0.20'
p222
I2
sS'epal0.04'
p223
I3
sS'epal0.30'
p224
I2
sg13
I1
sS'epal0.01'
p225
I4
ssg115
(dp226
S'epal0.02'
p227
I4
sg6
I2
sS'epal0.12'
p228
I3
sS'epal0.08'
p229
I4
sS'epal0.16'
p230
I4
sS'epal0.20'
p231
I3
sS'epal0.04'
p232
I4
sS'epal0.30'
p233
I2
sg13
I1
sS'epal0.01'
p234
I5
sssS'igd'
p235
(dp236
g3
(dp237
g13
I1
sg6
I1
sS'epal0.12'
p238
I1
sS'epal0.08'
p239
I1
sS'epal0.16'
p240
I1
sS'epal0.20'
p241
I1
sS'epal0.04'
p242
I1
sS'epal0.30'
p243
I1
sS'epal0.02'
p244
I1
sS'epal0.01'
p245
I1
ssg15
(dp246
g13
I1
sg6
I1
sS'epal0.12'
p247
I1
sS'epal0.08'
p248
I1
sS'epal0.16'
p249
I1
sS'epal0.20'
p250
I1
sS'epal0.04'
p251
I1
sS'epal0.30'
p252
I1
sS'epal0.02'
p253
I1
sS'epal0.01'
p254
I1
ssg25
(dp255
g13
I1
sg6
I1
sS'epal0.12'
p256
I1
sS'epal0.08'
p257
I1
sS'epal0.16'
p258
I1
sS'epal0.20'
p259
I1
sS'epal0.04'
p260
I1
sS'epal0.30'
p261
I1
sS'epal0.02'
p262
I1
sS'epal0.01'
p263
I1
ssg35
(dp264
g13
I1
sg6
I1
sS'epal0.12'
p265
I1
sS'epal0.08'
p266
I1
sS'epal0.16'
p267
I1
sS'epal0.20'
p268
I1
sS'epal0.04'
p269
I1
sS'epal0.30'
p270
I1
sS'epal0.02'
p271
I1
sS'epal0.01'
p272
I1
ssg45
(dp273
g13
I1
sg6
I1
sS'epal0.12'
p274
I1
sS'epal0.08'
p275
I1
sS'epal0.16'
p276
I1
sS'epal0.20'
p277
I1
sS'epal0.04'
p278
I1
sS'epal0.30'
p279
I1
sS'epal0.02'
p280
I1
sS'epal0.01'
p281
I1
ssg55
(dp282
g13
I1
sg6
I1
sS'epal0.12'
p283
I1
sS'epal0.08'
p284
I1
sS'epal0.16'
p285
I1
sS'epal0.20'
p286
I1
sS'epal0.04'
p287
I1
sS'epal0.30'
p288
I1
sS'epal0.02'
p289
I1
sS'epal0.01'
p290
I1
ssg65
(dp291
g13
I2
sg6
I1
sS'epal0.12'
p292
I1
sS'epal0.08'
p293
I1
sS'epal0.16'
p294
I1
sS'epal0.20'
p295
I1
sS'epal0.04'
p296
I1
sS'epal0.30'
p297
I1
sS'epal0.02'
p298
I1
sS'epal0.01'
p299
I1
ssg75
(dp300
g13
I1
sg6
I1
sS'epal0.12'
p301
I1
sS'epal0.08'
p302
I1
sS'epal0.16'
p303
I1
sS'epal0.20'
p304
I1
sS'epal0.04'
p305
I1
sS'epal0.30'
p306
I1
sS'epal0.02'
p307
I1
sS'epal0.01'
p308
I1
ssg85
(dp309
g13
I1
sg6
I1
sS'epal0.12'
p310
I1
sS'epal0.08'
p311
I1
sS'epal0.16'
p312
I1
sS'epal0.20'
p313
I1
sS'epal0.04'
p314
I1
sS'epal0.30'
p315
I1
sS'epal0.02'
p316
I1
sS'epal0.01'
p317
I1
ssg95
(dp318
g13
I1
sg6
I1
sS'epal0.12'
p319
I1
sS'epal0.08'
p320
I1
sS'epal0.16'
p321
I1
sS'epal0.20'
p322
I1
sS'epal0.04'
p323
I1
sS'epal0.30'
p324
I1
sS'epal0.02'
p325
I1
sS'epal0.01'
p326
I1
ssg105
(dp327
g13
I2
sg6
I1
sS'epal0.12'
p328
I1
sS'epal0.08'
p329
I1
sS'epal0.16'
p330
I1
sS'epal0.20'
p331
I1
sS'epal0.04'
p332
I1
sS'epal0.30'
p333
I1
sS'epal0.02'
p334
I1
sS'epal0.01'
p335
I1
ssg115
(dp336
g13
I1
sg6
I1
sS'epal0.12'
p337
I1
sS'epal0.08'
p338
I1
sS'epal0.16'
p339
I1
sS'epal0.20'
p340
I1
sS'epal0.04'
p341
I1
sS'epal0.30'
p342
I1
sS'epal0.02'
p343
I1
sS'epal0.01'
p344
I1
sss.