(dp0
S'evals'
p1
(dp2
S'wc+wc-3d-c4.p'
p3
(dp4
S'epal0.30'
p5
(lp6
I2
aF69.0
asS'AL2'
p7
(lp8
I1
aF37.0
asS'epal0.01'
p9
(lp10
I3
aF120.0
assS'wc-5d-c5.p'
p11
(dp12
S'epal0.30'
p13
(lp14
I1
aF30.0
asg7
(lp15
I1
aF29.0
asS'epal0.01'
p16
(lp17
I2
aF48.0
assS'wc-6d-c1.p'
p18
(dp19
S'epal0.30'
p20
(lp21
I2
aF140.0
asg7
(lp22
I1
aF36.0
asS'epal0.01'
p23
(lp24
I2
aF215.0
assS'noc_CM_log.p'
p25
(dp26
S'epal0.30'
p27
(lp28
I1
aF29.0
asg7
(lp29
I1
aF32.0
asS'epal0.01'
p30
(lp31
I2
aF53.0
assS'llvm_input.p'
p32
(dp33
S'epal0.30'
p34
(lp35
I2
aF35.0
asg7
(lp36
I1
aF33.0
asS'epal0.01'
p37
(lp38
I3
aF69.0
assS'sort_256.p'
p39
(dp40
S'epal0.30'
p41
(lp42
I1
aF20.0
asg7
(lp43
I2
aF25.0
asS'epal0.01'
p44
(lp45
I3
aF86.0
assS'wc+sol-3d-c4.p'
p46
(dp47
S'epal0.30'
p48
(lp49
I2
aF73.0
asg7
(lp50
I1
aF36.0
asS'epal0.01'
p51
(lp52
I3
aF132.0
assS'rs-6d-c3.p'
p53
(dp54
S'epal0.30'
p55
(lp56
I1
aF30.0
asg7
(lp57
I2
aF35.0
asS'epal0.01'
p58
(lp59
I3
aF187.0
assS'wc-c1-3d-c1.p'
p60
(dp61
S'epal0.30'
p62
(lp63
I2
aF74.0
asg7
(lp64
I1
aF29.0
asS'epal0.01'
p65
(lp66
I3
aF112.0
assS'wc-c3-3d-c1.p'
p67
(dp68
S'epal0.30'
p69
(lp70
I2
aF101.0
asg7
(lp71
I1
aF29.0
asS'epal0.01'
p72
(lp73
I3
aF248.0
assS'wc-3d-c4.p'
p74
(dp75
S'epal0.30'
p76
(lp77
I2
aF55.0
asg7
(lp78
I1
aF35.0
asS'epal0.01'
p79
(lp80
I3
aF210.0
assS'wc+rs-3d-c4.p'
p81
(dp82
S'epal0.30'
p83
(lp84
I2
aF71.0
asg7
(lp85
I1
aF37.0
asS'epal0.01'
p86
(lp87
I3
aF139.0
asssS'gd'
p88
(dp89
g3
(dp90
S'epal0.30'
p91
(lp92
I1
aF0.00514
asg7
(lp93
I1
aF0.01114
asS'epal0.01'
p94
(lp95
I1
aF4e-05
assg11
(dp96
S'epal0.30'
p97
(lp98
I1
aF0.02783
asg7
(lp99
I1
aF8e-05
asS'epal0.01'
p100
(lp101
I1
aF0.00834
assg18
(dp102
S'epal0.30'
p103
(lp104
I1
aF0.00095
asg7
(lp105
I1
aF0.001
asS'epal0.01'
p106
(lp107
I1
aF0.0007
assg25
(dp108
S'epal0.30'
p109
(lp110
I1
aF0.0
asg7
(lp111
I1
aF0.0
asS'epal0.01'
p112
(lp113
I1
aF0.0
assg32
(dp114
S'epal0.30'
p115
(lp116
I1
aF0.02895
asg7
(lp117
I1
aF0.00991
asS'epal0.01'
p118
(lp119
I1
aF0.01035
assg39
(dp120
S'epal0.30'
p121
(lp122
I1
aF0.00014
asg7
(lp123
I1
aF0.0
asS'epal0.01'
p124
(lp125
I1
aF0.0
assg46
(dp126
S'epal0.30'
p127
(lp128
I1
aF0.00043
asg7
(lp129
I1
aF0.0061
asS'epal0.01'
p130
(lp131
I1
aF0.00027
assg53
(dp132
S'epal0.30'
p133
(lp134
I1
aF0.00022
asg7
(lp135
I1
aF0.0001
asS'epal0.01'
p136
(lp137
I1
aF0.00011
assg60
(dp138
S'epal0.30'
p139
(lp140
I1
aF0.00153
asg7
(lp141
I1
aF0.0002
asS'epal0.01'
p142
(lp143
I1
aF0.00158
assg67
(dp144
S'epal0.30'
p145
(lp146
I1
aF0.00081
asg7
(lp147
I1
aF0.00031
asS'epal0.01'
p148
(lp149
I1
aF0.00059
assg74
(dp150
S'epal0.30'
p151
(lp152
I1
aF0.0012
asg7
(lp153
I1
aF0.00055
asS'epal0.01'
p154
(lp155
I1
aF0.00119
assg81
(dp156
S'epal0.30'
p157
(lp158
I1
aF0.01685
asg7
(lp159
I1
aF0.00824
asS'epal0.01'
p160
(lp161
I1
aF0.00017
asssS'igd'
p162
(dp163
g3
(dp164
S'epal0.30'
p165
(lp166
I1
aF0.00731
asg7
(lp167
I1
aF0.01404
asS'epal0.01'
p168
(lp169
I1
aF0.00176
assg11
(dp170
S'epal0.30'
p171
(lp172
I1
aF0.02783
asg7
(lp173
I1
aF8e-05
asS'epal0.01'
p174
(lp175
I1
aF0.00834
assg18
(dp176
S'epal0.30'
p177
(lp178
I1
aF0.00194
asg7
(lp179
I1
aF0.00884
asS'epal0.01'
p180
(lp181
I1
aF0.00138
assg25
(dp182
S'epal0.30'
p183
(lp184
I1
aF0.00023
asg7
(lp185
I1
aF3e-05
asS'epal0.01'
p186
(lp187
I1
aF0.00013
assg32
(dp188
S'epal0.30'
p189
(lp190
I1
aF0.00764
asg7
(lp191
I1
aF0.00886
asS'epal0.01'
p192
(lp193
I1
aF0.00662
assg39
(dp194
S'epal0.30'
p195
(lp196
I1
aF0.00342
asg7
(lp197
I1
aF0.00303
asS'epal0.01'
p198
(lp199
I1
aF0.00022
assg46
(dp200
S'epal0.30'
p201
(lp202
I1
aF0.00632
asg7
(lp203
I2
aF0.01787
asS'epal0.01'
p204
(lp205
I1
aF0.00302
assg53
(dp206
S'epal0.30'
p207
(lp208
I1
aF0.00173
asg7
(lp209
I1
aF0.00191
asS'epal0.01'
p210
(lp211
I1
aF0.00173
assg60
(dp212
S'epal0.30'
p213
(lp214
I1
aF0.00217
asg7
(lp215
I1
aF0.00042
asS'epal0.01'
p216
(lp217
I1
aF0.00244
assg67
(dp218
S'epal0.30'
p219
(lp220
I1
aF0.00447
asg7
(lp221
I1
aF0.00293
asS'epal0.01'
p222
(lp223
I1
aF0.00383
assg74
(dp224
S'epal0.30'
p225
(lp226
I1
aF0.00777
asg7
(lp227
I2
aF0.02196
asS'epal0.01'
p228
(lp229
I1
aF0.00381
assg81
(dp230
S'epal0.30'
p231
(lp232
I1
aF0.00582
asg7
(lp233
I1
aF0.00674
asS'epal0.01'
p234
(lp235
I1
aF0.00023
asss.