(dp0
S'evals'
p1
(dp2
S'wc+wc-3d-c4.p'
p3
(dp4
S'AL'
p5
(lp6
I2
aF69.0
asS'epal0.12'
p7
(lp8
I3
aF96.0
asS'epal0.20'
p9
(lp10
I2
aF71.0
asS'epal0.04'
p11
(lp12
I3
aF111.0
asS'epal0.30'
p13
(lp14
I2
aF69.0
asS'AL2'
p15
(lp16
I1
aF37.0
asS'epal0.01'
p17
(lp18
I3
aF120.0
assS'wc-5d-c5.p'
p19
(dp20
g5
(lp21
I1
aF30.0
asS'epal0.12'
p22
(lp23
I2
aF32.0
asS'epal0.20'
p24
(lp25
I1
aF31.0
asS'epal0.04'
p26
(lp27
I3
aF35.0
asS'epal0.30'
p28
(lp29
I1
aF30.0
asg15
(lp30
I1
aF29.0
asS'epal0.01'
p31
(lp32
I4
aF48.0
assS'wc-6d-c1.p'
p33
(dp34
g5
(lp35
I2
aF140.0
asS'epal0.12'
p36
(lp37
I3
aF144.0
asS'epal0.20'
p38
(lp39
I2
aF138.0
asS'epal0.04'
p40
(lp41
I3
aF180.0
asS'epal0.30'
p42
(lp43
I2
aF140.0
asg15
(lp44
I1
aF36.0
asS'epal0.01'
p45
(lp46
I3
aF215.0
assS'noc_CM_log.p'
p47
(dp48
g5
(lp49
I1
aF29.0
asS'epal0.12'
p50
(lp51
I1
aF36.0
asS'epal0.20'
p52
(lp53
I1
aF27.0
asS'epal0.04'
p54
(lp55
I2
aF60.0
asS'epal0.30'
p56
(lp57
I1
aF29.0
asg15
(lp58
I1
aF32.0
asS'epal0.01'
p59
(lp60
I2
aF53.0
assS'llvm_input.p'
p61
(dp62
g5
(lp63
I1
aF35.0
asS'epal0.12'
p64
(lp65
I1
aF43.0
asS'epal0.20'
p66
(lp67
I1
aF41.0
asS'epal0.04'
p68
(lp69
I2
aF70.0
asS'epal0.30'
p70
(lp71
I1
aF35.0
asg15
(lp72
I1
aF33.0
asS'epal0.01'
p73
(lp74
I2
aF69.0
assS'sort_256.p'
p75
(dp76
g5
(lp77
I1
aF20.0
asS'epal0.12'
p78
(lp79
I4
aF36.0
asS'epal0.20'
p80
(lp81
I3
aF27.0
asS'epal0.04'
p82
(lp83
I5
aF67.0
asS'epal0.30'
p84
(lp85
I1
aF20.0
asg15
(lp86
I2
aF25.0
asS'epal0.01'
p87
(lp88
I6
aF86.0
assS'wc+sol-3d-c4.p'
p89
(dp90
g5
(lp91
I2
aF73.0
asS'epal0.12'
p92
(lp93
I2
aF85.0
asS'epal0.20'
p94
(lp95
I2
aF77.0
asS'epal0.04'
p96
(lp97
I3
aF119.0
asS'epal0.30'
p98
(lp99
I2
aF73.0
asg15
(lp100
I1
aF36.0
asS'epal0.01'
p101
(lp102
I3
aF132.0
assS'rs-6d-c3.p'
p103
(dp104
g5
(lp105
I1
aF30.0
asS'epal0.12'
p106
(lp107
I2
aF40.0
asS'epal0.20'
p108
(lp109
I1
aF30.0
asS'epal0.04'
p110
(lp111
I2
aF113.0
asS'epal0.30'
p112
(lp113
I1
aF30.0
asg15
(lp114
I1
aF35.0
asS'epal0.01'
p115
(lp116
I3
aF187.0
assS'wc-c1-3d-c1.p'
p117
(dp118
g5
(lp119
I2
aF74.0
asS'epal0.12'
p120
(lp121
I3
aF77.0
asS'epal0.20'
p122
(lp123
I2
aF70.0
asS'epal0.04'
p124
(lp125
I4
aF88.0
asS'epal0.30'
p126
(lp127
I2
aF74.0
asg15
(lp128
I1
aF29.0
asS'epal0.01'
p129
(lp130
I4
aF112.0
assS'wc-c3-3d-c1.p'
p131
(dp132
g5
(lp133
I2
aF101.0
asS'epal0.12'
p134
(lp135
I3
aF134.0
asS'epal0.20'
p136
(lp137
I2
aF60.0
asS'epal0.04'
p138
(lp139
I3
aF222.0
asS'epal0.30'
p140
(lp141
I2
aF101.0
asg15
(lp142
I1
aF29.0
asS'epal0.01'
p143
(lp144
I3
aF248.0
assS'wc-3d-c4.p'
p145
(dp146
g5
(lp147
I2
aF55.0
asS'epal0.12'
p148
(lp149
I3
aF72.0
asS'epal0.20'
p150
(lp151
I2
aF57.0
asS'epal0.04'
p152
(lp153
I3
aF91.0
asS'epal0.30'
p154
(lp155
I2
aF55.0
asg15
(lp156
I1
aF35.0
asS'epal0.01'
p157
(lp158
I4
aF210.0
assS'wc+rs-3d-c4.p'
p159
(dp160
g5
(lp161
I2
aF71.0
asS'epal0.12'
p162
(lp163
I3
aF78.0
asS'epal0.20'
p164
(lp165
I3
aF79.0
asS'epal0.04'
p166
(lp167
I4
aF114.0
asS'epal0.30'
p168
(lp169
I2
aF71.0
asg15
(lp170
I1
aF37.0
asS'epal0.01'
p171
(lp172
I5
aF139.0
asssS'gd'
p173
(dp174
g3
(dp175
g5
(lp176
I1
aF0.00514
asS'epal0.12'
p177
(lp178
I1
aF8e-05
asS'epal0.20'
p179
(lp180
I1
aF0.00076
asS'epal0.04'
p181
(lp182
I1
aF0.00012
asS'epal0.30'
p183
(lp184
I1
aF0.00514
asg15
(lp185
I1
aF0.01114
asS'epal0.01'
p186
(lp187
I1
aF4e-05
assg19
(dp188
g5
(lp189
I1
aF0.02783
asS'epal0.12'
p190
(lp191
I1
aF0.00281
asS'epal0.20'
p192
(lp193
I1
aF0.00869
asS'epal0.04'
p194
(lp195
I1
aF0.00444
asS'epal0.30'
p196
(lp197
I1
aF0.02783
asg15
(lp198
I1
aF8e-05
asS'epal0.01'
p199
(lp200
I1
aF0.00834
assg33
(dp201
g5
(lp202
I1
aF0.00095
asS'epal0.12'
p203
(lp204
I1
aF0.00081
asS'epal0.20'
p205
(lp206
I1
aF0.00101
asS'epal0.04'
p207
(lp208
I1
aF0.00078
asS'epal0.30'
p209
(lp210
I1
aF0.00095
asg15
(lp211
I1
aF0.001
asS'epal0.01'
p212
(lp213
I1
aF0.0007
assg47
(dp214
g5
(lp215
I1
aF0.0
asS'epal0.12'
p216
(lp217
I1
aF0.0
asS'epal0.20'
p218
(lp219
I1
aF0.0
asS'epal0.04'
p220
(lp221
I1
aF0.0
asS'epal0.30'
p222
(lp223
I1
aF0.0
asg15
(lp224
I1
aF0.0
asS'epal0.01'
p225
(lp226
I1
aF0.0
assg61
(dp227
g5
(lp228
I2
aF0.02895
asS'epal0.12'
p229
(lp230
I2
aF0.03284
asS'epal0.20'
p231
(lp232
I1
aF0.01534
asS'epal0.04'
p233
(lp234
I1
aF0.00827
asS'epal0.30'
p235
(lp236
I2
aF0.02895
asg15
(lp237
I1
aF0.00991
asS'epal0.01'
p238
(lp239
I1
aF0.01035
assg75
(dp240
g5
(lp241
I1
aF0.00014
asS'epal0.12'
p242
(lp243
I1
aF0.00012
asS'epal0.20'
p244
(lp245
I1
aF0.00018
asS'epal0.04'
p246
(lp247
I1
aF0.0
asS'epal0.30'
p248
(lp249
I1
aF0.00014
asg15
(lp250
I1
aF0.0
asS'epal0.01'
p251
(lp252
I1
aF0.0
assg89
(dp253
g5
(lp254
I1
aF0.00043
asS'epal0.12'
p255
(lp256
I1
aF0.00049
asS'epal0.20'
p257
(lp258
I1
aF0.00051
asS'epal0.04'
p259
(lp260
I1
aF0.00023
asS'epal0.30'
p261
(lp262
I1
aF0.00043
asg15
(lp263
I1
aF0.0061
asS'epal0.01'
p264
(lp265
I1
aF0.00027
assg103
(dp266
g5
(lp267
I1
aF0.00022
asS'epal0.12'
p268
(lp269
I1
aF0.00017
asS'epal0.20'
p270
(lp271
I1
aF0.00012
asS'epal0.04'
p272
(lp273
I1
aF0.0001
asS'epal0.30'
p274
(lp275
I1
aF0.00022
asg15
(lp276
I1
aF0.0001
asS'epal0.01'
p277
(lp278
I1
aF0.00011
assg117
(dp279
g5
(lp280
I1
aF0.00153
asS'epal0.12'
p281
(lp282
I1
aF0.00286
asS'epal0.20'
p283
(lp284
I1
aF0.00278
asS'epal0.04'
p285
(lp286
I1
aF0.00341
asS'epal0.30'
p287
(lp288
I1
aF0.00153
asg15
(lp289
I1
aF0.0002
asS'epal0.01'
p290
(lp291
I1
aF0.00158
assg131
(dp292
g5
(lp293
I1
aF0.00081
asS'epal0.12'
p294
(lp295
I1
aF0.00051
asS'epal0.20'
p296
(lp297
I1
aF0.00072
asS'epal0.04'
p298
(lp299
I1
aF0.00079
asS'epal0.30'
p300
(lp301
I1
aF0.00081
asg15
(lp302
I1
aF0.00031
asS'epal0.01'
p303
(lp304
I1
aF0.00059
assg145
(dp305
g5
(lp306
I1
aF0.0012
asS'epal0.12'
p307
(lp308
I1
aF0.00194
asS'epal0.20'
p309
(lp310
I1
aF0.00138
asS'epal0.04'
p311
(lp312
I1
aF0.00138
asS'epal0.30'
p313
(lp314
I1
aF0.0012
asg15
(lp315
I1
aF0.00055
asS'epal0.01'
p316
(lp317
I1
aF0.00119
assg159
(dp318
g5
(lp319
I1
aF0.01685
asS'epal0.12'
p320
(lp321
I1
aF0.00536
asS'epal0.20'
p322
(lp323
I1
aF0.00239
asS'epal0.04'
p324
(lp325
I1
aF0.00244
asS'epal0.30'
p326
(lp327
I1
aF0.01685
asg15
(lp328
I1
aF0.00824
asS'epal0.01'
p329
(lp330
I1
aF0.00017
asssS'igd'
p331
(dp332
g3
(dp333
g5
(lp334
I1
aF0.00731
asS'epal0.12'
p335
(lp336
I1
aF0.00237
asS'epal0.20'
p337
(lp338
I1
aF0.00579
asS'epal0.04'
p339
(lp340
I1
aF0.0026
asS'epal0.30'
p341
(lp342
I1
aF0.00731
asg15
(lp343
I1
aF0.01404
asS'epal0.01'
p344
(lp345
I1
aF0.00176
assg19
(dp346
g5
(lp347
I1
aF0.02783
asS'epal0.12'
p348
(lp349
I1
aF0.00281
asS'epal0.20'
p350
(lp351
I1
aF0.00869
asS'epal0.04'
p352
(lp353
I1
aF0.00444
asS'epal0.30'
p354
(lp355
I1
aF0.02783
asg15
(lp356
I1
aF8e-05
asS'epal0.01'
p357
(lp358
I1
aF0.00834
assg33
(dp359
g5
(lp360
I1
aF0.00194
asS'epal0.12'
p361
(lp362
I1
aF0.0018
asS'epal0.20'
p363
(lp364
I1
aF0.00185
asS'epal0.04'
p365
(lp366
I1
aF0.00124
asS'epal0.30'
p367
(lp368
I1
aF0.00194
asg15
(lp369
I1
aF0.00884
asS'epal0.01'
p370
(lp371
I1
aF0.00138
assg47
(dp372
g5
(lp373
I1
aF0.00023
asS'epal0.12'
p374
(lp375
I1
aF0.00014
asS'epal0.20'
p376
(lp377
I1
aF0.00021
asS'epal0.04'
p378
(lp379
I1
aF0.00013
asS'epal0.30'
p380
(lp381
I1
aF0.00023
asg15
(lp382
I1
aF3e-05
asS'epal0.01'
p383
(lp384
I1
aF0.00013
assg61
(dp385
g5
(lp386
I1
aF0.00764
asS'epal0.12'
p387
(lp388
I1
aF0.00674
asS'epal0.20'
p389
(lp390
I1
aF0.00718
asS'epal0.04'
p391
(lp392
I1
aF0.00658
asS'epal0.30'
p393
(lp394
I1
aF0.00764
asg15
(lp395
I1
aF0.00886
asS'epal0.01'
p396
(lp397
I1
aF0.00662
assg75
(dp398
g5
(lp399
I1
aF0.00342
asS'epal0.12'
p400
(lp401
I1
aF0.001
asS'epal0.20'
p402
(lp403
I1
aF0.00129
asS'epal0.04'
p404
(lp405
I1
aF0.00074
asS'epal0.30'
p406
(lp407
I1
aF0.00342
asg15
(lp408
I1
aF0.00303
asS'epal0.01'
p409
(lp410
I1
aF0.00022
assg89
(dp411
g5
(lp412
I1
aF0.00632
asS'epal0.12'
p413
(lp414
I1
aF0.00389
asS'epal0.20'
p415
(lp416
I1
aF0.00481
asS'epal0.04'
p417
(lp418
I1
aF0.00306
asS'epal0.30'
p419
(lp420
I1
aF0.00632
asg15
(lp421
I2
aF0.01787
asS'epal0.01'
p422
(lp423
I1
aF0.00302
assg103
(dp424
g5
(lp425
I1
aF0.00173
asS'epal0.12'
p426
(lp427
I1
aF0.00202
asS'epal0.20'
p428
(lp429
I1
aF0.0016
asS'epal0.04'
p430
(lp431
I1
aF0.00138
asS'epal0.30'
p432
(lp433
I1
aF0.00173
asg15
(lp434
I1
aF0.00191
asS'epal0.01'
p435
(lp436
I1
aF0.00173
assg117
(dp437
g5
(lp438
I1
aF0.00217
asS'epal0.12'
p439
(lp440
I1
aF0.00337
asS'epal0.20'
p441
(lp442
I1
aF0.00215
asS'epal0.04'
p443
(lp444
I1
aF0.00335
asS'epal0.30'
p445
(lp446
I1
aF0.00217
asg15
(lp447
I1
aF0.00042
asS'epal0.01'
p448
(lp449
I1
aF0.00244
assg131
(dp450
g5
(lp451
I1
aF0.00447
asS'epal0.12'
p452
(lp453
I1
aF0.00444
asS'epal0.20'
p454
(lp455
I1
aF0.0049
asS'epal0.04'
p456
(lp457
I1
aF0.00466
asS'epal0.30'
p458
(lp459
I1
aF0.00447
asg15
(lp460
I1
aF0.00293
asS'epal0.01'
p461
(lp462
I1
aF0.00383
assg145
(dp463
g5
(lp464
I1
aF0.00777
asS'epal0.12'
p465
(lp466
I1
aF0.00741
asS'epal0.20'
p467
(lp468
I1
aF0.00825
asS'epal0.04'
p469
(lp470
I1
aF0.00495
asS'epal0.30'
p471
(lp472
I1
aF0.00777
asg15
(lp473
I2
aF0.02196
asS'epal0.01'
p474
(lp475
I1
aF0.00381
assg159
(dp476
g5
(lp477
I1
aF0.00582
asS'epal0.12'
p478
(lp479
I1
aF0.00427
asS'epal0.20'
p480
(lp481
I1
aF0.00239
asS'epal0.04'
p482
(lp483
I1
aF0.00119
asS'epal0.30'
p484
(lp485
I1
aF0.00582
asg15
(lp486
I1
aF0.00674
asS'epal0.01'
p487
(lp488
I1
aF0.00023
asss.