(dp0
S'evals'
p1
(dp2
S'POM3C_dataset2'
p3
(dp4
S'SWAY'
p5
(lp6
I2
aF70.0
asS'AL2'
p7
(lp8
I1
aF33.0
asS'NSGAII'
p9
(lp10
I3
aF2100.0
asS'SPEA2'
p11
(lp12
I3
aF2100.0
assS'POM3C_dataset1'
p13
(dp14
g5
(lp15
I2
aF70.0
asg7
(lp16
I1
aF34.0
asg9
(lp17
I3
aF2100.0
asg11
(lp18
I3
aF2100.0
assS'POM3D_dataset2'
p19
(dp20
g5
(lp21
I2
aF70.0
asg7
(lp22
I1
aF30.0
asg9
(lp23
I3
aF2100.0
asg11
(lp24
I3
aF2100.0
assS'POM3A_dataset1'
p25
(dp26
g5
(lp27
I2
aF70.0
asg7
(lp28
I1
aF33.0
asg9
(lp29
I3
aF2100.0
asg11
(lp30
I3
aF2100.0
assS'POM3A_dataset2'
p31
(dp32
g5
(lp33
I2
aF70.0
asg7
(lp34
I1
aF31.0
asg9
(lp35
I3
aF2100.0
asg11
(lp36
I3
aF2100.0
assS'POM3B_dataset2'
p37
(dp38
g5
(lp39
I2
aF70.0
asg7
(lp40
I1
aF31.0
asg9
(lp41
I3
aF2100.0
asg11
(lp42
I3
aF2100.0
assS'POM3D_dataset1'
p43
(dp44
g5
(lp45
I2
aF70.0
asg7
(lp46
I1
aF33.0
asg9
(lp47
I3
aF2100.0
asg11
(lp48
I3
aF2100.0
assS'POM3B_dataset1'
p49
(dp50
g5
(lp51
I2
aF70.0
asg7
(lp52
I1
aF32.0
asg9
(lp53
I3
aF2100.0
asg11
(lp54
I3
aF2100.0
asssS'gd'
p55
(dp56
g3
(dp57
g5
(lp58
I3
aF0.20585
asg7
(lp59
I2
aF0.07795
asg9
(lp60
I1
aF0.01233
asg11
(lp61
I1
aF0.01675
assg13
(dp62
g5
(lp63
I2
aF0.05086
asg7
(lp64
I1
aF0.00838
asg9
(lp65
I1
aF0.00389
asg11
(lp66
I1
aF0.00542
assg19
(dp67
g5
(lp68
I3
aF0.20538
asg7
(lp69
I1
aF5e-05
asg9
(lp70
I2
aF0.02718
asg11
(lp71
I2
aF0.02147
assg25
(dp72
g5
(lp73
I2
aF0.01435
asg7
(lp74
I1
aF0.00119
asg9
(lp75
I1
aF0.00083
asg11
(lp76
I1
aF0.00101
assg31
(dp77
g5
(lp78
I2
aF0.24954
asg7
(lp79
I1
aF0.01332
asg9
(lp80
I1
aF0.06628
asg11
(lp81
I1
aF0.05436
assg37
(dp82
g5
(lp83
I2
aF0.28058
asg7
(lp84
I1
aF0.01134
asg9
(lp85
I1
aF0.05276
asg11
(lp86
I1
aF0.02224
assg43
(dp87
g5
(lp88
I2
aF0.01716
asg7
(lp89
I1
aF0.00248
asg9
(lp90
I1
aF0.00218
asg11
(lp91
I1
aF0.00466
assg49
(dp92
g5
(lp93
I2
aF0.02665
asg7
(lp94
I1
aF0.0025
asg9
(lp95
I1
aF0.00982
asg11
(lp96
I1
aF0.01257
asssS'igd'
p97
(dp98
g3
(dp99
g7
(lp100
I2
aF0.05985
asg5
(lp101
I2
aF0.05142
asg9
(lp102
I1
aF0.00062
asg11
(lp103
I1
aF0.00065
assg13
(dp104
g7
(lp105
I1
aF0.01023
asg5
(lp106
I1
aF0.00583
asg9
(lp107
I1
aF0.00098
asg11
(lp108
I1
aF0.00094
assg19
(dp109
g7
(lp110
I1
aF5e-05
asg5
(lp111
I1
aF4e-05
asg9
(lp112
I1
aF0.0
asg11
(lp113
I1
aF0.0
assg25
(dp114
g7
(lp115
I2
aF0.10305
asg5
(lp116
I1
aF0.02199
asg9
(lp117
I1
aF0.00818
asg11
(lp118
I1
aF0.01358
assg31
(dp119
g5
(lp120
I1
aF0.00365
asg7
(lp121
I1
aF0.00125
asg9
(lp122
I1
aF0.0
asg11
(lp123
I1
aF0.0
assg37
(dp124
g7
(lp125
I1
aF0.00361
asg5
(lp126
I1
aF0.00175
asg9
(lp127
I1
aF0.0
asg11
(lp128
I1
aF0.0
assg43
(dp129
g7
(lp130
I2
aF0.30814
asg5
(lp131
I2
aF0.26217
asg9
(lp132
I1
aF8e-05
asg11
(lp133
I1
aF8e-05
assg49
(dp134
g7
(lp135
I1
aF0.00622
asg5
(lp136
I1
aF0.00207
asg9
(lp137
I1
aF0.0001
asg11
(lp138
I1
aF0.00012
asss.