(dp0
S'evals'
p1
(dp2
S'POM3D'
p3
(dp4
S'MOEAD'
p5
(lp6
I4
aF2100.0
asS'SPEA2'
p7
(lp8
I4
aF2100.0
asS'AL2'
p9
(lp10
I1
aF47.0
asS'AL5'
p11
(lp12
I3
aF1102.0
asS'SWAY'
p13
(lp14
I2
aF70.0
asS'NSGAII'
p15
(lp16
I4
aF2100.0
assS'POM3A'
p17
(dp18
g5
(lp19
I4
aF2100.0
asg7
(lp20
I4
aF2100.0
asg9
(lp21
I1
aF47.0
asg11
(lp22
I3
aF102.0
asg13
(lp23
I2
aF70.0
asg15
(lp24
I4
aF2100.0
assS'POM3B'
p25
(dp26
g5
(lp27
I4
aF2100.0
asg7
(lp28
I4
aF2100.0
asg9
(lp29
I1
aF52.0
asg11
(lp30
I3
aF103.0
asg13
(lp31
I2
aF70.0
asg15
(lp32
I4
aF2100.0
assS'POM3C'
p33
(dp34
g5
(lp35
I4
aF2100.0
asg7
(lp36
I4
aF2100.0
asg9
(lp37
I1
aF60.0
asg11
(lp38
I3
aF103.0
asg13
(lp39
I2
aF70.0
asg15
(lp40
I4
aF2100.0
asssS'gd'
p41
(dp42
g3
(dp43
g5
(lp44
I1
aF0.13429
asg7
(lp45
I1
aF0.108
asg9
(lp46
I1
aF0.05515
asg11
(lp47
I2
aF0.21025
asg13
(lp48
I2
aF0.21682
asg15
(lp49
I1
aF0.11453
assg17
(dp50
g5
(lp51
I2
aF0.03095
asg7
(lp52
I2
aF0.02309
asg9
(lp53
I1
aF0.00413
asg11
(lp54
I2
aF0.03608
asg13
(lp55
I3
aF0.05187
asg15
(lp56
I2
aF0.02115
assg25
(dp57
g5
(lp58
I1
aF0.10135
asg7
(lp59
I2
aF0.20325
asg9
(lp60
I1
aF0.14276
asg11
(lp61
I2
aF0.22117
asg13
(lp62
I2
aF0.21287
asg15
(lp63
I2
aF0.20667
assg33
(dp64
g5
(lp65
I1
aF0.02858
asg7
(lp66
I1
aF0.01362
asg9
(lp67
I1
aF0.02559
asg11
(lp68
I2
aF0.04161
asg13
(lp69
I2
aF0.04138
asg15
(lp70
I1
aF0.0147
asssS'igd'
p71
(dp72
g3
(dp73
g5
(lp74
I3
aF0.59548
asg7
(lp75
I1
aF9e-05
asg13
(lp76
I4
aF0.67744
asg11
(lp77
I2
aF0.2433
asg9
(lp78
I4
aF0.78155
asg15
(lp79
I1
aF9e-05
assg17
(dp80
g5
(lp81
I2
aF0.03161
asg7
(lp82
I1
aF0.00787
asg13
(lp83
I1
aF0.00984
asg11
(lp84
I1
aF0.0035
asg9
(lp85
I3
aF0.05382
asg15
(lp86
I1
aF0.00682
assg25
(dp87
g5
(lp88
I3
aF0.07011
asg7
(lp89
I1
aF0.01219
asg13
(lp90
I3
aF0.06902
asg11
(lp91
I2
aF0.04581
asg9
(lp92
I4
aF0.18436
asg15
(lp93
I1
aF0.00575
assg33
(dp94
g5
(lp95
I3
aF0.14041
asg7
(lp96
I1
aF0.01507
asg13
(lp97
I2
aF0.04667
asg11
(lp98
I1
aF0.02203
asg9
(lp99
I2
aF0.04846
asg15
(lp100
I1
aF0.01387
asss.