(dp0
S'evals'
p1
(dp2
S'POM3D'
p3
(dp4
S'SWAY'
p5
(lp6
I2
aF70.0
asS'AL2'
p7
(lp8
I1
aF47.0
asS'NSGAII'
p9
(lp10
I3
aF2100.0
asS'SPEA2'
p11
(lp12
I3
aF2100.0
assS'POM3A'
p13
(dp14
g5
(lp15
I2
aF70.0
asg7
(lp16
I1
aF47.0
asg9
(lp17
I3
aF2100.0
asg11
(lp18
I3
aF2100.0
assS'POM3B'
p19
(dp20
g5
(lp21
I2
aF70.0
asg7
(lp22
I1
aF52.0
asg9
(lp23
I3
aF2100.0
asg11
(lp24
I3
aF2100.0
assS'POM3C'
p25
(dp26
g5
(lp27
I2
aF70.0
asg7
(lp28
I1
aF60.0
asg9
(lp29
I3
aF2100.0
asg11
(lp30
I3
aF2100.0
asssS'gd'
p31
(dp32
g3
(dp33
g5
(lp34
I2
aF0.21682
asg7
(lp35
I1
aF0.05515
asg9
(lp36
I1
aF0.11453
asg11
(lp37
I1
aF0.108
assg13
(dp38
g5
(lp39
I2
aF0.05187
asg7
(lp40
I1
aF0.00413
asg9
(lp41
I1
aF0.02115
asg11
(lp42
I1
aF0.02309
assg19
(dp43
g5
(lp44
I2
aF0.21287
asg7
(lp45
I1
aF0.14276
asg9
(lp46
I2
aF0.20667
asg11
(lp47
I2
aF0.20325
assg25
(dp48
g5
(lp49
I2
aF0.04138
asg7
(lp50
I1
aF0.02559
asg9
(lp51
I1
aF0.0147
asg11
(lp52
I1
aF0.01362
asssS'igd'
p53
(dp54
g3
(dp55
g7
(lp56
I2
aF0.78155
asg5
(lp57
I2
aF0.67744
asg9
(lp58
I1
aF9e-05
asg11
(lp59
I1
aF9e-05
assg13
(dp60
g7
(lp61
I2
aF0.05382
asg5
(lp62
I1
aF0.00984
asg9
(lp63
I1
aF0.00682
asg11
(lp64
I1
aF0.00787
assg19
(dp65
g7
(lp66
I3
aF0.18436
asg5
(lp67
I2
aF0.06902
asg9
(lp68
I1
aF0.00575
asg11
(lp69
I1
aF0.01219
assg25
(dp70
g7
(lp71
I2
aF0.04846
asg5
(lp72
I2
aF0.04667
asg9
(lp73
I1
aF0.01387
asg11
(lp74
I1
aF0.01507
asss.