(dp0
S'evals'
p1
(dp2
S'POM3D'
p3
(dp4
S'Flash4'
p5
(lp6
I2
aF59.0
asS'SWAY'
p7
(lp8
I3
aF70.0
asS'AL2'
p9
(lp10
I1
aF47.0
asS'NSGAII'
p11
(lp12
I4
aF2100.0
asS'SPEA2'
p13
(lp14
I4
aF2100.0
assS'POM3A'
p15
(dp16
g5
(lp17
I2
aF59.0
asg7
(lp18
I3
aF70.0
asg9
(lp19
I1
aF47.0
asg11
(lp20
I4
aF2100.0
asg13
(lp21
I4
aF2100.0
assS'POM3B'
p22
(dp23
g5
(lp24
I2
aF59.0
asg7
(lp25
I3
aF70.0
asg9
(lp26
I1
aF52.0
asg11
(lp27
I4
aF2100.0
asg13
(lp28
I4
aF2100.0
assS'POM3C'
p29
(dp30
g5
(lp31
I1
aF59.0
asg7
(lp32
I2
aF70.0
asg9
(lp33
I1
aF60.0
asg11
(lp34
I3
aF2100.0
asg13
(lp35
I3
aF2100.0
asssS'gd'
p36
(dp37
g3
(dp38
g5
(lp39
I1
aF0.07865
asg7
(lp40
I2
aF0.21682
asg9
(lp41
I1
aF0.05515
asg11
(lp42
I1
aF0.11453
asg13
(lp43
I1
aF0.108
assg15
(dp44
g5
(lp45
I1
aF0.02286
asg7
(lp46
I2
aF0.05187
asg9
(lp47
I1
aF0.00413
asg11
(lp48
I1
aF0.02115
asg13
(lp49
I1
aF0.02309
assg22
(dp50
g5
(lp51
I1
aF0.14321
asg7
(lp52
I2
aF0.21287
asg9
(lp53
I1
aF0.14276
asg11
(lp54
I2
aF0.20667
asg13
(lp55
I2
aF0.20325
assg29
(dp56
g5
(lp57
I2
aF0.04401
asg7
(lp58
I2
aF0.04138
asg9
(lp59
I1
aF0.02559
asg11
(lp60
I1
aF0.0147
asg13
(lp61
I1
aF0.01362
asssS'igd'
p62
(dp63
g3
(dp64
g5
(lp65
I3
aF0.73759
asg9
(lp66
I3
aF0.78155
asg7
(lp67
I2
aF0.67744
asg11
(lp68
I1
aF9e-05
asg13
(lp69
I1
aF9e-05
assg15
(dp70
g5
(lp71
I2
aF0.03178
asg9
(lp72
I3
aF0.05382
asg7
(lp73
I1
aF0.00984
asg11
(lp74
I1
aF0.00682
asg13
(lp75
I1
aF0.00787
assg22
(dp76
g5
(lp77
I3
aF0.14921
asg9
(lp78
I3
aF0.18436
asg7
(lp79
I2
aF0.06902
asg11
(lp80
I1
aF0.00575
asg13
(lp81
I1
aF0.01219
assg29
(dp82
g5
(lp83
I2
aF0.04717
asg9
(lp84
I2
aF0.04846
asg7
(lp85
I2
aF0.04667
asg11
(lp86
I1
aF0.01387
asg13
(lp87
I1
aF0.01507
asss.