(dp0
S'evals'
p1
(dp2
S'POM3D'
p3
(dp4
S'SWAY'
p5
(lp6
I3
aF70.0
asS'AL2'
p7
(lp8
I1
aF35.0
asS'NSGAII'
p9
(lp10
I4
aF2100.0
asS'SPEA2'
p11
(lp12
I4
aF2100.0
asS'Flash3'
p13
(lp14
I2
aF59.0
assS'POM3A'
p15
(dp16
g5
(lp17
I3
aF70.0
asg7
(lp18
I1
aF40.0
asg9
(lp19
I4
aF2100.0
asg11
(lp20
I4
aF2100.0
asg13
(lp21
I2
aF59.0
assS'POM3B'
p22
(dp23
g5
(lp24
I3
aF70.0
asg7
(lp25
I1
aF38.0
asg9
(lp26
I4
aF2100.0
asg11
(lp27
I4
aF2100.0
asg13
(lp28
I2
aF59.0
assS'POM3C'
p29
(dp30
g5
(lp31
I3
aF70.0
asg7
(lp32
I1
aF39.0
asg9
(lp33
I4
aF2100.0
asg11
(lp34
I4
aF2100.0
asg13
(lp35
I2
aF59.0
asssS'gd'
p36
(dp37
g3
(dp38
g5
(lp39
I2
aF0.21682
asg7
(lp40
I1
aF0.10327
asg9
(lp41
I1
aF0.11453
asg11
(lp42
I1
aF0.108
asg13
(lp43
I1
aF0.07514
assg15
(dp44
g5
(lp45
I2
aF0.05187
asg7
(lp46
I1
aF0.01926
asg9
(lp47
I1
aF0.02115
asg11
(lp48
I1
aF0.02309
asg13
(lp49
I1
aF0.01759
assg22
(dp50
g5
(lp51
I2
aF0.21287
asg7
(lp52
I1
aF0.16042
asg9
(lp53
I2
aF0.20667
asg11
(lp54
I2
aF0.20325
asg13
(lp55
I1
aF0.15032
assg29
(dp56
g5
(lp57
I2
aF0.04138
asg7
(lp58
I2
aF0.0408
asg9
(lp59
I1
aF0.0147
asg11
(lp60
I1
aF0.01362
asg13
(lp61
I2
aF0.0351
asssS'igd'
p62
(dp63
g3
(dp64
g7
(lp65
I3
aF0.74726
asg5
(lp66
I2
aF0.67744
asg9
(lp67
I1
aF9e-05
asg11
(lp68
I1
aF9e-05
asg13
(lp69
I3
aF0.78607
assg15
(dp70
g7
(lp71
I2
aF0.03529
asg5
(lp72
I1
aF0.00984
asg9
(lp73
I1
aF0.00682
asg11
(lp74
I1
aF0.00787
asg13
(lp75
I2
aF0.02033
assg22
(dp76
g7
(lp77
I3
aF0.2217
asg5
(lp78
I2
aF0.06902
asg9
(lp79
I1
aF0.00575
asg11
(lp80
I1
aF0.01219
asg13
(lp81
I3
aF0.15015
assg29
(dp82
g7
(lp83
I2
aF0.04951
asg5
(lp84
I2
aF0.04667
asg9
(lp85
I1
aF0.01387
asg11
(lp86
I1
aF0.01507
asg13
(lp87
I2
aF0.0442
asss.