(dp0
S'../../Data/noc_CM_log.csv'
p1
(dp2
S'pf'
p3
(lp4
(lp5
F6.144515496
aF4.923426501000001
aa(lp6
F6.144515496
aF4.923426501000001
aa(lp7
F6.24014257
aF4.89476559
aa(lp8
F6.415403762
aF4.83712609
aa(lp9
F6.713324647
aF4.726992878
aa(lp10
F6.713324647
aF4.726992878
aa(lp11
F6.713338396
aF4.726862484
aa(lp12
F7.254650728
aF4.68779634
aa(lp13
F7.254650728
aF4.68779634
aa(lp14
F7.254650728
aF4.68779634
aa(lp15
F7.255406313
aF4.676592316
aa(lp16
F7.285531686000001
aF4.401580549
aa(lp17
F7.285531686000001
aF4.401580549
aa(lp18
F7.285531686000001
aF4.401580549
aa(lp19
F7.28555018
aF4.401360963999999
aa(lp20
F7.835102979
aF4.33936051
aa(lp21
F7.835102979
aF4.33936051
aa(lp22
F7.835102979
aF4.33936051
aa(lp23
F7.836833049
aF4.3091938160000005
aassS'../../Data/wc-3d-c4.csv'
p24
(dp25
g3
(lp26
(lp27
F5042.6
aF1.9422
aa(lp28
F5137.8
aF1.9503
aa(lp29
F5190.9
aF1.9543
aa(lp30
F5283.2
aF1.9688
aa(lp31
F26744.0
aF1486.5
aa(lp32
F28155.0
aF1546.7
aa(lp33
F36750.0
aF94553.0
aassS'../../Data/wc+sol-3d-c4.csv'
p34
(dp35
g3
(lp36
(lp37
F3983.3
aF2.585
aa(lp38
F4032.0
aF2.6341
aa(lp39
F4097.1
aF2.6345
aa(lp40
F6209.4
aF83712.0
aa(lp41
F35978.0
aF85576.0
aa(lp42
F41319.0
aF90593.0
aa(lp43
F48918.0
aF93904.0
aassS'../../Data/wc-6d-c1.csv'
p44
(dp45
g3
(lp46
(lp47
F72.75
aF101.46
aa(lp48
F78.75
aF102.09
aa(lp49
F84.529
aF218.24
aa(lp50
F2650.9
aF14945.0
aa(lp51
F2839.4
aF15685.0
aa(lp52
F3895.5
aF26230.0
aa(lp53
F4442.8
aF42230.0
aa(lp54
F4457.9
aF46122.0
aa(lp55
F5004.2
aF49673.0
aa(lp56
F5908.3
aF50901.0
aa(lp57
F6389.0
aF52019.0
aa(lp58
F6830.5
aF53402.0
aa(lp59
F7718.5
aF55209.0
aassS'../../Data/wc-c3-3d-c1.csv'
p60
(dp61
g3
(lp62
(lp63
F121.5
aF49172.0
aa(lp64
F129.67
aF52729.0
aa(lp65
F160.0
aF57645.0
aassS'../../Data/llvm_input.csv'
p66
(dp67
g3
(lp68
(lp69
F266.32
aF11.0
aa(lp70
F267.43
aF12.0
aa(lp71
F269.47
aF18.0
aa(lp72
F270.4
aF19.0
aassS'../../Data/wc-c1-3d-c1.csv'
p73
(dp74
g3
(lp75
(lp76
F288.56
aF7908.9
aa(lp77
F310.06
aF9421.0
aassS'../../Data/rs-6d-c3.csv'
p78
(dp79
g3
(lp80
(lp81
F68.062
aF24068.0
aa(lp82
F72.188
aF26635.0
aa(lp83
F74.938
aF26747.0
aa(lp84
F81.5
aF28030.0
aa(lp85
F81.882
aF28368.0
aa(lp86
F367.6
aF30834.0
aa(lp87
F388.29
aF31187.0
aa(lp88
F398.4
aF33486.0
aa(lp89
F1948.5
aF34733.0
aassS'../../Data/wc-5d-c5.csv'
p90
(dp91
g3
(lp92
(lp93
F2122.2
aF167.26
aa(lp94
F7600.2
aF259.56
aa(lp95
F7730.2
aF405.5
aassS'../../Data/wc+rs-3d-c4.csv'
p96
(dp97
g3
(lp98
(lp99
F4275.4
aF2.3254
aa(lp100
F4382.4
aF2.3919
aa(lp101
F4508.5
aF2.4379
aa(lp102
F7977.6
aF78965.0
aa(lp103
F9136.9
aF82037.0
aa(lp104
F42537.0
aF85607.0
aa(lp105
F54006.0
aF89234.0
aa(lp106
F55320.0
aF91290.0
aa(lp107
F57603.0
aF99722.0
aassS'../../Data/wc+wc-3d-c4.csv'
p108
(dp109
g3
(lp110
(lp111
F3964.2
aF2.5503
aa(lp112
F4156.9
aF2.5688
aa(lp113
F4160.1
aF2.6057
aa(lp114
F4294.7
aF4.7793
aa(lp115
F7006.2
aF15.859000000000002
aa(lp116
F7217.6
aF79248.0
aa(lp117
F43406.0
aF83233.0
aa(lp118
F44107.0
aF94541.0
aa(lp119
F45856.0
aF105000.0
aassS'../../Data/MONRP_50_4_5_0_90.csv'
p120
(dp121
g3
(lp122
(lp123
F95609.0
aF599.0
aF99387.0
aa(lp124
F95610.0
aF605.0
aF99358.0
aa(lp125
F95649.0
aF600.0
aF99381.0
aa(lp126
F95673.0
aF604.0
aF99369.0
aa(lp127
F95745.0
aF603.0
aF99380.0
aa(lp128
F95752.0
aF599.0
aF99378.0
aa(lp129
F95753.0
aF599.0
aF99376.0
aa(lp130
F95804.0
aF601.0
aF99373.0
aa(lp131
F95824.0
aF583.0
aF99419.0
aa(lp132
F95841.0
aF590.0
aF99407.0
aa(lp133
F95857.0
aF582.0
aF99413.0
aa(lp134
F95891.0
aF588.0
aF99412.0
aa(lp135
F95906.0
aF581.0
aF99413.0
aa(lp136
F95910.0
aF597.0
aF99404.0
aa(lp137
F95912.0
aF594.0
aF99395.0
aa(lp138
F95914.0
aF588.0
aF99396.0
aa(lp139
F95932.0
aF575.0
aF99426.0
aa(lp140
F95944.0
aF586.0
aF99391.0
aa(lp141
F95945.0
aF585.0
aF99408.0
aa(lp142
F95952.0
aF582.0
aF99409.0
aa(lp143
F95968.0
aF583.0
aF99401.0
aa(lp144
F95969.0
aF580.0
aF99415.0
aa(lp145
F95987.0
aF585.0
aF99387.0
aa(lp146
F96003.0
aF583.0
aF99399.0
aa(lp147
F96008.0
aF584.0
aF99391.0
aa(lp148
F96012.0
aF581.0
aF99412.0
aa(lp149
F96025.0
aF572.0
aF99431.0
aa(lp150
F96040.0
aF577.0
aF99416.0
aa(lp151
F96060.0
aF567.0
aF99436.0
aa(lp152
F96070.0
aF565.0
aF99433.0
aa(lp153
F96072.0
aF562.0
aF99443.0
aa(lp154
F96072.0
aF580.0
aF99413.0
aa(lp155
F96077.0
aF576.0
aF99424.0
aa(lp156
F96077.0
aF570.0
aF99428.0
aa(lp157
F96084.0
aF577.0
aF99398.0
aa(lp158
F96087.0
aF541.0
aF99465.0
aa(lp159
F96094.0
aF566.0
aF99430.0
aa(lp160
F96098.0
aF574.0
aF99423.0
aa(lp161
F96107.0
aF575.0
aF99417.0
aa(lp162
F96123.0
aF564.0
aF99432.0
aa(lp163
F96125.0
aF573.0
aF99422.0
aa(lp164
F96142.0
aF563.0
aF99442.0
aa(lp165
F96154.0
aF557.0
aF99455.0
aa(lp166
F96181.0
aF569.0
aF99429.0
aa(lp167
F96183.0
aF565.0
aF99410.0
aa(lp168
F96190.0
aF555.0
aF99448.0
aa(lp169
F96191.0
aF557.0
aF99447.0
aa(lp170
F96205.0
aF555.0
aF99443.0
aa(lp171
F96206.0
aF554.0
aF99451.0
aa(lp172
F96215.0
aF535.0
aF99477.0
aa(lp173
F96221.0
aF559.0
aF99438.0
aa(lp174
F96230.0
aF544.0
aF99462.0
aa(lp175
F96231.0
aF562.0
aF99435.0
aa(lp176
F96237.0
aF541.0
aF99464.0
aa(lp177
F96252.0
aF563.0
aF99433.0
aa(lp178
F96280.0
aF541.0
aF99461.0
aa(lp179
F96281.0
aF560.0
aF99437.0
aa(lp180
F96289.0
aF543.0
aF99459.0
aa(lp181
F96292.0
aF524.0
aF99486.0
aa(lp182
F96301.0
aF532.0
aF99480.0
aa(lp183
F96313.0
aF540.0
aF99474.0
aa(lp184
F96314.0
aF541.0
aF99459.0
aa(lp185
F96319.0
aF517.0
aF99486.0
aa(lp186
F96321.0
aF553.0
aF99458.0
aa(lp187
F96333.0
aF546.0
aF99451.0
aa(lp188
F96342.0
aF550.0
aF99450.0
aa(lp189
F96354.0
aF545.0
aF99452.0
aa(lp190
F96356.0
aF530.0
aF99483.0
aa(lp191
F96363.0
aF540.0
aF99465.0
aa(lp192
F96369.0
aF544.0
aF99446.0
aa(lp193
F96373.0
aF521.0
aF99484.0
aa(lp194
F96383.0
aF540.0
aF99445.0
aa(lp195
F96383.0
aF548.0
aF99437.0
aa(lp196
F96392.0
aF538.0
aF99455.0
aa(lp197
F96394.0
aF535.0
aF99474.0
aa(lp198
F96400.0
aF531.0
aF99474.0
aa(lp199
F96411.0
aF537.0
aF99460.0
aa(lp200
F96420.0
aF537.0
aF99452.0
aa(lp201
F96456.0
aF520.0
aF99482.0
aa(lp202
F96463.0
aF531.0
aF99469.0
aa(lp203
F96466.0
aF527.0
aF99475.0
aa(lp204
F96469.0
aF530.0
aF99472.0
aa(lp205
F96472.0
aF527.0
aF99474.0
aa(lp206
F96472.0
aF517.0
aF99482.0
aa(lp207
F96473.0
aF516.0
aF99501.0
aa(lp208
F96485.0
aF533.0
aF99464.0
aa(lp209
F96491.0
aF485.0
aF99527.0
aa(lp210
F96499.0
aF441.0
aF99549.0
aa(lp211
F96504.0
aF513.0
aF99509.0
aa(lp212
F96519.0
aF516.0
aF99480.0
aa(lp213
F96536.0
aF524.0
aF99478.0
aa(lp214
F96541.0
aF497.0
aF99522.0
aa(lp215
F96558.0
aF453.0
aF99543.0
aa(lp216
F96573.0
aF487.0
aF99517.0
aa(lp217
F96585.0
aF503.0
aF99501.0
aa(lp218
F96594.0
aF528.0
aF99469.0
aa(lp219
F96601.0
aF515.0
aF99489.0
aa(lp220
F96605.0
aF496.0
aF99510.0
aa(lp221
F96608.0
aF514.0
aF99470.0
aa(lp222
F96634.0
aF512.0
aF99479.0
aa(lp223
F96647.0
aF479.0
aF99533.0
aa(lp224
F96677.0
aF493.0
aF99500.0
aa(lp225
F96697.0
aF486.0
aF99515.0
aa(lp226
F96706.0
aF465.0
aF99539.0
aa(lp227
F96738.0
aF484.0
aF99524.0
aa(lp228
F96740.0
aF510.0
aF99497.0
aa(lp229
F96759.0
aF441.0
aF99545.0
aa(lp230
F96776.0
aF483.0
aF99523.0
aa(lp231
F96781.0
aF440.0
aF99558.0
aa(lp232
F96838.0
aF477.0
aF99530.0
aa(lp233
F96854.0
aF476.0
aF99517.0
aa(lp234
F96854.0
aF474.0
aF99533.0
aa(lp235
F96860.0
aF434.0
aF99543.0
aa(lp236
F96866.0
aF489.0
aF99510.0
aa(lp237
F96908.0
aF400.0
aF99574.0
aa(lp238
F96943.0
aF467.0
aF99488.0
aa(lp239
F96947.0
aF424.0
aF99542.0
aa(lp240
F96983.0
aF437.0
aF99540.0
aassS'../../Data/sort_256.csv'
p241
(dp242
g3
(lp243
(lp244
F7.087462841000001
aF3.866651431
aa(lp245
F7.098032083
aF2.858160813
aassS'../../Data/MONRP_50_4_5_0_110.csv'
p246
(dp247
g3
(lp248
(lp249
F95257.0
aF727.0
aF99466.0
aa(lp250
F95290.0
aF711.0
aF99479.0
aa(lp251
F95366.0
aF696.0
aF99502.0
aa(lp252
F95426.0
aF697.0
aF99494.0
aa(lp253
F95438.0
aF714.0
aF99477.0
aa(lp254
F95492.0
aF710.0
aF99478.0
aa(lp255
F95492.0
aF700.0
aF99493.0
aa(lp256
F95512.0
aF700.0
aF99488.0
aa(lp257
F95533.0
aF703.0
aF99487.0
aa(lp258
F95536.0
aF694.0
aF99498.0
aa(lp259
F95539.0
aF676.0
aF99518.0
aa(lp260
F95584.0
aF693.0
aF99501.0
aa(lp261
F95584.0
aF698.0
aF99493.0
aa(lp262
F95587.0
aF696.0
aF99495.0
aa(lp263
F95597.0
aF694.0
aF99496.0
aa(lp264
F95605.0
aF709.0
aF99476.0
aa(lp265
F95620.0
aF705.0
aF99485.0
aa(lp266
F95643.0
aF670.0
aF99530.0
aa(lp267
F95649.0
aF696.0
aF99493.0
aa(lp268
F95701.0
aF689.0
aF99514.0
aa(lp269
F95783.0
aF679.0
aF99517.0
aa(lp270
F95792.0
aF668.0
aF99527.0
aa(lp271
F95793.0
aF692.0
aF99507.0
aa(lp272
F95793.0
aF693.0
aF99486.0
aa(lp273
F95794.0
aF674.0
aF99521.0
aa(lp274
F95804.0
aF669.0
aF99525.0
aa(lp275
F95812.0
aF650.0
aF99550.0
aa(lp276
F95835.0
aF679.0
aF99510.0
aa(lp277
F95855.0
aF667.0
aF99529.0
aa(lp278
F95877.0
aF673.0
aF99516.0
aa(lp279
F95885.0
aF653.0
aF99543.0
aa(lp280
F95886.0
aF670.0
aF99513.0
aa(lp281
F95898.0
aF676.0
aF99512.0
aa(lp282
F95909.0
aF668.0
aF99511.0
aa(lp283
F95914.0
aF684.0
aF99508.0
aa(lp284
F95943.0
aF631.0
aF99565.0
aa(lp285
F95954.0
aF665.0
aF99533.0
aa(lp286
F95957.0
aF632.0
aF99558.0
aa(lp287
F95966.0
aF638.0
aF99555.0
aa(lp288
F95966.0
aF667.0
aF99519.0
aa(lp289
F95996.0
aF666.0
aF99530.0
aa(lp290
F96023.0
aF649.0
aF99548.0
aa(lp291
F96032.0
aF608.0
aF99586.0
aa(lp292
F96034.0
aF652.0
aF99541.0
aa(lp293
F96040.0
aF612.0
aF99580.0
aa(lp294
F96061.0
aF663.0
aF99539.0
aa(lp295
F96083.0
aF656.0
aF99527.0
aa(lp296
F96083.0
aF627.0
aF99567.0
aa(lp297
F96101.0
aF649.0
aF99544.0
aa(lp298
F96103.0
aF654.0
aF99528.0
aa(lp299
F96123.0
aF644.0
aF99554.0
aa(lp300
F96124.0
aF636.0
aF99557.0
aa(lp301
F96127.0
aF560.0
aF99614.0
aa(lp302
F96135.0
aF630.0
aF99563.0
aa(lp303
F96162.0
aF642.0
aF99541.0
aa(lp304
F96179.0
aF623.0
aF99577.0
aa(lp305
F96184.0
aF641.0
aF99548.0
aa(lp306
F96185.0
aF534.0
aF99635.0
aa(lp307
F96190.0
aF606.0
aF99581.0
aa(lp308
F96196.0
aF565.0
aF99609.0
aa(lp309
F96203.0
aF589.0
aF99600.0
aa(lp310
F96207.0
aF612.0
aF99579.0
aa(lp311
F96241.0
aF564.0
aF99612.0
aa(lp312
F96243.0
aF650.0
aF99538.0
aa(lp313
F96293.0
aF623.0
aF99573.0
aa(lp314
F96297.0
aF597.0
aF99593.0
aa(lp315
F96303.0
aF626.0
aF99571.0
aa(lp316
F96314.0
aF625.0
aF99558.0
aa(lp317
F96326.0
aF599.0
aF99592.0
aa(lp318
F96336.0
aF635.0
aF99557.0
aa(lp319
F96344.0
aF605.0
aF99582.0
aa(lp320
F96345.0
aF589.0
aF99594.0
aa(lp321
F96348.0
aF622.0
aF99563.0
aa(lp322
F96355.0
aF619.0
aF99559.0
aa(lp323
F96371.0
aF593.0
aF99585.0
aa(lp324
F96375.0
aF612.0
aF99563.0
aa(lp325
F96375.0
aF586.0
aF99596.0
aa(lp326
F96392.0
aF621.0
aF99556.0
aa(lp327
F96396.0
aF600.0
aF99578.0
aa(lp328
F96398.0
aF584.0
aF99592.0
aa(lp329
F96398.0
aF596.0
aF99580.0
aa(lp330
F96404.0
aF584.0
aF99591.0
aa(lp331
F96424.0
aF532.0
aF99628.0
aa(lp332
F96427.0
aF595.0
aF99579.0
aa(lp333
F96434.0
aF564.0
aF99608.0
aa(lp334
F96442.0
aF563.0
aF99611.0
aa(lp335
F96450.0
aF610.0
aF99573.0
aa(lp336
F96454.0
aF615.0
aF99558.0
aa(lp337
F96460.0
aF592.0
aF99588.0
aa(lp338
F96465.0
aF590.0
aF99588.0
aa(lp339
F96479.0
aF563.0
aF99610.0
aa(lp340
F96480.0
aF580.0
aF99604.0
aa(lp341
F96484.0
aF577.0
aF99603.0
aa(lp342
F96484.0
aF583.0
aF99599.0
aa(lp343
F96488.0
aF608.0
aF99565.0
aa(lp344
F96495.0
aF568.0
aF99599.0
aa(lp345
F96516.0
aF561.0
aF99604.0
aa(lp346
F96518.0
aF582.0
aF99588.0
aa(lp347
F96518.0
aF603.0
aF99569.0
aa(lp348
F96518.0
aF563.0
aF99603.0
aa(lp349
F96530.0
aF566.0
aF99602.0
aa(lp350
F96538.0
aF575.0
aF99596.0
aa(lp351
F96558.0
aF582.0
aF99586.0
aa(lp352
F96564.0
aF557.0
aF99609.0
aa(lp353
F96578.0
aF566.0
aF99601.0
aa(lp354
F96583.0
aF558.0
aF99605.0
aa(lp355
F96618.0
aF556.0
aF99616.0
aa(lp356
F96629.0
aF572.0
aF99590.0
aa(lp357
F96636.0
aF578.0
aF99588.0
aa(lp358
F96637.0
aF554.0
aF99601.0
aa(lp359
F96637.0
aF602.0
aF99575.0
aa(lp360
F96645.0
aF577.0
aF99572.0
aa(lp361
F96685.0
aF566.0
aF99600.0
aa(lp362
F96729.0
aF569.0
aF99589.0
aa(lp363
F96767.0
aF519.0
aF99636.0
aa(lp364
F96784.0
aF553.0
aF99618.0
aa(lp365
F96816.0
aF546.0
aF99627.0
aa(lp366
F96834.0
aF496.0
aF99650.0
aa(lp367
F96838.0
aF517.0
aF99639.0
aa(lp368
F96874.0
aF516.0
aF99647.0
aa(lp369
F96889.0
aF525.0
aF99635.0
aa(lp370
F96900.0
aF507.0
aF99634.0
aa(lp371
F96927.0
aF549.0
aF99624.0
aa(lp372
F96980.0
aF489.0
aF99657.0
aa(lp373
F97031.0
aF485.0
aF99660.0
aa(lp374
F97037.0
aF500.0
aF99627.0
aa(lp375
F97166.0
aF544.0
aF99622.0
aa(lp376
F97219.0
aF485.0
aF99653.0
aass.