(dp0
S'../../Data/noc_CM_log.csv'
p1
(dp2
S'pf'
p3
(lp4
(lp5
F6.144515496
aF4.923426501000001
aa(lp6
F6.144515496
aF4.923426501000001
aa(lp7
F6.24014257
aF4.89476559
aa(lp8
F6.415403762
aF4.83712609
aa(lp9
F6.713324647
aF4.726992878
aa(lp10
F6.713324647
aF4.726992878
aa(lp11
F6.713338396
aF4.726862484
aa(lp12
F7.254650728
aF4.68779634
aa(lp13
F7.254650728
aF4.68779634
aa(lp14
F7.254650728
aF4.68779634
aa(lp15
F7.255406313
aF4.676592316
aa(lp16
F7.285531686000001
aF4.401580549
aa(lp17
F7.285531686000001
aF4.401580549
aa(lp18
F7.285531686000001
aF4.401580549
aa(lp19
F7.28555018
aF4.401360963999999
aa(lp20
F7.835102979
aF4.33936051
aa(lp21
F7.835102979
aF4.33936051
aa(lp22
F7.835102979
aF4.33936051
aa(lp23
F7.836833049
aF4.3091938160000005
aassS'../../Data/wc-3d-c4.csv'
p24
(dp25
g3
(lp26
(lp27
F5042.6
aF1.9422
aa(lp28
F5137.8
aF1.9503
aa(lp29
F5190.9
aF1.9543
aa(lp30
F5283.2
aF1.9688
aa(lp31
F26744.0
aF1486.5
aa(lp32
F28155.0
aF1546.7
aa(lp33
F36750.0
aF94553.0
aassS'../../Data/wc+sol-3d-c4.csv'
p34
(dp35
g3
(lp36
(lp37
F3983.3
aF2.585
aa(lp38
F4032.0
aF2.6341
aa(lp39
F4097.1
aF2.6345
aa(lp40
F6209.4
aF83712.0
aa(lp41
F35978.0
aF85576.0
aa(lp42
F41319.0
aF90593.0
aa(lp43
F48918.0
aF93904.0
aassS'../../Data/wc-6d-c1.csv'
p44
(dp45
g3
(lp46
(lp47
F72.75
aF101.46
aa(lp48
F78.75
aF102.09
aa(lp49
F84.529
aF218.24
aa(lp50
F2650.9
aF14945.0
aa(lp51
F2839.4
aF15685.0
aa(lp52
F3895.5
aF26230.0
aa(lp53
F4442.8
aF42230.0
aa(lp54
F4457.9
aF46122.0
aa(lp55
F5004.2
aF49673.0
aa(lp56
F5908.3
aF50901.0
aa(lp57
F6389.0
aF52019.0
aa(lp58
F6830.5
aF53402.0
aa(lp59
F7718.5
aF55209.0
aassS'../../Data/wc-c3-3d-c1.csv'
p60
(dp61
g3
(lp62
(lp63
F121.5
aF49172.0
aa(lp64
F129.67
aF52729.0
aa(lp65
F160.0
aF57645.0
aassS'../../Data/llvm_input.csv'
p66
(dp67
g3
(lp68
(lp69
F266.32
aF11.0
aa(lp70
F267.43
aF12.0
aa(lp71
F269.47
aF18.0
aa(lp72
F270.4
aF19.0
aassS'../../Data/wc-c1-3d-c1.csv'
p73
(dp74
g3
(lp75
(lp76
F288.56
aF7908.9
aa(lp77
F310.06
aF9421.0
aassS'../../Data/rs-6d-c3.csv'
p78
(dp79
g3
(lp80
(lp81
F68.062
aF24068.0
aa(lp82
F72.188
aF26635.0
aa(lp83
F74.938
aF26747.0
aa(lp84
F81.5
aF28030.0
aa(lp85
F81.882
aF28368.0
aa(lp86
F367.6
aF30834.0
aa(lp87
F388.29
aF31187.0
aa(lp88
F398.4
aF33486.0
aa(lp89
F1948.5
aF34733.0
aassS'../../Data/wc-5d-c5.csv'
p90
(dp91
g3
(lp92
(lp93
F2122.2
aF167.26
aa(lp94
F7600.2
aF259.56
aa(lp95
F7730.2
aF405.5
aassS'../../Data/wc+rs-3d-c4.csv'
p96
(dp97
g3
(lp98
(lp99
F4275.4
aF2.3254
aa(lp100
F4382.4
aF2.3919
aa(lp101
F4508.5
aF2.4379
aa(lp102
F7977.6
aF78965.0
aa(lp103
F9136.9
aF82037.0
aa(lp104
F42537.0
aF85607.0
aa(lp105
F54006.0
aF89234.0
aa(lp106
F55320.0
aF91290.0
aa(lp107
F57603.0
aF99722.0
aassS'../../Data/wc+wc-3d-c4.csv'
p108
(dp109
g3
(lp110
(lp111
F3964.2
aF2.5503
aa(lp112
F4156.9
aF2.5688
aa(lp113
F4160.1
aF2.6057
aa(lp114
F4294.7
aF4.7793
aa(lp115
F7006.2
aF15.859000000000002
aa(lp116
F7217.6
aF79248.0
aa(lp117
F43406.0
aF83233.0
aa(lp118
F44107.0
aF94541.0
aa(lp119
F45856.0
aF105000.0
aassS'../../Data/sort_256.csv'
p120
(dp121
g3
(lp122
(lp123
F7.087462841000001
aF3.866651431
aa(lp124
F7.098032083
aF2.858160813
aass.