(dp0
S'../../Data/llvm_input.csv'
p1
(dp2
S'pf'
p3
(lp4
(lp5
F266.32
aF11.0
aa(lp6
F267.43
aF12.0
aa(lp7
F269.47
aF18.0
aa(lp8
F270.4
aF19.0
aassS'../../Data/noc_CM_log.csv'
p9
(dp10
g3
(lp11
(lp12
F6.144515496
aF4.923426501000001
aa(lp13
F6.144515496
aF4.923426501000001
aa(lp14
F6.24014257
aF4.89476559
aa(lp15
F6.415403762
aF4.83712609
aa(lp16
F6.713324647
aF4.726992878
aa(lp17
F6.713324647
aF4.726992878
aa(lp18
F6.713338396
aF4.726862484
aa(lp19
F7.254650728
aF4.68779634
aa(lp20
F7.254650728
aF4.68779634
aa(lp21
F7.254650728
aF4.68779634
aa(lp22
F7.255406313
aF4.676592316
aa(lp23
F7.285531686000001
aF4.401580549
aa(lp24
F7.285531686000001
aF4.401580549
aa(lp25
F7.285531686000001
aF4.401580549
aa(lp26
F7.28555018
aF4.401360963999999
aa(lp27
F7.835102979
aF4.33936051
aa(lp28
F7.835102979
aF4.33936051
aa(lp29
F7.835102979
aF4.33936051
aa(lp30
F7.836833049
aF4.3091938160000005
aass.