(dp0
S'../../Data/noc_CM_log.csv'
p1
(dp2
S'pf'
p3
(lp4
(lp5
F6.144515496
aF4.923426501000001
aa(lp6
F6.144515496
aF4.923426501000001
aa(lp7
F6.24014257
aF4.89476559
aa(lp8
F6.415403762
aF4.83712609
aa(lp9
F6.713324647
aF4.726992878
aa(lp10
F6.713324647
aF4.726992878
aa(lp11
F6.713338396
aF4.726862484
aa(lp12
F7.254650728
aF4.68779634
aa(lp13
F7.254650728
aF4.68779634
aa(lp14
F7.254650728
aF4.68779634
aa(lp15
F7.255406313
aF4.676592316
aa(lp16
F7.285531686000001
aF4.401580549
aa(lp17
F7.285531686000001
aF4.401580549
aa(lp18
F7.285531686000001
aF4.401580549
aa(lp19
F7.28555018
aF4.401360963999999
aa(lp20
F7.835102979
aF4.33936051
aa(lp21
F7.835102979
aF4.33936051
aa(lp22
F7.835102979
aF4.33936051
aa(lp23
F7.836833049
aF4.3091938160000005
aassS'../../Data/wc-3d-c4.csv'
p24
(dp25
g3
(lp26
(lp27
F5042.6
aF1.9422
aa(lp28
F5137.8
aF1.9503
aa(lp29
F5190.9
aF1.9543
aa(lp30
F5283.2
aF1.9688
aa(lp31
F26744.0
aF1486.5
aa(lp32
F28155.0
aF1546.7
aa(lp33
F36750.0
aF94553.0
aassS'../../Data/wc+sol-3d-c4.csv'
p34
(dp35
g3
(lp36
(lp37
F3983.3
aF2.585
aa(lp38
F4032.0
aF2.6341
aa(lp39
F4097.1
aF2.6345
aa(lp40
F6209.4
aF83712.0
aa(lp41
F35978.0
aF85576.0
aa(lp42
F41319.0
aF90593.0
aa(lp43
F48918.0
aF93904.0
aassS'../../Data/llvm_input.csv'
p44
(dp45
g3
(lp46
(lp47
F266.32
aF11.0
aa(lp48
F267.43
aF12.0
aa(lp49
F269.47
aF18.0
aa(lp50
F270.4
aF19.0
aassS'../../Data/wc+rs-3d-c4.csv'
p51
(dp52
g3
(lp53
(lp54
F4275.4
aF2.3254
aa(lp55
F4382.4
aF2.3919
aa(lp56
F4508.5
aF2.4379
aa(lp57
F7977.6
aF78965.0
aa(lp58
F9136.9
aF82037.0
aa(lp59
F42537.0
aF85607.0
aa(lp60
F54006.0
aF89234.0
aa(lp61
F55320.0
aF91290.0
aa(lp62
F57603.0
aF99722.0
aassS'../../Data/wc+wc-3d-c4.csv'
p63
(dp64
g3
(lp65
(lp66
F3964.2
aF2.5503
aa(lp67
F4156.9
aF2.5688
aa(lp68
F4160.1
aF2.6057
aa(lp69
F4294.7
aF4.7793
aa(lp70
F7006.2
aF15.859000000000002
aa(lp71
F7217.6
aF79248.0
aa(lp72
F43406.0
aF83233.0
aa(lp73
F44107.0
aF94541.0
aa(lp74
F45856.0
aF105000.0
aassS'../../Data/sort_256.csv'
p75
(dp76
g3
(lp77
(lp78
F7.087462841000001
aF3.866651431
aa(lp79
F7.098032083
aF2.858160813
aass.