(dp0
S'../../Data/noc_CM_log.csv'
p1
(dp2
S'pf'
p3
(lp4
(lp5
F6.144515496
aF4.923426501000001
aa(lp6
F6.144515496
aF4.923426501000001
aa(lp7
F6.24014257
aF4.89476559
aa(lp8
F6.415403762
aF4.83712609
aa(lp9
F6.713324647
aF4.726992878
aa(lp10
F6.713324647
aF4.726992878
aa(lp11
F6.713338396
aF4.726862484
aa(lp12
F7.254650728
aF4.68779634
aa(lp13
F7.254650728
aF4.68779634
aa(lp14
F7.254650728
aF4.68779634
aa(lp15
F7.255406313
aF4.676592316
aa(lp16
F7.285531686000001
aF4.401580549
aa(lp17
F7.285531686000001
aF4.401580549
aa(lp18
F7.285531686000001
aF4.401580549
aa(lp19
F7.28555018
aF4.401360963999999
aa(lp20
F7.835102979
aF4.33936051
aa(lp21
F7.835102979
aF4.33936051
aa(lp22
F7.835102979
aF4.33936051
aa(lp23
F7.836833049
aF4.3091938160000005
aassS'../../Data/MONRP_50_4_5_4_90.csv'
p24
(dp25
g3
(lp26
(lp27
F94981.0
aF642.0
aF99386.0
aa(lp28
F95005.0
aF635.0
aF99413.0
aa(lp29
F95122.0
aF626.0
aF99425.0
aa(lp30
F95132.0
aF625.0
aF99423.0
aa(lp31
F95132.0
aF627.0
aF99418.0
aa(lp32
F95138.0
aF640.0
aF99408.0
aa(lp33
F95142.0
aF635.0
aF99412.0
aa(lp34
F95155.0
aF627.0
aF99417.0
aa(lp35
F95172.0
aF636.0
aF99410.0
aa(lp36
F95200.0
aF632.0
aF99415.0
aa(lp37
F95202.0
aF624.0
aF99432.0
aa(lp38
F95221.0
aF629.0
aF99401.0
aa(lp39
F95228.0
aF624.0
aF99415.0
aa(lp40
F95248.0
aF619.0
aF99430.0
aa(lp41
F95251.0
aF628.0
aF99411.0
aa(lp42
F95257.0
aF622.0
aF99425.0
aa(lp43
F95282.0
aF595.0
aF99461.0
aa(lp44
F95286.0
aF609.0
aF99450.0
aa(lp45
F95337.0
aF621.0
aF99427.0
aa(lp46
F95360.0
aF621.0
aF99425.0
aa(lp47
F95372.0
aF621.0
aF99421.0
aa(lp48
F95403.0
aF617.0
aF99447.0
aa(lp49
F95437.0
aF607.0
aF99452.0
aa(lp50
F95437.0
aF605.0
aF99454.0
aa(lp51
F95450.0
aF607.0
aF99449.0
aa(lp52
F95460.0
aF616.0
aF99433.0
aa(lp53
F95465.0
aF603.0
aF99458.0
aa(lp54
F95492.0
aF611.0
aF99440.0
aa(lp55
F95496.0
aF576.0
aF99485.0
aa(lp56
F95499.0
aF597.0
aF99460.0
aa(lp57
F95508.0
aF596.0
aF99460.0
aa(lp58
F95520.0
aF592.0
aF99475.0
aa(lp59
F95525.0
aF601.0
aF99449.0
aa(lp60
F95528.0
aF597.0
aF99454.0
aa(lp61
F95528.0
aF600.0
aF99452.0
aa(lp62
F95530.0
aF609.0
aF99446.0
aa(lp63
F95540.0
aF594.0
aF99468.0
aa(lp64
F95551.0
aF600.0
aF99435.0
aa(lp65
F95562.0
aF597.0
aF99453.0
aa(lp66
F95572.0
aF592.0
aF99470.0
aa(lp67
F95578.0
aF596.0
aF99457.0
aa(lp68
F95582.0
aF575.0
aF99482.0
aa(lp69
F95617.0
aF593.0
aF99464.0
aa(lp70
F95629.0
aF552.0
aF99508.0
aa(lp71
F95635.0
aF592.0
aF99456.0
aa(lp72
F95672.0
aF589.0
aF99460.0
aa(lp73
F95701.0
aF589.0
aF99451.0
aa(lp74
F95712.0
aF568.0
aF99495.0
aa(lp75
F95724.0
aF554.0
aF99507.0
aa(lp76
F95749.0
aF586.0
aF99479.0
aa(lp77
F95765.0
aF572.0
aF99494.0
aa(lp78
F95770.0
aF551.0
aF99509.0
aa(lp79
F95799.0
aF579.0
aF99458.0
aa(lp80
F95825.0
aF570.0
aF99490.0
aa(lp81
F95843.0
aF578.0
aF99477.0
aa(lp82
F95851.0
aF565.0
aF99497.0
aa(lp83
F95855.0
aF565.0
aF99490.0
aa(lp84
F95864.0
aF571.0
aF99487.0
aa(lp85
F95877.0
aF573.0
aF99478.0
aa(lp86
F95882.0
aF500.0
aF99553.0
aa(lp87
F95887.0
aF499.0
aF99563.0
aa(lp88
F95910.0
aF524.0
aF99533.0
aa(lp89
F95922.0
aF564.0
aF99486.0
aa(lp90
F95924.0
aF557.0
aF99506.0
aa(lp91
F95945.0
aF577.0
aF99473.0
aa(lp92
F95947.0
aF562.0
aF99504.0
aa(lp93
F95948.0
aF545.0
aF99515.0
aa(lp94
F95949.0
aF548.0
aF99511.0
aa(lp95
F95957.0
aF538.0
aF99527.0
aa(lp96
F95957.0
aF555.0
aF99498.0
aa(lp97
F95959.0
aF526.0
aF99532.0
aa(lp98
F95965.0
aF554.0
aF99505.0
aa(lp99
F95967.0
aF520.0
aF99541.0
aa(lp100
F95969.0
aF522.0
aF99531.0
aa(lp101
F95970.0
aF513.0
aF99545.0
aa(lp102
F95976.0
aF534.0
aF99519.0
aa(lp103
F95978.0
aF556.0
aF99495.0
aa(lp104
F95986.0
aF508.0
aF99544.0
aa(lp105
F95991.0
aF523.0
aF99527.0
aa(lp106
F96002.0
aF547.0
aF99504.0
aa(lp107
F96002.0
aF548.0
aF99494.0
aa(lp108
F96007.0
aF539.0
aF99517.0
aa(lp109
F96024.0
aF523.0
aF99526.0
aa(lp110
F96055.0
aF535.0
aF99518.0
aa(lp111
F96063.0
aF530.0
aF99519.0
aa(lp112
F96065.0
aF544.0
aF99500.0
aa(lp113
F96092.0
aF543.0
aF99512.0
aa(lp114
F96096.0
aF535.0
aF99514.0
aa(lp115
F96103.0
aF516.0
aF99539.0
aa(lp116
F96103.0
aF529.0
aF99523.0
aa(lp117
F96121.0
aF521.0
aF99528.0
aa(lp118
F96123.0
aF537.0
aF99510.0
aa(lp119
F96140.0
aF510.0
aF99540.0
aa(lp120
F96150.0
aF517.0
aF99526.0
aa(lp121
F96155.0
aF522.0
aF99524.0
aa(lp122
F96173.0
aF512.0
aF99532.0
aa(lp123
F96176.0
aF504.0
aF99552.0
aa(lp124
F96182.0
aF496.0
aF99549.0
aa(lp125
F96190.0
aF532.0
aF99508.0
aa(lp126
F96192.0
aF534.0
aF99498.0
aa(lp127
F96215.0
aF512.0
aF99530.0
aa(lp128
F96219.0
aF523.0
aF99522.0
aa(lp129
F96222.0
aF506.0
aF99535.0
aa(lp130
F96230.0
aF504.0
aF99533.0
aa(lp131
F96234.0
aF495.0
aF99554.0
aa(lp132
F96251.0
aF493.0
aF99565.0
aa(lp133
F96265.0
aF480.0
aF99563.0
aa(lp134
F96267.0
aF500.0
aF99548.0
aa(lp135
F96268.0
aF489.0
aF99554.0
aa(lp136
F96328.0
aF465.0
aF99587.0
aa(lp137
F96351.0
aF458.0
aF99595.0
aa(lp138
F96368.0
aF474.0
aF99580.0
aa(lp139
F96384.0
aF511.0
aF99531.0
aa(lp140
F96392.0
aF500.0
aF99543.0
aa(lp141
F96416.0
aF480.0
aF99553.0
aa(lp142
F96419.0
aF503.0
aF99541.0
aa(lp143
F96448.0
aF492.0
aF99551.0
aa(lp144
F96470.0
aF449.0
aF99591.0
aa(lp145
F96523.0
aF470.0
aF99576.0
aa(lp146
F96543.0
aF437.0
aF99594.0
aa(lp147
F96679.0
aF422.0
aF99586.0
aassS'../../Data/wc-3d-c4.csv'
p148
(dp149
g3
(lp150
(lp151
F5042.6
aF1.9422
aa(lp152
F5137.8
aF1.9503
aa(lp153
F5190.9
aF1.9543
aa(lp154
F5283.2
aF1.9688
aa(lp155
F26744.0
aF1486.5
aa(lp156
F28155.0
aF1546.7
aa(lp157
F36750.0
aF94553.0
aassS'../../Data/wc+sol-3d-c4.csv'
p158
(dp159
g3
(lp160
(lp161
F3983.3
aF2.585
aa(lp162
F4032.0
aF2.6341
aa(lp163
F4097.1
aF2.6345
aa(lp164
F6209.4
aF83712.0
aa(lp165
F35978.0
aF85576.0
aa(lp166
F41319.0
aF90593.0
aa(lp167
F48918.0
aF93904.0
aassS'../../Data/wc-6d-c1.csv'
p168
(dp169
g3
(lp170
(lp171
F72.75
aF101.46
aa(lp172
F78.75
aF102.09
aa(lp173
F84.529
aF218.24
aa(lp174
F2650.9
aF14945.0
aa(lp175
F2839.4
aF15685.0
aa(lp176
F3895.5
aF26230.0
aa(lp177
F4442.8
aF42230.0
aa(lp178
F4457.9
aF46122.0
aa(lp179
F5004.2
aF49673.0
aa(lp180
F5908.3
aF50901.0
aa(lp181
F6389.0
aF52019.0
aa(lp182
F6830.5
aF53402.0
aa(lp183
F7718.5
aF55209.0
aassS'../../Data/wc-c3-3d-c1.csv'
p184
(dp185
g3
(lp186
(lp187
F121.5
aF49172.0
aa(lp188
F129.67
aF52729.0
aa(lp189
F160.0
aF57645.0
aassS'../../Data/llvm_input.csv'
p190
(dp191
g3
(lp192
(lp193
F266.32
aF11.0
aa(lp194
F267.43
aF12.0
aa(lp195
F269.47
aF18.0
aa(lp196
F270.4
aF19.0
aassS'../../Data/wc-c1-3d-c1.csv'
p197
(dp198
g3
(lp199
(lp200
F288.56
aF7908.9
aa(lp201
F310.06
aF9421.0
aassS'../../Data/rs-6d-c3.csv'
p202
(dp203
g3
(lp204
(lp205
F68.062
aF24068.0
aa(lp206
F72.188
aF26635.0
aa(lp207
F74.938
aF26747.0
aa(lp208
F81.5
aF28030.0
aa(lp209
F81.882
aF28368.0
aa(lp210
F367.6
aF30834.0
aa(lp211
F388.29
aF31187.0
aa(lp212
F398.4
aF33486.0
aa(lp213
F1948.5
aF34733.0
aassS'../../Data/wc-5d-c5.csv'
p214
(dp215
g3
(lp216
(lp217
F2122.2
aF167.26
aa(lp218
F7600.2
aF259.56
aa(lp219
F7730.2
aF405.5
aassS'../../Data/wc+rs-3d-c4.csv'
p220
(dp221
g3
(lp222
(lp223
F4275.4
aF2.3254
aa(lp224
F4382.4
aF2.3919
aa(lp225
F4508.5
aF2.4379
aa(lp226
F7977.6
aF78965.0
aa(lp227
F9136.9
aF82037.0
aa(lp228
F42537.0
aF85607.0
aa(lp229
F54006.0
aF89234.0
aa(lp230
F55320.0
aF91290.0
aa(lp231
F57603.0
aF99722.0
aassS'../../Data/MONRP_50_4_5_4_110.csv'
p232
(dp233
g3
(lp234
(lp235
F92638.0
aF684.0
aF99384.0
aa(lp236
F92643.0
aF696.0
aF99370.0
aa(lp237
F92783.0
aF686.0
aF99383.0
aa(lp238
F92825.0
aF652.0
aF99429.0
aa(lp239
F92832.0
aF675.0
aF99392.0
aa(lp240
F92874.0
aF683.0
aF99384.0
aa(lp241
F92889.0
aF657.0
aF99417.0
aa(lp242
F92967.0
aF673.0
aF99397.0
aa(lp243
F92968.0
aF652.0
aF99421.0
aa(lp244
F92971.0
aF655.0
aF99416.0
aa(lp245
F92972.0
aF670.0
aF99406.0
aa(lp246
F93012.0
aF653.0
aF99419.0
aa(lp247
F93088.0
aF670.0
aF99404.0
aa(lp248
F93150.0
aF626.0
aF99456.0
aa(lp249
F93182.0
aF660.0
aF99414.0
aa(lp250
F93202.0
aF663.0
aF99412.0
aa(lp251
F93248.0
aF654.0
aF99416.0
aa(lp252
F93263.0
aF661.0
aF99411.0
aa(lp253
F93316.0
aF626.0
aF99454.0
aa(lp254
F93320.0
aF653.0
aF99417.0
aa(lp255
F93322.0
aF652.0
aF99418.0
aa(lp256
F93325.0
aF655.0
aF99411.0
aa(lp257
F93331.0
aF638.0
aF99447.0
aa(lp258
F93351.0
aF636.0
aF99448.0
aa(lp259
F93402.0
aF636.0
aF99445.0
aa(lp260
F93405.0
aF651.0
aF99428.0
aa(lp261
F93406.0
aF651.0
aF99419.0
aa(lp262
F93455.0
aF671.0
aF99403.0
aa(lp263
F93515.0
aF653.0
aF99413.0
aa(lp264
F93552.0
aF605.0
aF99478.0
aa(lp265
F93553.0
aF599.0
aF99483.0
aa(lp266
F93564.0
aF609.0
aF99475.0
aa(lp267
F93574.0
aF642.0
aF99443.0
aa(lp268
F93597.0
aF640.0
aF99437.0
aa(lp269
F93610.0
aF650.0
aF99434.0
aa(lp270
F93611.0
aF626.0
aF99453.0
aa(lp271
F93617.0
aF644.0
aF99429.0
aa(lp272
F93635.0
aF633.0
aF99447.0
aa(lp273
F93651.0
aF598.0
aF99489.0
aa(lp274
F93654.0
aF585.0
aF99500.0
aa(lp275
F93655.0
aF589.0
aF99493.0
aa(lp276
F93681.0
aF582.0
aF99505.0
aa(lp277
F93764.0
aF576.0
aF99507.0
aa(lp278
F93771.0
aF603.0
aF99480.0
aa(lp279
F93799.0
aF632.0
aF99451.0
aa(lp280
F93819.0
aF584.0
aF99498.0
aa(lp281
F93820.0
aF593.0
aF99491.0
aa(lp282
F93828.0
aF635.0
aF99445.0
aa(lp283
F93842.0
aF617.0
aF99473.0
aa(lp284
F93849.0
aF584.0
aF99495.0
aa(lp285
F93869.0
aF588.0
aF99494.0
aa(lp286
F93882.0
aF625.0
aF99461.0
aa(lp287
F93892.0
aF582.0
aF99501.0
aa(lp288
F93896.0
aF632.0
aF99445.0
aa(lp289
F93899.0
aF611.0
aF99472.0
aa(lp290
F93901.0
aF630.0
aF99450.0
aa(lp291
F93925.0
aF616.0
aF99469.0
aa(lp292
F93938.0
aF639.0
aF99439.0
aa(lp293
F93945.0
aF581.0
aF99499.0
aa(lp294
F93949.0
aF591.0
aF99491.0
aa(lp295
F93959.0
aF603.0
aF99479.0
aa(lp296
F93974.0
aF625.0
aF99446.0
aa(lp297
F93992.0
aF602.0
aF99481.0
aa(lp298
F94007.0
aF608.0
aF99477.0
aa(lp299
F94018.0
aF568.0
aF99520.0
aa(lp300
F94024.0
aF571.0
aF99508.0
aa(lp301
F94032.0
aF598.0
aF99485.0
aa(lp302
F94037.0
aF622.0
aF99467.0
aa(lp303
F94053.0
aF598.0
aF99479.0
aa(lp304
F94058.0
aF605.0
aF99477.0
aa(lp305
F94066.0
aF618.0
aF99454.0
aa(lp306
F94069.0
aF571.0
aF99507.0
aa(lp307
F94074.0
aF615.0
aF99464.0
aa(lp308
F94079.0
aF617.0
aF99451.0
aa(lp309
F94082.0
aF599.0
aF99476.0
aa(lp310
F94083.0
aF573.0
aF99505.0
aa(lp311
F94088.0
aF609.0
aF99471.0
aa(lp312
F94101.0
aF610.0
aF99465.0
aa(lp313
F94119.0
aF614.0
aF99451.0
aa(lp314
F94123.0
aF593.0
aF99490.0
aa(lp315
F94139.0
aF596.0
aF99489.0
aa(lp316
F94167.0
aF565.0
aF99520.0
aa(lp317
F94168.0
aF599.0
aF99473.0
aa(lp318
F94169.0
aF587.0
aF99493.0
aa(lp319
F94180.0
aF560.0
aF99523.0
aa(lp320
F94181.0
aF555.0
aF99532.0
aa(lp321
F94196.0
aF583.0
aF99498.0
aa(lp322
F94201.0
aF609.0
aF99458.0
aa(lp323
F94203.0
aF578.0
aF99501.0
aa(lp324
F94213.0
aF576.0
aF99503.0
aa(lp325
F94215.0
aF600.0
aF99462.0
aa(lp326
F94230.0
aF562.0
aF99522.0
aa(lp327
F94242.0
aF553.0
aF99527.0
aa(lp328
F94265.0
aF582.0
aF99489.0
aa(lp329
F94269.0
aF581.0
aF99491.0
aa(lp330
F94279.0
aF579.0
aF99500.0
aa(lp331
F94312.0
aF594.0
aF99488.0
aa(lp332
F94320.0
aF579.0
aF99499.0
aa(lp333
F94331.0
aF562.0
aF99519.0
aa(lp334
F94364.0
aF568.0
aF99515.0
aa(lp335
F94370.0
aF580.0
aF99489.0
aa(lp336
F94406.0
aF598.0
aF99476.0
aa(lp337
F94424.0
aF550.0
aF99548.0
aa(lp338
F94428.0
aF583.0
aF99487.0
aa(lp339
F94456.0
aF570.0
aF99512.0
aa(lp340
F94458.0
aF545.0
aF99536.0
aa(lp341
F94468.0
aF590.0
aF99484.0
aa(lp342
F94471.0
aF552.0
aF99529.0
aa(lp343
F94474.0
aF581.0
aF99479.0
aa(lp344
F94482.0
aF576.0
aF99502.0
aa(lp345
F94526.0
aF578.0
aF99497.0
aa(lp346
F94526.0
aF547.0
aF99534.0
aa(lp347
F94527.0
aF532.0
aF99550.0
aa(lp348
F94528.0
aF556.0
aF99518.0
aa(lp349
F94534.0
aF576.0
aF99490.0
aa(lp350
F94539.0
aF546.0
aF99530.0
aa(lp351
F94539.0
aF501.0
aF99580.0
aa(lp352
F94544.0
aF499.0
aF99569.0
aa(lp353
F94548.0
aF556.0
aF99516.0
aa(lp354
F94562.0
aF538.0
aF99539.0
aa(lp355
F94574.0
aF557.0
aF99511.0
aa(lp356
F94589.0
aF569.0
aF99510.0
aa(lp357
F94600.0
aF525.0
aF99546.0
aa(lp358
F94604.0
aF537.0
aF99536.0
aa(lp359
F94626.0
aF542.0
aF99525.0
aa(lp360
F94629.0
aF559.0
aF99504.0
aa(lp361
F94643.0
aF571.0
aF99497.0
aa(lp362
F94658.0
aF517.0
aF99546.0
aa(lp363
F94669.0
aF554.0
aF99523.0
aa(lp364
F94696.0
aF560.0
aF99500.0
aa(lp365
F94697.0
aF555.0
aF99512.0
aa(lp366
F94715.0
aF536.0
aF99545.0
aa(lp367
F94720.0
aF496.0
aF99568.0
aa(lp368
F94726.0
aF519.0
aF99544.0
aa(lp369
F94731.0
aF490.0
aF99567.0
aa(lp370
F94748.0
aF522.0
aF99541.0
aa(lp371
F94754.0
aF532.0
aF99539.0
aa(lp372
F94770.0
aF516.0
aF99557.0
aa(lp373
F94797.0
aF532.0
aF99536.0
aa(lp374
F94824.0
aF531.0
aF99533.0
aa(lp375
F94829.0
aF531.0
aF99527.0
aa(lp376
F94893.0
aF540.0
aF99508.0
aa(lp377
F94904.0
aF535.0
aF99524.0
aa(lp378
F94931.0
aF515.0
aF99555.0
aa(lp379
F94931.0
aF505.0
aF99566.0
aa(lp380
F95019.0
aF487.0
aF99592.0
aa(lp381
F95044.0
aF523.0
aF99539.0
aa(lp382
F95050.0
aF493.0
aF99533.0
aa(lp383
F95064.0
aF453.0
aF99593.0
aa(lp384
F95087.0
aF483.0
aF99576.0
aa(lp385
F95108.0
aF481.0
aF99577.0
aa(lp386
F95168.0
aF428.0
aF99627.0
aa(lp387
F95344.0
aF489.0
aF99572.0
aassS'../../Data/wc+wc-3d-c4.csv'
p388
(dp389
g3
(lp390
(lp391
F3964.2
aF2.5503
aa(lp392
F4156.9
aF2.5688
aa(lp393
F4160.1
aF2.6057
aa(lp394
F4294.7
aF4.7793
aa(lp395
F7006.2
aF15.859000000000002
aa(lp396
F7217.6
aF79248.0
aa(lp397
F43406.0
aF83233.0
aa(lp398
F44107.0
aF94541.0
aa(lp399
F45856.0
aF105000.0
aassS'../../Data/MONRP_50_4_5_0_90.csv'
p400
(dp401
g3
(lp402
(lp403
F95609.0
aF599.0
aF99387.0
aa(lp404
F95610.0
aF605.0
aF99358.0
aa(lp405
F95649.0
aF600.0
aF99381.0
aa(lp406
F95673.0
aF604.0
aF99369.0
aa(lp407
F95745.0
aF603.0
aF99380.0
aa(lp408
F95752.0
aF599.0
aF99378.0
aa(lp409
F95753.0
aF599.0
aF99376.0
aa(lp410
F95804.0
aF601.0
aF99373.0
aa(lp411
F95824.0
aF583.0
aF99419.0
aa(lp412
F95841.0
aF590.0
aF99407.0
aa(lp413
F95857.0
aF582.0
aF99413.0
aa(lp414
F95891.0
aF588.0
aF99412.0
aa(lp415
F95906.0
aF581.0
aF99413.0
aa(lp416
F95910.0
aF597.0
aF99404.0
aa(lp417
F95912.0
aF594.0
aF99395.0
aa(lp418
F95914.0
aF588.0
aF99396.0
aa(lp419
F95932.0
aF575.0
aF99426.0
aa(lp420
F95944.0
aF586.0
aF99391.0
aa(lp421
F95945.0
aF585.0
aF99408.0
aa(lp422
F95952.0
aF582.0
aF99409.0
aa(lp423
F95968.0
aF583.0
aF99401.0
aa(lp424
F95969.0
aF580.0
aF99415.0
aa(lp425
F95987.0
aF585.0
aF99387.0
aa(lp426
F96003.0
aF583.0
aF99399.0
aa(lp427
F96008.0
aF584.0
aF99391.0
aa(lp428
F96012.0
aF581.0
aF99412.0
aa(lp429
F96025.0
aF572.0
aF99431.0
aa(lp430
F96040.0
aF577.0
aF99416.0
aa(lp431
F96060.0
aF567.0
aF99436.0
aa(lp432
F96070.0
aF565.0
aF99433.0
aa(lp433
F96072.0
aF562.0
aF99443.0
aa(lp434
F96072.0
aF580.0
aF99413.0
aa(lp435
F96077.0
aF576.0
aF99424.0
aa(lp436
F96077.0
aF570.0
aF99428.0
aa(lp437
F96084.0
aF577.0
aF99398.0
aa(lp438
F96087.0
aF541.0
aF99465.0
aa(lp439
F96094.0
aF566.0
aF99430.0
aa(lp440
F96098.0
aF574.0
aF99423.0
aa(lp441
F96107.0
aF575.0
aF99417.0
aa(lp442
F96123.0
aF564.0
aF99432.0
aa(lp443
F96125.0
aF573.0
aF99422.0
aa(lp444
F96142.0
aF563.0
aF99442.0
aa(lp445
F96154.0
aF557.0
aF99455.0
aa(lp446
F96181.0
aF569.0
aF99429.0
aa(lp447
F96183.0
aF565.0
aF99410.0
aa(lp448
F96190.0
aF555.0
aF99448.0
aa(lp449
F96191.0
aF557.0
aF99447.0
aa(lp450
F96205.0
aF555.0
aF99443.0
aa(lp451
F96206.0
aF554.0
aF99451.0
aa(lp452
F96215.0
aF535.0
aF99477.0
aa(lp453
F96221.0
aF559.0
aF99438.0
aa(lp454
F96230.0
aF544.0
aF99462.0
aa(lp455
F96231.0
aF562.0
aF99435.0
aa(lp456
F96237.0
aF541.0
aF99464.0
aa(lp457
F96252.0
aF563.0
aF99433.0
aa(lp458
F96280.0
aF541.0
aF99461.0
aa(lp459
F96281.0
aF560.0
aF99437.0
aa(lp460
F96289.0
aF543.0
aF99459.0
aa(lp461
F96292.0
aF524.0
aF99486.0
aa(lp462
F96301.0
aF532.0
aF99480.0
aa(lp463
F96313.0
aF540.0
aF99474.0
aa(lp464
F96314.0
aF541.0
aF99459.0
aa(lp465
F96319.0
aF517.0
aF99486.0
aa(lp466
F96321.0
aF553.0
aF99458.0
aa(lp467
F96333.0
aF546.0
aF99451.0
aa(lp468
F96342.0
aF550.0
aF99450.0
aa(lp469
F96354.0
aF545.0
aF99452.0
aa(lp470
F96356.0
aF530.0
aF99483.0
aa(lp471
F96363.0
aF540.0
aF99465.0
aa(lp472
F96369.0
aF544.0
aF99446.0
aa(lp473
F96373.0
aF521.0
aF99484.0
aa(lp474
F96383.0
aF540.0
aF99445.0
aa(lp475
F96383.0
aF548.0
aF99437.0
aa(lp476
F96392.0
aF538.0
aF99455.0
aa(lp477
F96394.0
aF535.0
aF99474.0
aa(lp478
F96400.0
aF531.0
aF99474.0
aa(lp479
F96411.0
aF537.0
aF99460.0
aa(lp480
F96420.0
aF537.0
aF99452.0
aa(lp481
F96456.0
aF520.0
aF99482.0
aa(lp482
F96463.0
aF531.0
aF99469.0
aa(lp483
F96466.0
aF527.0
aF99475.0
aa(lp484
F96469.0
aF530.0
aF99472.0
aa(lp485
F96472.0
aF527.0
aF99474.0
aa(lp486
F96472.0
aF517.0
aF99482.0
aa(lp487
F96473.0
aF516.0
aF99501.0
aa(lp488
F96485.0
aF533.0
aF99464.0
aa(lp489
F96491.0
aF485.0
aF99527.0
aa(lp490
F96499.0
aF441.0
aF99549.0
aa(lp491
F96504.0
aF513.0
aF99509.0
aa(lp492
F96519.0
aF516.0
aF99480.0
aa(lp493
F96536.0
aF524.0
aF99478.0
aa(lp494
F96541.0
aF497.0
aF99522.0
aa(lp495
F96558.0
aF453.0
aF99543.0
aa(lp496
F96573.0
aF487.0
aF99517.0
aa(lp497
F96585.0
aF503.0
aF99501.0
aa(lp498
F96594.0
aF528.0
aF99469.0
aa(lp499
F96601.0
aF515.0
aF99489.0
aa(lp500
F96605.0
aF496.0
aF99510.0
aa(lp501
F96608.0
aF514.0
aF99470.0
aa(lp502
F96634.0
aF512.0
aF99479.0
aa(lp503
F96647.0
aF479.0
aF99533.0
aa(lp504
F96677.0
aF493.0
aF99500.0
aa(lp505
F96697.0
aF486.0
aF99515.0
aa(lp506
F96706.0
aF465.0
aF99539.0
aa(lp507
F96738.0
aF484.0
aF99524.0
aa(lp508
F96740.0
aF510.0
aF99497.0
aa(lp509
F96759.0
aF441.0
aF99545.0
aa(lp510
F96776.0
aF483.0
aF99523.0
aa(lp511
F96781.0
aF440.0
aF99558.0
aa(lp512
F96838.0
aF477.0
aF99530.0
aa(lp513
F96854.0
aF476.0
aF99517.0
aa(lp514
F96854.0
aF474.0
aF99533.0
aa(lp515
F96860.0
aF434.0
aF99543.0
aa(lp516
F96866.0
aF489.0
aF99510.0
aa(lp517
F96908.0
aF400.0
aF99574.0
aa(lp518
F96943.0
aF467.0
aF99488.0
aa(lp519
F96947.0
aF424.0
aF99542.0
aa(lp520
F96983.0
aF437.0
aF99540.0
aassS'../../Data/sort_256.csv'
p521
(dp522
g3
(lp523
(lp524
F7.087462841000001
aF3.866651431
aa(lp525
F7.098032083
aF2.858160813
aassS'../../Data/MONRP_50_4_5_0_110.csv'
p526
(dp527
g3
(lp528
(lp529
F95257.0
aF727.0
aF99466.0
aa(lp530
F95290.0
aF711.0
aF99479.0
aa(lp531
F95366.0
aF696.0
aF99502.0
aa(lp532
F95426.0
aF697.0
aF99494.0
aa(lp533
F95438.0
aF714.0
aF99477.0
aa(lp534
F95492.0
aF710.0
aF99478.0
aa(lp535
F95492.0
aF700.0
aF99493.0
aa(lp536
F95512.0
aF700.0
aF99488.0
aa(lp537
F95533.0
aF703.0
aF99487.0
aa(lp538
F95536.0
aF694.0
aF99498.0
aa(lp539
F95539.0
aF676.0
aF99518.0
aa(lp540
F95584.0
aF693.0
aF99501.0
aa(lp541
F95584.0
aF698.0
aF99493.0
aa(lp542
F95587.0
aF696.0
aF99495.0
aa(lp543
F95597.0
aF694.0
aF99496.0
aa(lp544
F95605.0
aF709.0
aF99476.0
aa(lp545
F95620.0
aF705.0
aF99485.0
aa(lp546
F95643.0
aF670.0
aF99530.0
aa(lp547
F95649.0
aF696.0
aF99493.0
aa(lp548
F95701.0
aF689.0
aF99514.0
aa(lp549
F95783.0
aF679.0
aF99517.0
aa(lp550
F95792.0
aF668.0
aF99527.0
aa(lp551
F95793.0
aF692.0
aF99507.0
aa(lp552
F95793.0
aF693.0
aF99486.0
aa(lp553
F95794.0
aF674.0
aF99521.0
aa(lp554
F95804.0
aF669.0
aF99525.0
aa(lp555
F95812.0
aF650.0
aF99550.0
aa(lp556
F95835.0
aF679.0
aF99510.0
aa(lp557
F95855.0
aF667.0
aF99529.0
aa(lp558
F95877.0
aF673.0
aF99516.0
aa(lp559
F95885.0
aF653.0
aF99543.0
aa(lp560
F95886.0
aF670.0
aF99513.0
aa(lp561
F95898.0
aF676.0
aF99512.0
aa(lp562
F95909.0
aF668.0
aF99511.0
aa(lp563
F95914.0
aF684.0
aF99508.0
aa(lp564
F95943.0
aF631.0
aF99565.0
aa(lp565
F95954.0
aF665.0
aF99533.0
aa(lp566
F95957.0
aF632.0
aF99558.0
aa(lp567
F95966.0
aF638.0
aF99555.0
aa(lp568
F95966.0
aF667.0
aF99519.0
aa(lp569
F95996.0
aF666.0
aF99530.0
aa(lp570
F96023.0
aF649.0
aF99548.0
aa(lp571
F96032.0
aF608.0
aF99586.0
aa(lp572
F96034.0
aF652.0
aF99541.0
aa(lp573
F96040.0
aF612.0
aF99580.0
aa(lp574
F96061.0
aF663.0
aF99539.0
aa(lp575
F96083.0
aF656.0
aF99527.0
aa(lp576
F96083.0
aF627.0
aF99567.0
aa(lp577
F96101.0
aF649.0
aF99544.0
aa(lp578
F96103.0
aF654.0
aF99528.0
aa(lp579
F96123.0
aF644.0
aF99554.0
aa(lp580
F96124.0
aF636.0
aF99557.0
aa(lp581
F96127.0
aF560.0
aF99614.0
aa(lp582
F96135.0
aF630.0
aF99563.0
aa(lp583
F96162.0
aF642.0
aF99541.0
aa(lp584
F96179.0
aF623.0
aF99577.0
aa(lp585
F96184.0
aF641.0
aF99548.0
aa(lp586
F96185.0
aF534.0
aF99635.0
aa(lp587
F96190.0
aF606.0
aF99581.0
aa(lp588
F96196.0
aF565.0
aF99609.0
aa(lp589
F96203.0
aF589.0
aF99600.0
aa(lp590
F96207.0
aF612.0
aF99579.0
aa(lp591
F96241.0
aF564.0
aF99612.0
aa(lp592
F96243.0
aF650.0
aF99538.0
aa(lp593
F96293.0
aF623.0
aF99573.0
aa(lp594
F96297.0
aF597.0
aF99593.0
aa(lp595
F96303.0
aF626.0
aF99571.0
aa(lp596
F96314.0
aF625.0
aF99558.0
aa(lp597
F96326.0
aF599.0
aF99592.0
aa(lp598
F96336.0
aF635.0
aF99557.0
aa(lp599
F96344.0
aF605.0
aF99582.0
aa(lp600
F96345.0
aF589.0
aF99594.0
aa(lp601
F96348.0
aF622.0
aF99563.0
aa(lp602
F96355.0
aF619.0
aF99559.0
aa(lp603
F96371.0
aF593.0
aF99585.0
aa(lp604
F96375.0
aF612.0
aF99563.0
aa(lp605
F96375.0
aF586.0
aF99596.0
aa(lp606
F96392.0
aF621.0
aF99556.0
aa(lp607
F96396.0
aF600.0
aF99578.0
aa(lp608
F96398.0
aF584.0
aF99592.0
aa(lp609
F96398.0
aF596.0
aF99580.0
aa(lp610
F96404.0
aF584.0
aF99591.0
aa(lp611
F96424.0
aF532.0
aF99628.0
aa(lp612
F96427.0
aF595.0
aF99579.0
aa(lp613
F96434.0
aF564.0
aF99608.0
aa(lp614
F96442.0
aF563.0
aF99611.0
aa(lp615
F96450.0
aF610.0
aF99573.0
aa(lp616
F96454.0
aF615.0
aF99558.0
aa(lp617
F96460.0
aF592.0
aF99588.0
aa(lp618
F96465.0
aF590.0
aF99588.0
aa(lp619
F96479.0
aF563.0
aF99610.0
aa(lp620
F96480.0
aF580.0
aF99604.0
aa(lp621
F96484.0
aF577.0
aF99603.0
aa(lp622
F96484.0
aF583.0
aF99599.0
aa(lp623
F96488.0
aF608.0
aF99565.0
aa(lp624
F96495.0
aF568.0
aF99599.0
aa(lp625
F96516.0
aF561.0
aF99604.0
aa(lp626
F96518.0
aF582.0
aF99588.0
aa(lp627
F96518.0
aF603.0
aF99569.0
aa(lp628
F96518.0
aF563.0
aF99603.0
aa(lp629
F96530.0
aF566.0
aF99602.0
aa(lp630
F96538.0
aF575.0
aF99596.0
aa(lp631
F96558.0
aF582.0
aF99586.0
aa(lp632
F96564.0
aF557.0
aF99609.0
aa(lp633
F96578.0
aF566.0
aF99601.0
aa(lp634
F96583.0
aF558.0
aF99605.0
aa(lp635
F96618.0
aF556.0
aF99616.0
aa(lp636
F96629.0
aF572.0
aF99590.0
aa(lp637
F96636.0
aF578.0
aF99588.0
aa(lp638
F96637.0
aF554.0
aF99601.0
aa(lp639
F96637.0
aF602.0
aF99575.0
aa(lp640
F96645.0
aF577.0
aF99572.0
aa(lp641
F96685.0
aF566.0
aF99600.0
aa(lp642
F96729.0
aF569.0
aF99589.0
aa(lp643
F96767.0
aF519.0
aF99636.0
aa(lp644
F96784.0
aF553.0
aF99618.0
aa(lp645
F96816.0
aF546.0
aF99627.0
aa(lp646
F96834.0
aF496.0
aF99650.0
aa(lp647
F96838.0
aF517.0
aF99639.0
aa(lp648
F96874.0
aF516.0
aF99647.0
aa(lp649
F96889.0
aF525.0
aF99635.0
aa(lp650
F96900.0
aF507.0
aF99634.0
aa(lp651
F96927.0
aF549.0
aF99624.0
aa(lp652
F96980.0
aF489.0
aF99657.0
aa(lp653
F97031.0
aF485.0
aF99660.0
aa(lp654
F97037.0
aF500.0
aF99627.0
aa(lp655
F97166.0
aF544.0
aF99622.0
aa(lp656
F97219.0
aF485.0
aF99653.0
aass.