(dp0
S'../../Data/llvm_input.csv'
p1
(dp2
S'pf'
p3
(lp4
(lp5
F266.32
aF11.0
aa(lp6
F267.43
aF12.0
aa(lp7
F269.47
aF18.0
aa(lp8
F270.4
aF19.0
aassS'../../Data/wc+sol-3d-c4.csv'
p9
(dp10
g3
(lp11
(lp12
F3983.3
aF2.585
aa(lp13
F4032.0
aF2.6341
aa(lp14
F4097.1
aF2.6345
aa(lp15
F6209.4
aF83712.0
aa(lp16
F35978.0
aF85576.0
aa(lp17
F41319.0
aF90593.0
aa(lp18
F48918.0
aF93904.0
aassS'../../Data/noc_CM_log.csv'
p19
(dp20
g3
(lp21
(lp22
F6.144515496
aF4.923426501000001
aa(lp23
F6.144515496
aF4.923426501000001
aa(lp24
F6.24014257
aF4.89476559
aa(lp25
F6.415403762
aF4.83712609
aa(lp26
F6.713324647
aF4.726992878
aa(lp27
F6.713324647
aF4.726992878
aa(lp28
F6.713338396
aF4.726862484
aa(lp29
F7.254650728
aF4.68779634
aa(lp30
F7.254650728
aF4.68779634
aa(lp31
F7.254650728
aF4.68779634
aa(lp32
F7.255406313
aF4.676592316
aa(lp33
F7.285531686000001
aF4.401580549
aa(lp34
F7.285531686000001
aF4.401580549
aa(lp35
F7.285531686000001
aF4.401580549
aa(lp36
F7.28555018
aF4.401360963999999
aa(lp37
F7.835102979
aF4.33936051
aa(lp38
F7.835102979
aF4.33936051
aa(lp39
F7.835102979
aF4.33936051
aa(lp40
F7.836833049
aF4.3091938160000005
aassS'../../Data/sort_256.csv'
p41
(dp42
g3
(lp43
(lp44
F7.087462841000001
aF3.866651431
aa(lp45
F7.098032083
aF2.858160813
aassS'../../Data/wc+rs-3d-c4.csv'
p46
(dp47
g3
(lp48
(lp49
F4275.4
aF2.3254
aa(lp50
F4382.4
aF2.3919
aa(lp51
F4508.5
aF2.4379
aa(lp52
F7977.6
aF78965.0
aa(lp53
F9136.9
aF82037.0
aa(lp54
F42537.0
aF85607.0
aa(lp55
F54006.0
aF89234.0
aa(lp56
F55320.0
aF91290.0
aa(lp57
F57603.0
aF99722.0
aass.