(dp0
S'../../Data/noc_CM_log.csv'
p1
(dp2
S'pf'
p3
(lp4
(lp5
F6.144515496
aF4.923426501000001
aa(lp6
F6.144515496
aF4.923426501000001
aa(lp7
F6.24014257
aF4.89476559
aa(lp8
F6.415403762
aF4.83712609
aa(lp9
F6.713324647
aF4.726992878
aa(lp10
F6.713324647
aF4.726992878
aa(lp11
F6.713338396
aF4.726862484
aa(lp12
F7.254650728
aF4.68779634
aa(lp13
F7.254650728
aF4.68779634
aa(lp14
F7.254650728
aF4.68779634
aa(lp15
F7.255406313
aF4.676592316
aa(lp16
F7.285531686000001
aF4.401580549
aa(lp17
F7.285531686000001
aF4.401580549
aa(lp18
F7.285531686000001
aF4.401580549
aa(lp19
F7.28555018
aF4.401360963999999
aa(lp20
F7.835102979
aF4.33936051
aa(lp21
F7.835102979
aF4.33936051
aa(lp22
F7.835102979
aF4.33936051
aa(lp23
F7.836833049
aF4.3091938160000005
aassS'../../Data/wc-c1-3d-c1.csv'
p24
(dp25
g3
(lp26
(lp27
F288.56
aF7908.9
aa(lp28
F310.06
aF9421.0
aassS'../../Data/rs-6d-c3.csv'
p29
(dp30
g3
(lp31
(lp32
F68.062
aF24068.0
aa(lp33
F72.188
aF26635.0
aa(lp34
F74.938
aF26747.0
aa(lp35
F81.5
aF28030.0
aa(lp36
F81.882
aF28368.0
aa(lp37
F367.6
aF30834.0
aa(lp38
F388.29
aF31187.0
aa(lp39
F398.4
aF33486.0
aa(lp40
F1948.5
aF34733.0
aassS'../../Data/xomo_flight.csv'
p41
(dp42
g3
(lp43
(lp44
F6362.93242975
aF75.7917766872
aF39794.65708030001
aF4.82573726542
aa(lp45
F7000.41509686
aF42.8153135226
aF226677.057131
aF13.941018766800001
aa(lp46
F7684.83033146
aF73.0266382334
aF87111.10953080001
aF4.55764075067
aa(lp47
F7900.75940469
aF59.854969144799995
aF428117.623585
aF5.36193029491
aa(lp48
F8091.85891992
aF81.9509215416
aF174052.826314
aF4.289544235919999
aa(lp49
F8140.05472052
aF43.040975074399995
aF36947.7803935
aF13.941018766800001
aa(lp50
F8678.77543271
aF43.9306750208
aF209866.73576500002
aF12.064343163499998
aa(lp51
F9185.72994369
aF64.63474488600001
aF245318.91644099998
aF4.82573726542
aa(lp52
F9260.03050827
aF89.8570940803
aF86156.38986980001
aF4.289544235919999
aa(lp53
F11282.613242200001
aF52.919479539499996
aF286553.933986
aF11.2600536193
aa(lp54
F11499.0014598
aF47.9176757873
aF118326.126443
aF11.528150134
aa(lp55
F11778.316527500001
aF70.6377813865
aF144592.526969
aF5.09383378016
aa(lp56
F12258.369497
aF95.9147027276
aF257428.017702
aF4.02144772118
aa(lp57
F12837.5450668
aF45.266476007399994
aF111252.90536099998
aF12.3324396783
aa(lp58
F13064.3537147
aF69.374024313
aF126333.818551
aF4.289544235919999
aa(lp59
F13171.168814
aF47.6657148586
aF69486.20688910001
aF13.672922252000001
aa(lp60
F13283.2922594
aF98.2239438536
aF41203.9248148
aF1.87667560322
aa(lp61
F13398.6968276
aF95.51665608719999
aF84957.1653255
aF0.536193029491
aa(lp62
F13431.023146599999
aF57.06162077770001
aF31619.9875811
aF6.9705093833800005
aa(lp63
F13703.2704305
aF94.78024820780001
aF60437.7667831
aF3.75335120643
aa(lp64
F14503.818448500002
aF75.9357979088
aF339885.908674
aF1.60857908847
aa(lp65
F14645.5636314
aF94.6956906655
aF107316.135723
aF2.41286863271
aa(lp66
F15234.2049572
aF73.8150814918
aF155837.338984
aF3.75335120643
aa(lp67
F15240.5524125
aF48.287187693999996
aF56306.2442092
aF11.528150134
aa(lp68
F15536.061438100001
aF71.2286894799
aF81877.9321223
aF1.87667560322
aa(lp69
F15762.399113999998
aF92.1282809241
aF51630.8392197
aF1.60857908847
aa(lp70
F17703.9073349
aF68.2759245679
aF145039.934147
aF5.8981233244
aa(lp71
F20288.2877491
aF56.9283035658
aF424471.195979
aF10.4557640751
aa(lp72
F23004.2641148
aF66.4278694425
aF103553.782303
aF2.9490616622
aassS'../../Data/MONRP_50_4_5_0_90.csv'
p73
(dp74
g3
(lp75
(lp76
F95609.0
aF599.0
aF99387.0
aa(lp77
F95610.0
aF605.0
aF99358.0
aa(lp78
F95649.0
aF600.0
aF99381.0
aa(lp79
F95673.0
aF604.0
aF99369.0
aa(lp80
F95745.0
aF603.0
aF99380.0
aa(lp81
F95752.0
aF599.0
aF99378.0
aa(lp82
F95753.0
aF599.0
aF99376.0
aa(lp83
F95804.0
aF601.0
aF99373.0
aa(lp84
F95824.0
aF583.0
aF99419.0
aa(lp85
F95841.0
aF590.0
aF99407.0
aa(lp86
F95857.0
aF582.0
aF99413.0
aa(lp87
F95891.0
aF588.0
aF99412.0
aa(lp88
F95906.0
aF581.0
aF99413.0
aa(lp89
F95910.0
aF597.0
aF99404.0
aa(lp90
F95912.0
aF594.0
aF99395.0
aa(lp91
F95914.0
aF588.0
aF99396.0
aa(lp92
F95932.0
aF575.0
aF99426.0
aa(lp93
F95944.0
aF586.0
aF99391.0
aa(lp94
F95945.0
aF585.0
aF99408.0
aa(lp95
F95952.0
aF582.0
aF99409.0
aa(lp96
F95968.0
aF583.0
aF99401.0
aa(lp97
F95969.0
aF580.0
aF99415.0
aa(lp98
F95987.0
aF585.0
aF99387.0
aa(lp99
F96003.0
aF583.0
aF99399.0
aa(lp100
F96008.0
aF584.0
aF99391.0
aa(lp101
F96012.0
aF581.0
aF99412.0
aa(lp102
F96025.0
aF572.0
aF99431.0
aa(lp103
F96040.0
aF577.0
aF99416.0
aa(lp104
F96060.0
aF567.0
aF99436.0
aa(lp105
F96070.0
aF565.0
aF99433.0
aa(lp106
F96072.0
aF562.0
aF99443.0
aa(lp107
F96072.0
aF580.0
aF99413.0
aa(lp108
F96077.0
aF576.0
aF99424.0
aa(lp109
F96077.0
aF570.0
aF99428.0
aa(lp110
F96084.0
aF577.0
aF99398.0
aa(lp111
F96087.0
aF541.0
aF99465.0
aa(lp112
F96094.0
aF566.0
aF99430.0
aa(lp113
F96098.0
aF574.0
aF99423.0
aa(lp114
F96107.0
aF575.0
aF99417.0
aa(lp115
F96123.0
aF564.0
aF99432.0
aa(lp116
F96125.0
aF573.0
aF99422.0
aa(lp117
F96142.0
aF563.0
aF99442.0
aa(lp118
F96154.0
aF557.0
aF99455.0
aa(lp119
F96181.0
aF569.0
aF99429.0
aa(lp120
F96183.0
aF565.0
aF99410.0
aa(lp121
F96190.0
aF555.0
aF99448.0
aa(lp122
F96191.0
aF557.0
aF99447.0
aa(lp123
F96205.0
aF555.0
aF99443.0
aa(lp124
F96206.0
aF554.0
aF99451.0
aa(lp125
F96215.0
aF535.0
aF99477.0
aa(lp126
F96221.0
aF559.0
aF99438.0
aa(lp127
F96230.0
aF544.0
aF99462.0
aa(lp128
F96231.0
aF562.0
aF99435.0
aa(lp129
F96237.0
aF541.0
aF99464.0
aa(lp130
F96252.0
aF563.0
aF99433.0
aa(lp131
F96280.0
aF541.0
aF99461.0
aa(lp132
F96281.0
aF560.0
aF99437.0
aa(lp133
F96289.0
aF543.0
aF99459.0
aa(lp134
F96292.0
aF524.0
aF99486.0
aa(lp135
F96301.0
aF532.0
aF99480.0
aa(lp136
F96313.0
aF540.0
aF99474.0
aa(lp137
F96314.0
aF541.0
aF99459.0
aa(lp138
F96319.0
aF517.0
aF99486.0
aa(lp139
F96321.0
aF553.0
aF99458.0
aa(lp140
F96333.0
aF546.0
aF99451.0
aa(lp141
F96342.0
aF550.0
aF99450.0
aa(lp142
F96354.0
aF545.0
aF99452.0
aa(lp143
F96356.0
aF530.0
aF99483.0
aa(lp144
F96363.0
aF540.0
aF99465.0
aa(lp145
F96369.0
aF544.0
aF99446.0
aa(lp146
F96373.0
aF521.0
aF99484.0
aa(lp147
F96383.0
aF540.0
aF99445.0
aa(lp148
F96383.0
aF548.0
aF99437.0
aa(lp149
F96392.0
aF538.0
aF99455.0
aa(lp150
F96394.0
aF535.0
aF99474.0
aa(lp151
F96400.0
aF531.0
aF99474.0
aa(lp152
F96411.0
aF537.0
aF99460.0
aa(lp153
F96420.0
aF537.0
aF99452.0
aa(lp154
F96456.0
aF520.0
aF99482.0
aa(lp155
F96463.0
aF531.0
aF99469.0
aa(lp156
F96466.0
aF527.0
aF99475.0
aa(lp157
F96469.0
aF530.0
aF99472.0
aa(lp158
F96472.0
aF527.0
aF99474.0
aa(lp159
F96472.0
aF517.0
aF99482.0
aa(lp160
F96473.0
aF516.0
aF99501.0
aa(lp161
F96485.0
aF533.0
aF99464.0
aa(lp162
F96491.0
aF485.0
aF99527.0
aa(lp163
F96499.0
aF441.0
aF99549.0
aa(lp164
F96504.0
aF513.0
aF99509.0
aa(lp165
F96519.0
aF516.0
aF99480.0
aa(lp166
F96536.0
aF524.0
aF99478.0
aa(lp167
F96541.0
aF497.0
aF99522.0
aa(lp168
F96558.0
aF453.0
aF99543.0
aa(lp169
F96573.0
aF487.0
aF99517.0
aa(lp170
F96585.0
aF503.0
aF99501.0
aa(lp171
F96594.0
aF528.0
aF99469.0
aa(lp172
F96601.0
aF515.0
aF99489.0
aa(lp173
F96605.0
aF496.0
aF99510.0
aa(lp174
F96608.0
aF514.0
aF99470.0
aa(lp175
F96634.0
aF512.0
aF99479.0
aa(lp176
F96647.0
aF479.0
aF99533.0
aa(lp177
F96677.0
aF493.0
aF99500.0
aa(lp178
F96697.0
aF486.0
aF99515.0
aa(lp179
F96706.0
aF465.0
aF99539.0
aa(lp180
F96738.0
aF484.0
aF99524.0
aa(lp181
F96740.0
aF510.0
aF99497.0
aa(lp182
F96759.0
aF441.0
aF99545.0
aa(lp183
F96776.0
aF483.0
aF99523.0
aa(lp184
F96781.0
aF440.0
aF99558.0
aa(lp185
F96838.0
aF477.0
aF99530.0
aa(lp186
F96854.0
aF476.0
aF99517.0
aa(lp187
F96854.0
aF474.0
aF99533.0
aa(lp188
F96860.0
aF434.0
aF99543.0
aa(lp189
F96866.0
aF489.0
aF99510.0
aa(lp190
F96908.0
aF400.0
aF99574.0
aa(lp191
F96943.0
aF467.0
aF99488.0
aa(lp192
F96947.0
aF424.0
aF99542.0
aa(lp193
F96983.0
aF437.0
aF99540.0
aassS'../../Data/sort_256.csv'
p194
(dp195
g3
(lp196
(lp197
F7.087462841000001
aF3.866651431
aa(lp198
F7.098032083
aF2.858160813
aassS'../../Data/xomo_all.csv'
p199
(dp200
g3
(lp201
(lp202
F4522.46814905
aF68.7118895345
aF99475.25709269999
aF4.55764075067
aa(lp203
F4668.37390555
aF64.8340826964
aF158856.627268
aF5.09383378016
aa(lp204
F4729.65497054
aF70.8178642174
aF137182.200767
aF4.289544235919999
aa(lp205
F5362.71656305
aF75.8225145837
aF203904.620188
aF3.4852546916900002
aa(lp206
F5701.29602971
aF44.531952022
aF791879.990629
aF5.36193029491
aa(lp207
F5715.47546229
aF73.63348456359999
aF173044.54360799998
aF4.02144772118
aa(lp208
F5945.87458209
aF39.8255954202
aF267639.816054
aF7.238605898119999
aa(lp209
F6122.53995906
aF77.3179019563
aF115063.55055799999
aF3.75335120643
aa(lp210
F6164.02779722
aF80.09216599850001
aF170715.172713
aF2.6809651474500003
aa(lp211
F6594.13169364
aF41.9342386295
aF252828.26174899997
aF13.941018766800001
aa(lp212
F6630.57560321
aF39.854140683000004
aF86879.94581939999
aF13.1367292225
aa(lp213
F6782.06184434
aF39.2095044237
aF81575.8885008
aF13.4048257373
aa(lp214
F7137.79753423
aF78.5191173101
aF95282.9525811
aF4.289544235919999
aa(lp215
F7258.63285475
aF42.3013633683
aF202066.164473
aF12.3324396783
aa(lp216
F7464.42698925
aF40.7954950377
aF141820.387258
aF11.528150134
aa(lp217
F7535.86784816
aF42.3756228713
aF404006.101952
aF6.9705093833800005
aa(lp218
F7722.24005221
aF42.7062018878
aF83045.59275519999
aF13.1367292225
aa(lp219
F8062.81758139
aF87.40278496209999
aF140278.280331
aF1.87667560322
aa(lp220
F8221.33827718
aF82.7368126254
aF121826.433955
aF3.21715817694
aa(lp221
F8464.98397653
aF83.299053316
aF212494.77260899998
aF2.41286863271
aa(lp222
F8587.17976062
aF39.6743081965
aF120196.638195
aF12.064343163499998
aa(lp223
F8963.58869978
aF40.4028656497
aF132735.766994
aF11.528150134
aa(lp224
F9008.563369
aF44.6798093664
aF181898.134192
aF9.383378016089999
aa(lp225
F9224.3773495
aF82.15326291779999
aF83165.5022608
aF4.289544235919999
aa(lp226
F9304.25058863
aF42.5261318465
aF123246.25871300002
aF11.528150134
aa(lp227
F9465.48551166
aF87.3655686583
aF70371.68065119999
aF3.75335120643
aa(lp228
F9646.31155812
aF79.9428895252
aF132435.49166600002
aF1.0723860589799998
aa(lp229
F9922.19132788
aF64.9713270517
aF87831.9492876
aF6.434316353890001
aa(lp230
F10307.785471
aF46.7416584179
aF77964.80541419999
aF12.3324396783
aa(lp231
F10962.994027200002
aF66.3000496149
aF168071.552073
aF3.75335120643
aa(lp232
F11200.3830847
aF66.90797315409999
aF184784.044481
aF2.6809651474500003
aa(lp233
F12984.781269
aF97.192065236
aF60762.7672707
aF5.36193029491
aa(lp234
F12990.4712812
aF95.9310077399
aF119241.239561
aF3.4852546916900002
aa(lp235
F13751.2422717
aF98.79220126530001
aF96752.55938610001
aF1.87667560322
aa(lp236
F14218.5718473
aF73.3938241868
aF122982.95383599999
aF2.1447721179599997
aa(lp237
F14760.9255183
aF70.57881507399999
aF63497.5133449
aF5.09383378016
aa(lp238
F14928.996945299998
aF61.067115193199996
aF224436.23540799998
aF7.506702412869999
aa(lp239
F15096.2298962
aF98.0914630085
aF108615.77663699999
aF2.41286863271
aa(lp240
F15737.665396
aF74.6565303455
aF174723.508467
aF1.87667560322
aa(lp241
F16003.0022595
aF62.668289948900004
aF326708.299273
aF6.702412868630001
aa(lp242
F16263.415278299999
aF54.1360861787
aF223929.677642
aF8.04289544236
aa(lp243
F16400.6289465
aF59.6574411561
aF183967.915305
aF2.1447721179599997
aa(lp244
F16737.7924552
aF63.5344376934
aF153204.38064400002
aF8.04289544236
aa(lp245
F17057.702193200003
aF91.8102259393
aF57273.096397
aF2.41286863271
aa(lp246
F17099.9252164
aF51.5717852938
aF180193.519179
aF10.9919571046
aa(lp247
F19366.204017400003
aF56.330675131999996
aF68845.2059033
aF14.745308310999999
aa(lp248
F20193.6455227
aF80.3262511428
aF100186.230966
aF4.02144772118
aa(lp249
F22040.8086449
aF66.4509534852
aF69794.2821589
aF5.36193029491
aa(lp250
F22589.130115599997
aF61.5087344825
aF46386.7395464
aF6.434316353890001
aa(lp251
F24807.9534278
aF59.3705481081
aF68613.80537969999
aF7.77479892761
aa(lp252
F28583.461233399998
aF59.2967209556
aF135101.478403
aF10.4557640751
aassS'../../Data/wc-3d-c4.csv'
p253
(dp254
g3
(lp255
(lp256
F5042.6
aF1.9422
aa(lp257
F5137.8
aF1.9503
aa(lp258
F5190.9
aF1.9543
aa(lp259
F5283.2
aF1.9688
aa(lp260
F26744.0
aF1486.5
aa(lp261
F28155.0
aF1546.7
aa(lp262
F36750.0
aF94553.0
aassS'../../Data/MONRP_50_4_5_4_90.csv'
p263
(dp264
g3
(lp265
(lp266
F94981.0
aF642.0
aF99386.0
aa(lp267
F95005.0
aF635.0
aF99413.0
aa(lp268
F95122.0
aF626.0
aF99425.0
aa(lp269
F95132.0
aF625.0
aF99423.0
aa(lp270
F95132.0
aF627.0
aF99418.0
aa(lp271
F95138.0
aF640.0
aF99408.0
aa(lp272
F95142.0
aF635.0
aF99412.0
aa(lp273
F95155.0
aF627.0
aF99417.0
aa(lp274
F95172.0
aF636.0
aF99410.0
aa(lp275
F95200.0
aF632.0
aF99415.0
aa(lp276
F95202.0
aF624.0
aF99432.0
aa(lp277
F95221.0
aF629.0
aF99401.0
aa(lp278
F95228.0
aF624.0
aF99415.0
aa(lp279
F95248.0
aF619.0
aF99430.0
aa(lp280
F95251.0
aF628.0
aF99411.0
aa(lp281
F95257.0
aF622.0
aF99425.0
aa(lp282
F95282.0
aF595.0
aF99461.0
aa(lp283
F95286.0
aF609.0
aF99450.0
aa(lp284
F95337.0
aF621.0
aF99427.0
aa(lp285
F95360.0
aF621.0
aF99425.0
aa(lp286
F95372.0
aF621.0
aF99421.0
aa(lp287
F95403.0
aF617.0
aF99447.0
aa(lp288
F95437.0
aF607.0
aF99452.0
aa(lp289
F95437.0
aF605.0
aF99454.0
aa(lp290
F95450.0
aF607.0
aF99449.0
aa(lp291
F95460.0
aF616.0
aF99433.0
aa(lp292
F95465.0
aF603.0
aF99458.0
aa(lp293
F95492.0
aF611.0
aF99440.0
aa(lp294
F95496.0
aF576.0
aF99485.0
aa(lp295
F95499.0
aF597.0
aF99460.0
aa(lp296
F95508.0
aF596.0
aF99460.0
aa(lp297
F95520.0
aF592.0
aF99475.0
aa(lp298
F95525.0
aF601.0
aF99449.0
aa(lp299
F95528.0
aF597.0
aF99454.0
aa(lp300
F95528.0
aF600.0
aF99452.0
aa(lp301
F95530.0
aF609.0
aF99446.0
aa(lp302
F95540.0
aF594.0
aF99468.0
aa(lp303
F95551.0
aF600.0
aF99435.0
aa(lp304
F95562.0
aF597.0
aF99453.0
aa(lp305
F95572.0
aF592.0
aF99470.0
aa(lp306
F95578.0
aF596.0
aF99457.0
aa(lp307
F95582.0
aF575.0
aF99482.0
aa(lp308
F95617.0
aF593.0
aF99464.0
aa(lp309
F95629.0
aF552.0
aF99508.0
aa(lp310
F95635.0
aF592.0
aF99456.0
aa(lp311
F95672.0
aF589.0
aF99460.0
aa(lp312
F95701.0
aF589.0
aF99451.0
aa(lp313
F95712.0
aF568.0
aF99495.0
aa(lp314
F95724.0
aF554.0
aF99507.0
aa(lp315
F95749.0
aF586.0
aF99479.0
aa(lp316
F95765.0
aF572.0
aF99494.0
aa(lp317
F95770.0
aF551.0
aF99509.0
aa(lp318
F95799.0
aF579.0
aF99458.0
aa(lp319
F95825.0
aF570.0
aF99490.0
aa(lp320
F95843.0
aF578.0
aF99477.0
aa(lp321
F95851.0
aF565.0
aF99497.0
aa(lp322
F95855.0
aF565.0
aF99490.0
aa(lp323
F95864.0
aF571.0
aF99487.0
aa(lp324
F95877.0
aF573.0
aF99478.0
aa(lp325
F95882.0
aF500.0
aF99553.0
aa(lp326
F95887.0
aF499.0
aF99563.0
aa(lp327
F95910.0
aF524.0
aF99533.0
aa(lp328
F95922.0
aF564.0
aF99486.0
aa(lp329
F95924.0
aF557.0
aF99506.0
aa(lp330
F95945.0
aF577.0
aF99473.0
aa(lp331
F95947.0
aF562.0
aF99504.0
aa(lp332
F95948.0
aF545.0
aF99515.0
aa(lp333
F95949.0
aF548.0
aF99511.0
aa(lp334
F95957.0
aF538.0
aF99527.0
aa(lp335
F95957.0
aF555.0
aF99498.0
aa(lp336
F95959.0
aF526.0
aF99532.0
aa(lp337
F95965.0
aF554.0
aF99505.0
aa(lp338
F95967.0
aF520.0
aF99541.0
aa(lp339
F95969.0
aF522.0
aF99531.0
aa(lp340
F95970.0
aF513.0
aF99545.0
aa(lp341
F95976.0
aF534.0
aF99519.0
aa(lp342
F95978.0
aF556.0
aF99495.0
aa(lp343
F95986.0
aF508.0
aF99544.0
aa(lp344
F95991.0
aF523.0
aF99527.0
aa(lp345
F96002.0
aF547.0
aF99504.0
aa(lp346
F96002.0
aF548.0
aF99494.0
aa(lp347
F96007.0
aF539.0
aF99517.0
aa(lp348
F96024.0
aF523.0
aF99526.0
aa(lp349
F96055.0
aF535.0
aF99518.0
aa(lp350
F96063.0
aF530.0
aF99519.0
aa(lp351
F96065.0
aF544.0
aF99500.0
aa(lp352
F96092.0
aF543.0
aF99512.0
aa(lp353
F96096.0
aF535.0
aF99514.0
aa(lp354
F96103.0
aF516.0
aF99539.0
aa(lp355
F96103.0
aF529.0
aF99523.0
aa(lp356
F96121.0
aF521.0
aF99528.0
aa(lp357
F96123.0
aF537.0
aF99510.0
aa(lp358
F96140.0
aF510.0
aF99540.0
aa(lp359
F96150.0
aF517.0
aF99526.0
aa(lp360
F96155.0
aF522.0
aF99524.0
aa(lp361
F96173.0
aF512.0
aF99532.0
aa(lp362
F96176.0
aF504.0
aF99552.0
aa(lp363
F96182.0
aF496.0
aF99549.0
aa(lp364
F96190.0
aF532.0
aF99508.0
aa(lp365
F96192.0
aF534.0
aF99498.0
aa(lp366
F96215.0
aF512.0
aF99530.0
aa(lp367
F96219.0
aF523.0
aF99522.0
aa(lp368
F96222.0
aF506.0
aF99535.0
aa(lp369
F96230.0
aF504.0
aF99533.0
aa(lp370
F96234.0
aF495.0
aF99554.0
aa(lp371
F96251.0
aF493.0
aF99565.0
aa(lp372
F96265.0
aF480.0
aF99563.0
aa(lp373
F96267.0
aF500.0
aF99548.0
aa(lp374
F96268.0
aF489.0
aF99554.0
aa(lp375
F96328.0
aF465.0
aF99587.0
aa(lp376
F96351.0
aF458.0
aF99595.0
aa(lp377
F96368.0
aF474.0
aF99580.0
aa(lp378
F96384.0
aF511.0
aF99531.0
aa(lp379
F96392.0
aF500.0
aF99543.0
aa(lp380
F96416.0
aF480.0
aF99553.0
aa(lp381
F96419.0
aF503.0
aF99541.0
aa(lp382
F96448.0
aF492.0
aF99551.0
aa(lp383
F96470.0
aF449.0
aF99591.0
aa(lp384
F96523.0
aF470.0
aF99576.0
aa(lp385
F96543.0
aF437.0
aF99594.0
aa(lp386
F96679.0
aF422.0
aF99586.0
aassS'../../Data/POM3A.csv'
p387
(dp388
g3
(lp389
(lp390
F164.24201306
aF0.35792378077500003
aF0.714285714286
aa(lp391
F287.56022978
aF0.6934865129109999
aF0.647058823529
aa(lp392
F336.659227263
aF0.266572987137
aF0.724137931034
aa(lp393
F339.854003816
aF0.637098420433
aF0.625
aa(lp394
F357.68464869800005
aF0.841889480617
aF0.0
aa(lp395
F378.200471928
aF0.831983494297
aF0.14285714285700002
aa(lp396
F412.982965329
aF0.506957607944
aF0.7
aa(lp397
F422.580193489
aF0.5656853538350001
aF0.666666666667
aa(lp398
F436.529820601
aF0.7919881675920001
aF0.25
aa(lp399
F497.953851585
aF0.47775360333899997
aF0.679487179487
aa(lp400
F506.63944828900003
aF0.419642981684
aF0.6842105263160001
aa(lp401
F554.842289552
aF0.593117755396
aF0.647058823529
aa(lp402
F579.250290045
aF0.249660591189
aF0.7539882451719999
aa(lp403
F585.835599173
aF0.5540183431660001
aF0.666666666667
aa(lp404
F593.106316732
aF0.41668533064
aF0.673913043478
aa(lp405
F676.076222572
aF0.202475999664
aF0.708661417323
aa(lp406
F679.627653299
aF0.542468688046
aF0.625
aa(lp407
F776.79746563
aF0.416484632243
aF0.6842105263160001
aa(lp408
F797.190005916
aF0.7870670174590001
aF0.6
aa(lp409
F814.929857225
aF0.80235316714
aF0.0
aa(lp410
F834.764598133
aF0.130728073744
aF0.6956521739129999
aa(lp411
F841.2038791660001
aF0.224718589213
aF0.6728971962620001
aa(lp412
F849.026889941
aF0.599060319708
aF0.6
aa(lp413
F875.0808315260001
aF0.660541808614
aF0.5
aa(lp414
F892.138812343
aF0.310162165022
aF0.666666666667
aa(lp415
F908.8605874460001
aF0.279880195704
aF0.666666666667
aa(lp416
F915.4536095560001
aF0.599558303641
aF0.56338028169
aa(lp417
F924.607023627
aF0.739689991366
aF0.0
aa(lp418
F941.433103278
aF0.736812799243
aF0.0
aa(lp419
F970.6717725139999
aF0.5348481423529999
aF0.625
aa(lp420
F985.5344624869999
aF0.5533245293169999
aF0.573170731707
aa(lp421
F1006.61329221
aF0.549938432373
aF0.52934662237
aa(lp422
F1109.69164311
aF0.529368598774
aF0.576923076923
aa(lp423
F1191.07067259
aF0.425997886537
aF0.663043478261
aa(lp424
F1212.17594351
aF0.563570091305
aF0.516129032258
aa(lp425
F1216.51975393
aF0.39621071191299995
aF0.648314606742
aa(lp426
F1347.31959814
aF0.43256522097800004
aF0.6477272727269999
aa(lp427
F1365.14643862
aF0.6839025976440001
aF0.0
aa(lp428
F1396.02923805
aF0.27606055040399996
aF0.6597222222219999
aa(lp429
F1415.4294240999998
aF0.277840489764
aF0.641074856046
aa(lp430
F1417.34860708
aF0.452514736523
aF0.63829787234
aa(lp431
F1422.64037974
aF0.505242540582
aF0.563909774436
aa(lp432
F1436.14908255
aF0.484023501873
aF0.636363636364
aa(lp433
F1451.14283206
aF0.597834131114
aF0.507692307692
aa(lp434
F1508.39386971
aF0.18865761438
aF0.685897435897
aa(lp435
F1531.67900963
aF0.517786756062
aF0.540983606557
aa(lp436
F1619.59602295
aF0.6795586621549999
aF0.488372093023
aa(lp437
F1636.03960155
aF0.581222467047
aF0.450261780105
aa(lp438
F1637.77875347
aF0.5548906850590001
aF0.47186700767300005
aa(lp439
F1640.91237026
aF0.493189287624
aF0.5376344086020001
aa(lp440
F1669.21593844
aF0.525583506845
aF0.520930232558
aa(lp441
F1679.68772651
aF0.624497059089
aF0.418181818182
aa(lp442
F1686.80626394
aF0.651231705526
aF0.210526315789
aa(lp443
F1693.98526664
aF0.612858102035
aF0.416666666667
aa(lp444
F1725.23751472
aF0.625361118083
aF0.369881109643
aa(lp445
F1756.99436039
aF0.6008970444889999
aF0.41796875
aa(lp446
F1777.58639585
aF0.608008076865
aF0.315447154472
aa(lp447
F1932.38002904
aF0.590712280797
aF0.413664596273
aa(lp448
F2015.77980238
aF0.482916824113
aF0.477560414269
aa(lp449
F2073.56864446
aF0.5049347459529999
aF0.464788732394
aa(lp450
F2087.3554322
aF0.579431935287
aF0.314907872697
aa(lp451
F2125.24796944
aF0.62828862654
aF0.254867256637
aa(lp452
F2147.61425022
aF0.597517936565
aF0.27358490566
aa(lp453
F2276.60548157
aF0.477638121916
aF0.53125
aa(lp454
F2280.25030675
aF0.576803391372
aF0.37324840764300005
aa(lp455
F2525.75271524
aF0.5753740581669999
aF0.0631578947368
aa(lp456
F2528.19980202
aF0.550121504869
aF0.162393162393
aa(lp457
F2569.05954932
aF0.500197086935
aF0.45285524568400004
aa(lp458
F2656.81475108
aF0.580061782716
aF0.0
aa(lp459
F2677.52931225
aF0.46927829581999997
aF0.632306057386
aa(lp460
F2836.49591382
aF0.388889245268
aF0.41944074567199996
aa(lp461
F2884.36190927
aF0.512475054213
aF0.40922190201700004
aassS'../../Data/MONRP_50_4_5_0_110.csv'
p462
(dp463
g3
(lp464
(lp465
F95257.0
aF727.0
aF99466.0
aa(lp466
F95290.0
aF711.0
aF99479.0
aa(lp467
F95366.0
aF696.0
aF99502.0
aa(lp468
F95426.0
aF697.0
aF99494.0
aa(lp469
F95438.0
aF714.0
aF99477.0
aa(lp470
F95492.0
aF710.0
aF99478.0
aa(lp471
F95492.0
aF700.0
aF99493.0
aa(lp472
F95512.0
aF700.0
aF99488.0
aa(lp473
F95533.0
aF703.0
aF99487.0
aa(lp474
F95536.0
aF694.0
aF99498.0
aa(lp475
F95539.0
aF676.0
aF99518.0
aa(lp476
F95584.0
aF693.0
aF99501.0
aa(lp477
F95584.0
aF698.0
aF99493.0
aa(lp478
F95587.0
aF696.0
aF99495.0
aa(lp479
F95597.0
aF694.0
aF99496.0
aa(lp480
F95605.0
aF709.0
aF99476.0
aa(lp481
F95620.0
aF705.0
aF99485.0
aa(lp482
F95643.0
aF670.0
aF99530.0
aa(lp483
F95649.0
aF696.0
aF99493.0
aa(lp484
F95701.0
aF689.0
aF99514.0
aa(lp485
F95783.0
aF679.0
aF99517.0
aa(lp486
F95792.0
aF668.0
aF99527.0
aa(lp487
F95793.0
aF692.0
aF99507.0
aa(lp488
F95793.0
aF693.0
aF99486.0
aa(lp489
F95794.0
aF674.0
aF99521.0
aa(lp490
F95804.0
aF669.0
aF99525.0
aa(lp491
F95812.0
aF650.0
aF99550.0
aa(lp492
F95835.0
aF679.0
aF99510.0
aa(lp493
F95855.0
aF667.0
aF99529.0
aa(lp494
F95877.0
aF673.0
aF99516.0
aa(lp495
F95885.0
aF653.0
aF99543.0
aa(lp496
F95886.0
aF670.0
aF99513.0
aa(lp497
F95898.0
aF676.0
aF99512.0
aa(lp498
F95909.0
aF668.0
aF99511.0
aa(lp499
F95914.0
aF684.0
aF99508.0
aa(lp500
F95943.0
aF631.0
aF99565.0
aa(lp501
F95954.0
aF665.0
aF99533.0
aa(lp502
F95957.0
aF632.0
aF99558.0
aa(lp503
F95966.0
aF638.0
aF99555.0
aa(lp504
F95966.0
aF667.0
aF99519.0
aa(lp505
F95996.0
aF666.0
aF99530.0
aa(lp506
F96023.0
aF649.0
aF99548.0
aa(lp507
F96032.0
aF608.0
aF99586.0
aa(lp508
F96034.0
aF652.0
aF99541.0
aa(lp509
F96040.0
aF612.0
aF99580.0
aa(lp510
F96061.0
aF663.0
aF99539.0
aa(lp511
F96083.0
aF656.0
aF99527.0
aa(lp512
F96083.0
aF627.0
aF99567.0
aa(lp513
F96101.0
aF649.0
aF99544.0
aa(lp514
F96103.0
aF654.0
aF99528.0
aa(lp515
F96123.0
aF644.0
aF99554.0
aa(lp516
F96124.0
aF636.0
aF99557.0
aa(lp517
F96127.0
aF560.0
aF99614.0
aa(lp518
F96135.0
aF630.0
aF99563.0
aa(lp519
F96162.0
aF642.0
aF99541.0
aa(lp520
F96179.0
aF623.0
aF99577.0
aa(lp521
F96184.0
aF641.0
aF99548.0
aa(lp522
F96185.0
aF534.0
aF99635.0
aa(lp523
F96190.0
aF606.0
aF99581.0
aa(lp524
F96196.0
aF565.0
aF99609.0
aa(lp525
F96203.0
aF589.0
aF99600.0
aa(lp526
F96207.0
aF612.0
aF99579.0
aa(lp527
F96241.0
aF564.0
aF99612.0
aa(lp528
F96243.0
aF650.0
aF99538.0
aa(lp529
F96293.0
aF623.0
aF99573.0
aa(lp530
F96297.0
aF597.0
aF99593.0
aa(lp531
F96303.0
aF626.0
aF99571.0
aa(lp532
F96314.0
aF625.0
aF99558.0
aa(lp533
F96326.0
aF599.0
aF99592.0
aa(lp534
F96336.0
aF635.0
aF99557.0
aa(lp535
F96344.0
aF605.0
aF99582.0
aa(lp536
F96345.0
aF589.0
aF99594.0
aa(lp537
F96348.0
aF622.0
aF99563.0
aa(lp538
F96355.0
aF619.0
aF99559.0
aa(lp539
F96371.0
aF593.0
aF99585.0
aa(lp540
F96375.0
aF612.0
aF99563.0
aa(lp541
F96375.0
aF586.0
aF99596.0
aa(lp542
F96392.0
aF621.0
aF99556.0
aa(lp543
F96396.0
aF600.0
aF99578.0
aa(lp544
F96398.0
aF584.0
aF99592.0
aa(lp545
F96398.0
aF596.0
aF99580.0
aa(lp546
F96404.0
aF584.0
aF99591.0
aa(lp547
F96424.0
aF532.0
aF99628.0
aa(lp548
F96427.0
aF595.0
aF99579.0
aa(lp549
F96434.0
aF564.0
aF99608.0
aa(lp550
F96442.0
aF563.0
aF99611.0
aa(lp551
F96450.0
aF610.0
aF99573.0
aa(lp552
F96454.0
aF615.0
aF99558.0
aa(lp553
F96460.0
aF592.0
aF99588.0
aa(lp554
F96465.0
aF590.0
aF99588.0
aa(lp555
F96479.0
aF563.0
aF99610.0
aa(lp556
F96480.0
aF580.0
aF99604.0
aa(lp557
F96484.0
aF577.0
aF99603.0
aa(lp558
F96484.0
aF583.0
aF99599.0
aa(lp559
F96488.0
aF608.0
aF99565.0
aa(lp560
F96495.0
aF568.0
aF99599.0
aa(lp561
F96516.0
aF561.0
aF99604.0
aa(lp562
F96518.0
aF582.0
aF99588.0
aa(lp563
F96518.0
aF603.0
aF99569.0
aa(lp564
F96518.0
aF563.0
aF99603.0
aa(lp565
F96530.0
aF566.0
aF99602.0
aa(lp566
F96538.0
aF575.0
aF99596.0
aa(lp567
F96558.0
aF582.0
aF99586.0
aa(lp568
F96564.0
aF557.0
aF99609.0
aa(lp569
F96578.0
aF566.0
aF99601.0
aa(lp570
F96583.0
aF558.0
aF99605.0
aa(lp571
F96618.0
aF556.0
aF99616.0
aa(lp572
F96629.0
aF572.0
aF99590.0
aa(lp573
F96636.0
aF578.0
aF99588.0
aa(lp574
F96637.0
aF554.0
aF99601.0
aa(lp575
F96637.0
aF602.0
aF99575.0
aa(lp576
F96645.0
aF577.0
aF99572.0
aa(lp577
F96685.0
aF566.0
aF99600.0
aa(lp578
F96729.0
aF569.0
aF99589.0
aa(lp579
F96767.0
aF519.0
aF99636.0
aa(lp580
F96784.0
aF553.0
aF99618.0
aa(lp581
F96816.0
aF546.0
aF99627.0
aa(lp582
F96834.0
aF496.0
aF99650.0
aa(lp583
F96838.0
aF517.0
aF99639.0
aa(lp584
F96874.0
aF516.0
aF99647.0
aa(lp585
F96889.0
aF525.0
aF99635.0
aa(lp586
F96900.0
aF507.0
aF99634.0
aa(lp587
F96927.0
aF549.0
aF99624.0
aa(lp588
F96980.0
aF489.0
aF99657.0
aa(lp589
F97031.0
aF485.0
aF99660.0
aa(lp590
F97037.0
aF500.0
aF99627.0
aa(lp591
F97166.0
aF544.0
aF99622.0
aa(lp592
F97219.0
aF485.0
aF99653.0
aassS'../../Data/POM3D.csv'
p593
(dp594
g3
(lp595
(lp596
F0.0
aF1.0
aF0.0
aa(lp597
F0.0
aF1.0
aF0.0
aa(lp598
F0.0
aF1.0
aF0.0
aa(lp599
F0.0
aF1.0
aF0.0
aa(lp600
F0.0
aF1.0
aF0.0
aa(lp601
F0.0
aF1.0
aF0.0
aa(lp602
F0.0
aF1.0
aF0.0
aa(lp603
F0.0
aF1.0
aF0.0
aa(lp604
F212.803541705
aF0.123487949384
aF0.7272727272730001
aa(lp605
F324.55789818200003
aF0.282179008422
aF0.666666666667
aa(lp606
F326.321727148
aF0.267279172281
aF0.5
aa(lp607
F414.18258802800005
aF0.152248137673
aF0.7
aa(lp608
F422.154760446
aF0.0789607066493
aF0.7272727272730001
aa(lp609
F426.40588851
aF0.5714651865370001
aF0.0
aa(lp610
F444.998630877
aF0.0469440380988
aF0.7
aa(lp611
F481.73377722099997
aF0.17228981329999998
aF0.6818181818179999
aa(lp612
F499.089822588
aF0.26456756236699996
aF0.625
aa(lp613
F524.612998979
aF0.265965497927
aF0.0
aa(lp614
F548.141260579
aF0.250222940022
aF0.588235294118
aa(lp615
F548.3203254069999
aF0.254674814469
aF0.42105263157899997
aa(lp616
F581.659483424
aF0.0507965579873
aF0.68
aa(lp617
F599.559610698
aF0.23668679655000002
aF0.666666666667
aa(lp618
F619.25195026
aF0.206388807025
aF0.5
aa(lp619
F645.022780227
aF0.184056454336
aF0.5535714285710001
aa(lp620
F651.183928165
aF0.0467295205883
aF0.6842105263160001
aa(lp621
F672.224829659
aF0.154792134619
aF0.666666666667
aa(lp622
F686.895911001
aF0.114008197626
aF0.647058823529
aa(lp623
F748.741254638
aF0.2272945828
aF0.352272727273
aa(lp624
F781.237503401
aF0.101863570177
aF0.652173913043
aa(lp625
F842.5456825069999
aF0.21850429905699997
aF0.357142857143
aa(lp626
F855.540529278
aF0.190303855123
aF0.546875
aa(lp627
F888.5227672110001
aF0.21059121875999998
aF0.426229508197
aa(lp628
F926.255580902
aF0.142741096892
aF0.630136986301
aa(lp629
F934.911204405
aF0.15500278688400002
aF0.538461538462
aa(lp630
F943.621351045
aF0.127598348036
aF0.5853658536590001
aa(lp631
F949.7376593360001
aF0.175757212346
aF0.470588235294
aa(lp632
F983.602968512
aF0.10924481943099999
aF0.552941176471
aa(lp633
F1008.99673579
aF0.141102040724
aF0.52808988764
aa(lp634
F1012.16898423
aF0.179756815304
aF0.45348837209299997
aa(lp635
F1020.78450795
aF0.0544832015472
aF0.636363636364
aa(lp636
F1028.46801781
aF0.10718032845599999
aF0.6147540983609999
aa(lp637
F1039.82957753
aF0.14127027070999998
aF0.52380952381
aa(lp638
F1042.91521698
aF0.0726566507366
aF0.579545454545
aa(lp639
F1078.44675778
aF0.08818286424039999
aF0.529411764706
aa(lp640
F1091.39856503
aF0.069716205155
aF0.558823529412
aa(lp641
F1151.31457626
aF0.173410184415
aF0.515151515152
aa(lp642
F1152.66273433
aF0.0671062499282
aF0.591836734694
aa(lp643
F1192.13334009
aF0.057297426884900006
aF0.519480519481
aa(lp644
F1213.2173117
aF0.05201451261559999
aF0.5612244897959999
aa(lp645
F1237.03962106
aF0.195612997663
aF0.34210526315800005
aa(lp646
F1255.01862626
aF0.133934235956
aF0.48148148148100006
aa(lp647
F1317.2479488
aF0.0873862661716
aF0.517647058824
aa(lp648
F1329.45360145
aF0.140311999147
aF0.45098039215700003
aa(lp649
F1336.83756773
aF0.04461170524019999
aF0.52
aa(lp650
F1367.37329747
aF0.14431691052200002
aF0.415094339623
aa(lp651
F1399.94810116
aF0.0384029551746
aF0.530120481928
aa(lp652
F1450.63528641
aF0.0159679228667
aF0.475409836066
aa(lp653
F1451.42237709
aF0.07075004093580001
aF0.40909090909100004
aa(lp654
F1459.07484037
aF0.0626545714407
aF0.444444444444
aassS'../../Data/wc+sol-3d-c4.csv'
p655
(dp656
g3
(lp657
(lp658
F3983.3
aF2.585
aa(lp659
F4032.0
aF2.6341
aa(lp660
F4097.1
aF2.6345
aa(lp661
F6209.4
aF83712.0
aa(lp662
F35978.0
aF85576.0
aa(lp663
F41319.0
aF90593.0
aa(lp664
F48918.0
aF93904.0
aassS'../../Data/wc-6d-c1.csv'
p665
(dp666
g3
(lp667
(lp668
F72.75
aF101.46
aa(lp669
F78.75
aF102.09
aa(lp670
F84.529
aF218.24
aa(lp671
F2650.9
aF14945.0
aa(lp672
F2839.4
aF15685.0
aa(lp673
F3895.5
aF26230.0
aa(lp674
F4442.8
aF42230.0
aa(lp675
F4457.9
aF46122.0
aa(lp676
F5004.2
aF49673.0
aa(lp677
F5908.3
aF50901.0
aa(lp678
F6389.0
aF52019.0
aa(lp679
F6830.5
aF53402.0
aa(lp680
F7718.5
aF55209.0
aassS'../../Data/wc-c3-3d-c1.csv'
p681
(dp682
g3
(lp683
(lp684
F121.5
aF49172.0
aa(lp685
F129.67
aF52729.0
aa(lp686
F160.0
aF57645.0
aassS'../../Data/POM3B.csv'
p687
(dp688
g3
(lp689
(lp690
F0.0
aF1.0
aF0.0
aa(lp691
F1681.70610932
aF0.9133654970980001
aF0.0
aa(lp692
F1913.94463853
aF0.57468636577
aF0.8181818181820001
aa(lp693
F2011.00579154
aF0.54005884651
aF0.705882352941
aa(lp694
F3818.05238992
aF0.720040919475
aF0.631578947368
aa(lp695
F6077.47942389
aF0.699187172439
aF0.666666666667
aa(lp696
F6388.96720048
aF0.0496763973611
aF0.827586206897
aa(lp697
F7863.2550243000005
aF0.45478047825400003
aF0.826086956522
aa(lp698
F8094.89504513
aF0.6814266183600001
aF0.611111111111
aa(lp699
F8889.82171517
aF0.648078241367
aF0.625
aa(lp700
F10113.976426700001
aF0.60307686572
aF0.6842105263160001
aa(lp701
F11027.879228299998
aF0.557759466284
aF0.7
aa(lp702
F11679.512681799999
aF0.610332874808
aF0.608108108108
aa(lp703
F12080.3362293
aF0.477859487528
aF0.761904761905
aa(lp704
F12257.3012055
aF0.850303075011
aF0.25
aa(lp705
F12344.159478799998
aF0.5540112086600001
aF0.65
aa(lp706
F12478.0148737
aF0.784217344801
aF0.428571428571
aa(lp707
F12686.5664921
aF0.908153523959
aF0.0
aa(lp708
F12793.214559200002
aF0.7810550313869999
aF0.5
aa(lp709
F12940.995310200002
aF0.656038328257
aF0.6
aa(lp710
F13397.3677084
aF0.684838837466
aF0.5714285714289999
aa(lp711
F13522.098894100001
aF0.677347221103
aF0.5
aa(lp712
F14163.02704
aF0.74716416339
aF0.375
aa(lp713
F15004.3945211
aF0.553646675689
aF0.631578947368
aa(lp714
F15015.1569759
aF0.695524595892
aF0.307692307692
aa(lp715
F15440.4062152
aF0.5838897022689999
aF0.625
aa(lp716
F15797.514377899999
aF0.635775124911
aF0.6
aa(lp717
F15837.722163799997
aF0.645580506814
aF0.5573770491800001
aa(lp718
F16431.950532299998
aF0.74437468968
aF0.1
aa(lp719
F16743.7414696
aF0.6832252022030001
aF0.46153846153800004
aa(lp720
F17051.7570408
aF0.45288190386999994
aF0.708333333333
aa(lp721
F17364.4725058
aF0.8941902888940001
aF0.0
aa(lp722
F17955.469892400004
aF0.51581775646
aF0.619047619048
aa(lp723
F18640.2702903
aF0.632456997152
aF0.272727272727
aa(lp724
F19828.235882700003
aF0.48183092260899996
aF0.666666666667
aa(lp725
F20290.837118299998
aF0.628227341352
aF0.392857142857
aa(lp726
F21202.091267900003
aF0.676552968272
aF0.125
aa(lp727
F21637.1997162
aF0.7258945474240001
aF0.0769230769231
aa(lp728
F21789.4936475
aF0.6117374499399999
aF0.583333333333
aa(lp729
F21958.1614256
aF0.44559385574500004
aF0.686868686869
aa(lp730
F22706.460736
aF0.634333618602
aF0.07142857142860001
aa(lp731
F23272.707308700003
aF0.651645538113
aF0.05
aa(lp732
F23277.7839322
aF0.588356407594
aF0.423728813559
aa(lp733
F23533.061972
aF0.613775483086
aF0.376811594203
aa(lp734
F24058.928074400003
aF0.6498636248690001
aF0.0416666666667
aa(lp735
F24129.9711037
aF0.28185808646899996
aF0.7460317460320001
aa(lp736
F25174.457967299997
aF0.552523336945
aF0.618421052632
aa(lp737
F25258.037535099997
aF0.575650570895
aF0.49438202247199997
aa(lp738
F25356.105908700003
aF0.66662526277
aF0.0
aa(lp739
F25560.454963900003
aF0.547144957134
aF0.179487179487
aa(lp740
F26403.942589500002
aF0.566904323986
aF0.153846153846
aa(lp741
F26745.890949599998
aF0.543617765708
aF0.48
aa(lp742
F27208.279765400006
aF0.373641019063
aF0.6224489795920001
aa(lp743
F27947.2288987
aF0.620733885023
aF0.0588235294118
aa(lp744
F28145.8144043
aF0.546444975365
aF0.45652173913000005
aa(lp745
F28614.1010163
aF0.569628508223
aF0.0689655172414
aa(lp746
F30274.166945999998
aF0.527819101471
aF0.535714285714
aa(lp747
F33006.1270142
aF0.5144395326860001
aF0.615384615385
aa(lp748
F33276.5402384
aF0.526577143821
aF0.5094339622640001
aa(lp749
F33500.254622
aF0.43590795847400005
aF0.0
aa(lp750
F34227.640271599994
aF0.369948031829
aF0.5090909090910001
aassS'../../Data/wc+rs-3d-c4.csv'
p751
(dp752
g3
(lp753
(lp754
F4275.4
aF2.3254
aa(lp755
F4382.4
aF2.3919
aa(lp756
F4508.5
aF2.4379
aa(lp757
F7977.6
aF78965.0
aa(lp758
F9136.9
aF82037.0
aa(lp759
F42537.0
aF85607.0
aa(lp760
F54006.0
aF89234.0
aa(lp761
F55320.0
aF91290.0
aa(lp762
F57603.0
aF99722.0
aassS'../../Data/MONRP_50_4_5_4_110.csv'
p763
(dp764
g3
(lp765
(lp766
F92638.0
aF684.0
aF99384.0
aa(lp767
F92643.0
aF696.0
aF99370.0
aa(lp768
F92783.0
aF686.0
aF99383.0
aa(lp769
F92825.0
aF652.0
aF99429.0
aa(lp770
F92832.0
aF675.0
aF99392.0
aa(lp771
F92874.0
aF683.0
aF99384.0
aa(lp772
F92889.0
aF657.0
aF99417.0
aa(lp773
F92967.0
aF673.0
aF99397.0
aa(lp774
F92968.0
aF652.0
aF99421.0
aa(lp775
F92971.0
aF655.0
aF99416.0
aa(lp776
F92972.0
aF670.0
aF99406.0
aa(lp777
F93012.0
aF653.0
aF99419.0
aa(lp778
F93088.0
aF670.0
aF99404.0
aa(lp779
F93150.0
aF626.0
aF99456.0
aa(lp780
F93182.0
aF660.0
aF99414.0
aa(lp781
F93202.0
aF663.0
aF99412.0
aa(lp782
F93248.0
aF654.0
aF99416.0
aa(lp783
F93263.0
aF661.0
aF99411.0
aa(lp784
F93316.0
aF626.0
aF99454.0
aa(lp785
F93320.0
aF653.0
aF99417.0
aa(lp786
F93322.0
aF652.0
aF99418.0
aa(lp787
F93325.0
aF655.0
aF99411.0
aa(lp788
F93331.0
aF638.0
aF99447.0
aa(lp789
F93351.0
aF636.0
aF99448.0
aa(lp790
F93402.0
aF636.0
aF99445.0
aa(lp791
F93405.0
aF651.0
aF99428.0
aa(lp792
F93406.0
aF651.0
aF99419.0
aa(lp793
F93455.0
aF671.0
aF99403.0
aa(lp794
F93515.0
aF653.0
aF99413.0
aa(lp795
F93552.0
aF605.0
aF99478.0
aa(lp796
F93553.0
aF599.0
aF99483.0
aa(lp797
F93564.0
aF609.0
aF99475.0
aa(lp798
F93574.0
aF642.0
aF99443.0
aa(lp799
F93597.0
aF640.0
aF99437.0
aa(lp800
F93610.0
aF650.0
aF99434.0
aa(lp801
F93611.0
aF626.0
aF99453.0
aa(lp802
F93617.0
aF644.0
aF99429.0
aa(lp803
F93635.0
aF633.0
aF99447.0
aa(lp804
F93651.0
aF598.0
aF99489.0
aa(lp805
F93654.0
aF585.0
aF99500.0
aa(lp806
F93655.0
aF589.0
aF99493.0
aa(lp807
F93681.0
aF582.0
aF99505.0
aa(lp808
F93764.0
aF576.0
aF99507.0
aa(lp809
F93771.0
aF603.0
aF99480.0
aa(lp810
F93799.0
aF632.0
aF99451.0
aa(lp811
F93819.0
aF584.0
aF99498.0
aa(lp812
F93820.0
aF593.0
aF99491.0
aa(lp813
F93828.0
aF635.0
aF99445.0
aa(lp814
F93842.0
aF617.0
aF99473.0
aa(lp815
F93849.0
aF584.0
aF99495.0
aa(lp816
F93869.0
aF588.0
aF99494.0
aa(lp817
F93882.0
aF625.0
aF99461.0
aa(lp818
F93892.0
aF582.0
aF99501.0
aa(lp819
F93896.0
aF632.0
aF99445.0
aa(lp820
F93899.0
aF611.0
aF99472.0
aa(lp821
F93901.0
aF630.0
aF99450.0
aa(lp822
F93925.0
aF616.0
aF99469.0
aa(lp823
F93938.0
aF639.0
aF99439.0
aa(lp824
F93945.0
aF581.0
aF99499.0
aa(lp825
F93949.0
aF591.0
aF99491.0
aa(lp826
F93959.0
aF603.0
aF99479.0
aa(lp827
F93974.0
aF625.0
aF99446.0
aa(lp828
F93992.0
aF602.0
aF99481.0
aa(lp829
F94007.0
aF608.0
aF99477.0
aa(lp830
F94018.0
aF568.0
aF99520.0
aa(lp831
F94024.0
aF571.0
aF99508.0
aa(lp832
F94032.0
aF598.0
aF99485.0
aa(lp833
F94037.0
aF622.0
aF99467.0
aa(lp834
F94053.0
aF598.0
aF99479.0
aa(lp835
F94058.0
aF605.0
aF99477.0
aa(lp836
F94066.0
aF618.0
aF99454.0
aa(lp837
F94069.0
aF571.0
aF99507.0
aa(lp838
F94074.0
aF615.0
aF99464.0
aa(lp839
F94079.0
aF617.0
aF99451.0
aa(lp840
F94082.0
aF599.0
aF99476.0
aa(lp841
F94083.0
aF573.0
aF99505.0
aa(lp842
F94088.0
aF609.0
aF99471.0
aa(lp843
F94101.0
aF610.0
aF99465.0
aa(lp844
F94119.0
aF614.0
aF99451.0
aa(lp845
F94123.0
aF593.0
aF99490.0
aa(lp846
F94139.0
aF596.0
aF99489.0
aa(lp847
F94167.0
aF565.0
aF99520.0
aa(lp848
F94168.0
aF599.0
aF99473.0
aa(lp849
F94169.0
aF587.0
aF99493.0
aa(lp850
F94180.0
aF560.0
aF99523.0
aa(lp851
F94181.0
aF555.0
aF99532.0
aa(lp852
F94196.0
aF583.0
aF99498.0
aa(lp853
F94201.0
aF609.0
aF99458.0
aa(lp854
F94203.0
aF578.0
aF99501.0
aa(lp855
F94213.0
aF576.0
aF99503.0
aa(lp856
F94215.0
aF600.0
aF99462.0
aa(lp857
F94230.0
aF562.0
aF99522.0
aa(lp858
F94242.0
aF553.0
aF99527.0
aa(lp859
F94265.0
aF582.0
aF99489.0
aa(lp860
F94269.0
aF581.0
aF99491.0
aa(lp861
F94279.0
aF579.0
aF99500.0
aa(lp862
F94312.0
aF594.0
aF99488.0
aa(lp863
F94320.0
aF579.0
aF99499.0
aa(lp864
F94331.0
aF562.0
aF99519.0
aa(lp865
F94364.0
aF568.0
aF99515.0
aa(lp866
F94370.0
aF580.0
aF99489.0
aa(lp867
F94406.0
aF598.0
aF99476.0
aa(lp868
F94424.0
aF550.0
aF99548.0
aa(lp869
F94428.0
aF583.0
aF99487.0
aa(lp870
F94456.0
aF570.0
aF99512.0
aa(lp871
F94458.0
aF545.0
aF99536.0
aa(lp872
F94468.0
aF590.0
aF99484.0
aa(lp873
F94471.0
aF552.0
aF99529.0
aa(lp874
F94474.0
aF581.0
aF99479.0
aa(lp875
F94482.0
aF576.0
aF99502.0
aa(lp876
F94526.0
aF578.0
aF99497.0
aa(lp877
F94526.0
aF547.0
aF99534.0
aa(lp878
F94527.0
aF532.0
aF99550.0
aa(lp879
F94528.0
aF556.0
aF99518.0
aa(lp880
F94534.0
aF576.0
aF99490.0
aa(lp881
F94539.0
aF546.0
aF99530.0
aa(lp882
F94539.0
aF501.0
aF99580.0
aa(lp883
F94544.0
aF499.0
aF99569.0
aa(lp884
F94548.0
aF556.0
aF99516.0
aa(lp885
F94562.0
aF538.0
aF99539.0
aa(lp886
F94574.0
aF557.0
aF99511.0
aa(lp887
F94589.0
aF569.0
aF99510.0
aa(lp888
F94600.0
aF525.0
aF99546.0
aa(lp889
F94604.0
aF537.0
aF99536.0
aa(lp890
F94626.0
aF542.0
aF99525.0
aa(lp891
F94629.0
aF559.0
aF99504.0
aa(lp892
F94643.0
aF571.0
aF99497.0
aa(lp893
F94658.0
aF517.0
aF99546.0
aa(lp894
F94669.0
aF554.0
aF99523.0
aa(lp895
F94696.0
aF560.0
aF99500.0
aa(lp896
F94697.0
aF555.0
aF99512.0
aa(lp897
F94715.0
aF536.0
aF99545.0
aa(lp898
F94720.0
aF496.0
aF99568.0
aa(lp899
F94726.0
aF519.0
aF99544.0
aa(lp900
F94731.0
aF490.0
aF99567.0
aa(lp901
F94748.0
aF522.0
aF99541.0
aa(lp902
F94754.0
aF532.0
aF99539.0
aa(lp903
F94770.0
aF516.0
aF99557.0
aa(lp904
F94797.0
aF532.0
aF99536.0
aa(lp905
F94824.0
aF531.0
aF99533.0
aa(lp906
F94829.0
aF531.0
aF99527.0
aa(lp907
F94893.0
aF540.0
aF99508.0
aa(lp908
F94904.0
aF535.0
aF99524.0
aa(lp909
F94931.0
aF515.0
aF99555.0
aa(lp910
F94931.0
aF505.0
aF99566.0
aa(lp911
F95019.0
aF487.0
aF99592.0
aa(lp912
F95044.0
aF523.0
aF99539.0
aa(lp913
F95050.0
aF493.0
aF99533.0
aa(lp914
F95064.0
aF453.0
aF99593.0
aa(lp915
F95087.0
aF483.0
aF99576.0
aa(lp916
F95108.0
aF481.0
aF99577.0
aa(lp917
F95168.0
aF428.0
aF99627.0
aa(lp918
F95344.0
aF489.0
aF99572.0
aassS'../../Data/llvm_input.csv'
p919
(dp920
g3
(lp921
(lp922
F266.32
aF11.0
aa(lp923
F267.43
aF12.0
aa(lp924
F269.47
aF18.0
aa(lp925
F270.4
aF19.0
aassS'../../Data/wc-5d-c5.csv'
p926
(dp927
g3
(lp928
(lp929
F2122.2
aF167.26
aa(lp930
F7600.2
aF259.56
aa(lp931
F7730.2
aF405.5
aassS'../../Data/POM3C.csv'
p932
(dp933
g3
(lp934
(lp935
F394.986575909
aF0.476490540792
aF0.675324675325
aa(lp936
F411.451865726
aF0.6450220115609999
aF0.545816733068
aa(lp937
F451.584232182
aF0.45340383143
aF0.699115044248
aa(lp938
F455.106573533
aF0.7269238731450001
aF0.0
aa(lp939
F541.808539832
aF0.6176148968949999
aF0.595419847328
aa(lp940
F582.4750367419999
aF0.716187511554
aF0.42105263157899997
aa(lp941
F682.726971836
aF0.500003568922
aF0.66369047619
aa(lp942
F683.196636785
aF0.610648791502
aF0.574468085106
aa(lp943
F772.29346517
aF0.595660278217
aF0.6
aa(lp944
F798.353590553
aF0.550753475419
aF0.617424242424
aa(lp945
F826.83517829
aF0.693286686867
aF0.490974729242
aa(lp946
F863.093228902
aF0.667519249947
aF0.510040160643
aa(lp947
F866.57956399
aF0.707558349023
aF0.46538461538500003
aa(lp948
F869.230867659
aF0.678610292527
aF0.5023474178399999
aa(lp949
F938.8130085480001
aF0.714437902364
aF0.09677419354839999
aa(lp950
F954.6886163339999
aF0.5643071973830001
aF0.606617647059
aa(lp951
F981.50690608
aF0.483408819486
aF0.67032967033
aa(lp952
F1013.54591787
aF0.501394774788
aF0.629120879121
aa(lp953
F1059.77948902
aF0.680122280904
aF0.492462311558
aa(lp954
F1097.44278389
aF0.48621675544299997
aF0.66582278481
aa(lp955
F1107.32605863
aF0.6831247416349999
aF0.464539007092
aa(lp956
F1115.7597582
aF0.6817454882260001
aF0.44357976653700004
aa(lp957
F1119.4524322
aF0.509351397798
aF0.613888888889
aa(lp958
F1135.78965507
aF0.512540372455
aF0.59748427673
aa(lp959
F1145.3007185000001
aF0.49372217373000005
aF0.624758220503
aa(lp960
F1156.59385235
aF0.485737810434
aF0.6379928315410001
aa(lp961
F1163.19475835
aF0.463873903703
aF0.697297297297
aa(lp962
F1178.35895167
aF0.427700991797
aF0.699346405229
aa(lp963
F1211.5986707999998
aF0.665848805221
aF0.5
aa(lp964
F1218.1106247999999
aF0.445105514489
aF0.671511627907
aa(lp965
F1227.64506219
aF0.443040269885
aF0.664739884393
aa(lp966
F1233.62217275
aF0.429150000272
aF0.673312883436
aa(lp967
F1263.90832621
aF0.6650233393339999
aF0.516806722689
aa(lp968
F1273.83464637
aF0.428546174124
aF0.670520231214
aa(lp969
F1284.56392329
aF0.701686549111
aF0.438818565401
aa(lp970
F1295.15873138
aF0.588981838389
aF0.591304347826
aa(lp971
F1323.27768573
aF0.651660773081
aF0.483682983683
aa(lp972
F1362.79645261
aF0.413386902255
aF0.686084142395
aa(lp973
F1406.01557874
aF0.456609012624
aF0.655290102389
aa(lp974
F1433.66394291
aF0.656096791777
aF0.48249027237400005
aa(lp975
F1501.38647408
aF0.6780452896220001
aF0.48076923076899997
aa(lp976
F1516.6451307
aF0.408939436479
aF0.692073170732
aa(lp977
F1593.74084025
aF0.448973506784
aF0.658088235294
aa(lp978
F1604.66965239
aF0.60735738781
aF0.5738831615119999
aa(lp979
F1616.25480005
aF0.40600547348099997
aF0.6830039525689999
aa(lp980
F1678.46780342
aF0.57103446235
aF0.579365079365
aa(lp981
F1719.48778956
aF0.5055091271769999
aF0.6205787781350001
aa(lp982
F1752.48162768
aF0.640545041513
aF0.5611814345989999
aa(lp983
F1755.21515665
aF0.6816275447840001
aF0.44365361803099995
aa(lp984
F1773.84503813
aF0.443815129837
aF0.658432708688
aa(lp985
F1784.75661124
aF0.664916691101
aF0.46354883081200005
aa(lp986
F1822.46350147
aF0.439299840866
aF0.6664133738600001
aa(lp987
F1832.75674193
aF0.487707777367
aF0.617747440273
aa(lp988
F1834.83056735
aF0.474250223403
aF0.639705882353
aa(lp989
F1862.94398502
aF0.424500459183
aF0.6773662551440001
aa(lp990
F1904.30958814
aF0.427974930273
aF0.655502392344
aa(lp991
F1913.78671423
aF0.6470473713329999
aF0.492805755396
aa(lp992
F1914.87605123
aF0.693202316585
aF0.361607142857
aa(lp993
F1930.80277908
aF0.632584461572
aF0.504464285714
aa(lp994
F1934.83132766
aF0.40996049469000007
aF0.655601659751
aa(lp995
F1958.9516616
aF0.606982334916
aF0.5762711864410001
aa(lp996
F1961.8874815000001
aF0.46114664354400003
aF0.65
aa(lp997
F1973.38027999
aF0.594406305056
aF0.542408376963
aa(lp998
F1978.49939458
aF0.6748329647650001
aF0.449541284404
aa(lp999
F2055.10021449
aF0.650593655743
aF0.37583001328000004
aa(lp1000
F2083.87308322
aF0.630671415106
aF0.541237113402
aa(lp1001
F2095.64672694
aF0.641230129915
aF0.44512946978999995
aa(lp1002
F2097.82218402
aF0.6342138626100001
aF0.43253467843599996
aa(lp1003
F2132.3135239
aF0.660404775616
aF0.346534653465
aa(lp1004
F2192.76404809
aF0.586303044226
aF0.49813200498099997
aa(lp1005
F2207.0462278
aF0.662961506963
aF0.342485549133
aa(lp1006
F2207.69709225
aF0.645972896666
aF0.35576923076899997
aa(lp1007
F2208.43029076
aF0.622775064478
aF0.47181372548999995
aa(lp1008
F2332.35448817
aF0.568244043816
aF0.548086866598
aa(lp1009
F2367.38898368
aF0.665177552519
aF0.272727272727
aa(lp1010
F2404.36015742
aF0.652274802007
aF0.0178041543027
aa(lp1011
F2405.39040096
aF0.613893410302
aF0.474903474903
aa(lp1012
F2446.14486271
aF0.46656960901100003
aF0.6498673740049999
aa(lp1013
F2458.74188504
aF0.460517189778
aF0.6135163674759999
aa(lp1014
F2509.72351286
aF0.633918757191
aF0.462299134734
aa(lp1015
F2521.15762605
aF0.424629815443
aF0.635197066911
aa(lp1016
F2532.09431325
aF0.607455246082
aF0.204176334107
aa(lp1017
F2539.26051799
aF0.59790540123
aF0.00641025641026
aa(lp1018
F2596.54355922
aF0.557096010706
aF0.5970149253729999
aa(lp1019
F2649.43123336
aF0.566871326143
aF0.238921001927
aa(lp1020
F2776.06783571
aF0.5450429549679999
aF0.103365384615
aassS'../../Data/wc+wc-3d-c4.csv'
p1021
(dp1022
g3
(lp1023
(lp1024
F3964.2
aF2.5503
aa(lp1025
F4156.9
aF2.5688
aa(lp1026
F4160.1
aF2.6057
aa(lp1027
F4294.7
aF4.7793
aa(lp1028
F7006.2
aF15.859000000000002
aa(lp1029
F7217.6
aF79248.0
aa(lp1030
F43406.0
aF83233.0
aa(lp1031
F44107.0
aF94541.0
aa(lp1032
F45856.0
aF105000.0
aass.