(dp0
S'evals'
p1
(dp2
S'MONRP_50_4_5_0_90_dataset1'
p3
(dp4
S'SWAY'
p5
I2
sS'AL2'
p6
I1
sS'NSGAII'
p7
I3
sS'SPEA2'
p8
I3
sS'AL'
p9
I4
ssS'MONRP_50_4_5_0_110_dataset1'
p10
(dp11
g5
I2
sg6
I1
sg7
I3
sg8
I3
sg9
I3
ssS'MONRP_50_4_5_0_110_dataset2'
p12
(dp13
g5
I2
sg6
I1
sg7
I3
sg8
I3
sg9
I4
ssS'MONRP_50_4_5_4_110_dataset1'
p14
(dp15
g5
I2
sg6
I1
sg7
I3
sg8
I3
sg9
I4
ssS'MONRP_50_4_5_4_110_dataset2'
p16
(dp17
g5
I2
sg6
I1
sg7
I3
sg8
I3
sg9
I4
ssS'MONRP_50_4_5_4_90_dataset2'
p18
(dp19
g5
I2
sg6
I1
sg7
I3
sg8
I3
sg9
I4
ssS'MONRP_50_4_5_4_90_dataset1'
p20
(dp21
g5
I2
sg6
I1
sg7
I3
sg8
I3
sg9
I4
ssS'MONRP_50_4_5_0_90_dataset2'
p22
(dp23
g5
I2
sg6
I1
sg7
I3
sg8
I3
sg9
I4
sssS'gd'
p24
(dp25
g3
(dp26
g5
I2
sg6
I1
sg7
I3
sg8
I3
sg9
I4
ssg10
(dp27
g5
I2
sg6
I1
sg7
I3
sg8
I3
sg9
I3
ssg12
(dp28
g5
I2
sg6
I1
sg7
I3
sg8
I3
sg9
I4
ssg14
(dp29
g5
I2
sg6
I1
sg7
I3
sg8
I3
sg9
I4
ssg16
(dp30
g5
I2
sg6
I1
sg7
I3
sg8
I3
sg9
I4
ssg18
(dp31
g5
I2
sg6
I1
sg7
I3
sg8
I3
sg9
I4
ssg20
(dp32
g5
I2
sg6
I1
sg7
I3
sg8
I3
sg9
I4
ssg22
(dp33
g5
I2
sg6
I1
sg7
I3
sg8
I3
sg9
I4
sssS'igd'
p34
(dp35
g3
(dp36
g6
I1
sg5
I1
sg9
I1
sg8
I1
sg7
I1
ssg10
(dp37
g6
I3
sg5
I2
sg9
I1
sg8
I4
sg7
I4
ssg12
(dp38
g6
I2
sg5
I2
sg9
I1
sg8
I2
sg7
I2
ssg14
(dp39
g6
I3
sg5
I2
sg9
I1
sg8
I4
sg7
I4
ssg16
(dp40
g6
I2
sg5
I2
sg9
I1
sg8
I3
sg7
I3
ssg18
(dp41
g6
I2
sg5
I2
sg9
I1
sg8
I2
sg7
I2
ssg20
(dp42
g6
I1
sg5
I1
sg9
I1
sg8
I1
sg7
I1
ssg22
(dp43
g6
I2
sg5
I2
sg9
I1
sg8
I2
sg7
I3
sss.