(dp0
S'evals'
p1
(dp2
S'MONRP_50_4_5_0_90_dataset1'
p3
(dp4
S'SWAY'
p5
(lp6
I2
aF70.0
asS'AL2'
p7
(lp8
I1
aF33.0
asS'NSGAII'
p9
(lp10
I3
aF2100.0
asS'SPEA2'
p11
(lp12
I3
aF2100.0
assS'MONRP_50_4_5_0_110_dataset1'
p13
(dp14
g5
(lp15
I2
aF70.0
asg7
(lp16
I1
aF32.0
asg9
(lp17
I3
aF2100.0
asg11
(lp18
I3
aF2100.0
assS'MONRP_50_4_5_0_110_dataset2'
p19
(dp20
g5
(lp21
I2
aF70.0
asg7
(lp22
I1
aF36.0
asg9
(lp23
I3
aF2100.0
asg11
(lp24
I3
aF2100.0
assS'MONRP_50_4_5_4_110_dataset1'
p25
(dp26
g5
(lp27
I2
aF70.0
asg7
(lp28
I1
aF34.0
asg9
(lp29
I3
aF2100.0
asg11
(lp30
I3
aF2100.0
assS'MONRP_50_4_5_4_110_dataset2'
p31
(dp32
g5
(lp33
I2
aF70.0
asg7
(lp34
I1
aF36.0
asg9
(lp35
I3
aF2100.0
asg11
(lp36
I3
aF2100.0
assS'MONRP_50_4_5_4_90_dataset2'
p37
(dp38
g5
(lp39
I2
aF70.0
asg7
(lp40
I1
aF35.0
asg9
(lp41
I3
aF2100.0
asg11
(lp42
I3
aF2100.0
assS'MONRP_50_4_5_4_90_dataset1'
p43
(dp44
g5
(lp45
I2
aF70.0
asg7
(lp46
I1
aF34.0
asg9
(lp47
I3
aF2100.0
asg11
(lp48
I3
aF2100.0
assS'MONRP_50_4_5_0_90_dataset2'
p49
(dp50
g5
(lp51
I2
aF70.0
asg7
(lp52
I1
aF35.0
asg9
(lp53
I3
aF2100.0
asg11
(lp54
I3
aF2100.0
asssS'gd'
p55
(dp56
g3
(dp57
g5
(lp58
I1
aF0.07302
asg7
(lp59
I1
aF0.03207
asg9
(lp60
I1
aF0.21069
asg11
(lp61
I1
aF0.22992
assg13
(dp62
g5
(lp63
I2
aF0.06881
asg7
(lp64
I1
aF0.03287
asg9
(lp65
I3
aF0.37296
asg11
(lp66
I3
aF0.31395
assg19
(dp67
g5
(lp68
I1
aF0.01152
asg7
(lp69
I1
aF0.00581
asg9
(lp70
I1
aF0.02187
asg11
(lp71
I1
aF0.0257
assg25
(dp72
g5
(lp73
I2
aF0.04511
asg7
(lp74
I1
aF0.01742
asg9
(lp75
I1
aF0.01323
asg11
(lp76
I1
aF0.02432
assg31
(dp77
g5
(lp78
I1
aF0.01148
asg7
(lp79
I1
aF0.00581
asg9
(lp80
I2
aF0.02973
asg11
(lp81
I2
aF0.03712
assg37
(dp82
g5
(lp83
I1
aF0.01274
asg7
(lp84
I1
aF0.00689
asg9
(lp85
I1
aF0.0011
asg11
(lp86
I1
aF0.00119
assg43
(dp87
g5
(lp88
I1
aF0.04811
asg7
(lp89
I1
aF0.02473
asg9
(lp90
I1
aF0.14541
asg11
(lp91
I1
aF0.09156
assg49
(dp92
g5
(lp93
I1
aF0.01896
asg7
(lp94
I1
aF0.01099
asg9
(lp95
I1
aF0.00975
asg11
(lp96
I1
aF0.0056
asssS'igd'
p97
(dp98
g3
(dp99
g7
(lp100
I1
aF0.04715
asg5
(lp101
I1
aF0.02569
asg9
(lp102
I1
aF0.31802
asg11
(lp103
I1
aF0.32334
assg13
(dp104
g7
(lp105
I2
aF0.0418
asg5
(lp106
I1
aF0.02898
asg9
(lp107
I3
aF0.17641
asg11
(lp108
I3
aF0.19495
assg19
(dp109
g7
(lp110
I1
aF0.0207
asg5
(lp111
I1
aF0.01606
asg9
(lp112
I1
aF0.02199
asg11
(lp113
I1
aF0.01784
assg25
(dp114
g7
(lp115
I2
aF0.0302
asg5
(lp116
I1
aF0.01991
asg9
(lp117
I3
aF0.12723
asg11
(lp118
I3
aF0.1375
assg31
(dp119
g7
(lp120
I1
aF0.02051
asg5
(lp121
I1
aF0.01231
asg9
(lp122
I2
aF0.0408
asg11
(lp123
I2
aF0.03957
assg37
(dp124
g7
(lp125
I1
aF0.01801
asg5
(lp126
I1
aF0.01199
asg9
(lp127
I1
aF0.01677
asg11
(lp128
I1
aF0.01678
assg43
(dp129
g7
(lp130
I1
aF0.04336
asg5
(lp131
I1
aF0.03333
asg9
(lp132
I1
aF0.37676
asg11
(lp133
I1
aF0.39932
assg49
(dp134
g7
(lp135
I1
aF0.02398
asg5
(lp136
I1
aF0.01714
asg9
(lp137
I2
aF0.0484
asg11
(lp138
I1
aF0.03304
asss.