(dp0
S'evals'
p1
(dp2
S'MONRP_50_4_5_4_90'
p3
(dp4
S'MOEAD'
p5
(lp6
I3
aF2100.0
asS'SPEA2'
p7
(lp8
I3
aF2100.0
asS'AL2'
p9
(lp10
I1
aF57.0
asS'Flash4'
p11
(lp12
I1
aF59.0
asS'SWAY'
p13
(lp14
I2
aF70.0
asS'NSGAII'
p15
(lp16
I3
aF2100.0
assS'MONRP_50_4_5_0_110'
p17
(dp18
g5
(lp19
I3
aF2100.0
asg7
(lp20
I3
aF2100.0
asg9
(lp21
I1
aF55.0
asg11
(lp22
I1
aF59.0
asg13
(lp23
I2
aF70.0
asg15
(lp24
I3
aF2100.0
assS'MONRP_50_4_5_4_110'
p25
(dp26
g5
(lp27
I3
aF2100.0
asg7
(lp28
I3
aF2100.0
asg9
(lp29
I1
aF56.0
asg11
(lp30
I1
aF59.0
asg13
(lp31
I2
aF70.0
asg15
(lp32
I3
aF2100.0
assS'MONRP_50_4_5_0_90'
p33
(dp34
g5
(lp35
I4
aF2100.0
asg7
(lp36
I4
aF2100.0
asg9
(lp37
I1
aF53.0
asg11
(lp38
I2
aF59.0
asg13
(lp39
I3
aF70.0
asg15
(lp40
I4
aF2100.0
asssS'gd'
p41
(dp42
g3
(dp43
g5
(lp44
I3
aF0.35087
asg7
(lp45
I2
aF0.03624
asg9
(lp46
I1
aF0.00711
asg11
(lp47
I1
aF0.0054
asg13
(lp48
I1
aF0.01042
asg15
(lp49
I2
aF0.02978
assg17
(dp50
g5
(lp51
I3
aF0.19258
asg7
(lp52
I2
aF0.15092
asg9
(lp53
I1
aF0.0055
asg11
(lp54
I1
aF0.00542
asg13
(lp55
I1
aF0.00814
asg15
(lp56
I2
aF0.15386
assg25
(dp57
g5
(lp58
I2
aF0.2396
asg7
(lp59
I3
aF0.57393
asg9
(lp60
I1
aF0.00556
asg11
(lp61
I1
aF0.00525
asg13
(lp62
I1
aF0.0076
asg15
(lp63
I3
aF0.58526
assg33
(dp64
g5
(lp65
I3
aF0.6607
asg7
(lp66
I2
aF0.1957
asg9
(lp67
I1
aF0.0079
asg11
(lp68
I1
aF0.00861
asg13
(lp69
I1
aF0.01586
asg15
(lp70
I2
aF0.1998
asssS'igd'
p71
(dp72
g3
(dp73
g5
(lp74
I3
aF0.34107
asg7
(lp75
I2
aF0.13013
asg13
(lp76
I1
aF0.01646
asg11
(lp77
I1
aF0.01603
asg9
(lp78
I1
aF0.01947
asg15
(lp79
I2
aF0.19599
assg17
(dp80
g5
(lp81
I3
aF0.31756
asg7
(lp82
I2
aF0.17522
asg13
(lp83
I1
aF0.01074
asg11
(lp84
I1
aF0.01249
asg9
(lp85
I1
aF0.01303
asg15
(lp86
I2
aF0.18711
assg25
(dp87
g5
(lp88
I2
aF0.49445
asg7
(lp89
I3
aF1.08918
asg9
(lp90
I1
aF0.0145
asg11
(lp91
I1
aF0.01461
asg13
(lp92
I1
aF0.01793
asg15
(lp93
I3
aF1.09921
assg33
(dp94
g5
(lp95
I3
aF1.38812
asg7
(lp96
I2
aF0.61834
asg13
(lp97
I1
aF0.01573
asg11
(lp98
I1
aF0.02186
asg9
(lp99
I1
aF0.0223
asg15
(lp100
I2
aF0.60617
asss.