(dp0
S'evals'
p1
(dp2
S'MONRP_50_4_5_4_90'
p3
(dp4
S'SWAY'
p5
(lp6
I2
aF70.0
asS'AL2'
p7
(lp8
I1
aF57.0
asS'NSGAII'
p9
(lp10
I4
aF2100.0
asS'SPEA2'
p11
(lp12
I4
aF2100.0
asS'Flash3'
p13
(lp14
I3
aF655.0
assS'MONRP_50_4_5_0_110'
p15
(dp16
g5
(lp17
I2
aF70.0
asg7
(lp18
I1
aF55.0
asg9
(lp19
I4
aF2100.0
asg11
(lp20
I4
aF2100.0
asg13
(lp21
I3
aF697.0
assS'MONRP_50_4_5_4_110'
p22
(dp23
g5
(lp24
I2
aF70.0
asg7
(lp25
I1
aF56.0
asg9
(lp26
I4
aF2100.0
asg11
(lp27
I4
aF2100.0
asg13
(lp28
I3
aF703.0
assS'MONRP_50_4_5_0_90'
p29
(dp30
g5
(lp31
I2
aF70.0
asg7
(lp32
I1
aF53.0
asg9
(lp33
I4
aF2100.0
asg11
(lp34
I4
aF2100.0
asg13
(lp35
I3
aF655.0
asssS'gd'
p36
(dp37
g3
(dp38
g5
(lp39
I1
aF0.01042
asg7
(lp40
I1
aF0.00711
asg9
(lp41
I2
aF0.02978
asg11
(lp42
I2
aF0.03624
asg13
(lp43
I1
aF0.002
assg15
(dp44
g5
(lp45
I1
aF0.00814
asg7
(lp46
I1
aF0.0055
asg9
(lp47
I2
aF0.15386
asg11
(lp48
I2
aF0.15092
asg13
(lp49
I1
aF0.00183
assg22
(dp50
g5
(lp51
I1
aF0.0076
asg7
(lp52
I1
aF0.00556
asg9
(lp53
I2
aF0.58526
asg11
(lp54
I2
aF0.57393
asg13
(lp55
I1
aF0.00166
assg29
(dp56
g5
(lp57
I1
aF0.01586
asg7
(lp58
I1
aF0.0079
asg9
(lp59
I2
aF0.1998
asg11
(lp60
I2
aF0.1957
asg13
(lp61
I1
aF0.00286
asssS'igd'
p62
(dp63
g3
(dp64
g7
(lp65
I2
aF0.01947
asg5
(lp66
I2
aF0.01646
asg9
(lp67
I3
aF0.19599
asg11
(lp68
I3
aF0.13013
asg13
(lp69
I1
aF0.00505
assg15
(dp70
g7
(lp71
I1
aF0.01303
asg5
(lp72
I1
aF0.01074
asg9
(lp73
I2
aF0.18711
asg11
(lp74
I2
aF0.17522
asg13
(lp75
I1
aF0.00317
assg22
(dp76
g5
(lp77
I1
aF0.01793
asg7
(lp78
I1
aF0.0145
asg9
(lp79
I2
aF1.09921
asg11
(lp80
I2
aF1.08918
asg13
(lp81
I1
aF0.00446
assg29
(dp82
g7
(lp83
I1
aF0.0223
asg5
(lp84
I1
aF0.01573
asg9
(lp85
I2
aF0.60617
asg11
(lp86
I2
aF0.61834
asg13
(lp87
I1
aF0.00582
asss.