(dp0
S'./Data/wc+sol-3d-c4.csv'
p1
(dp2
S'evals'
p3
(lp4
I53
aI48
aI52
asS'gen_dist'
p5
(lp6
cnumpy.core.multiarray
scalar
p7
(cnumpy
dtype
p8
(S'f8'
p9
I0
I1
tp10
Rp11
(I3
S'<'
p12
NNNI-1
I-1
I0
tp13
bS'\xc2=7O)\xd1\x90?'
p14
tp15
Rp16
ag7
(g11
S'\xcf\x91\x87\xb3\x1fL\x92?'
p17
tp18
Rp19
ag7
(g11
S'I\xb3U\xd7\x8e\n\x95?'
p20
tp21
Rp22
assS'./Data/wc-c3-3d-c1.csv'
p23
(dp24
g3
(lp25
I69
aI44
aI53
asg5
(lp26
g7
(g11
S'0\x9a\x01\xfd\x16&s?'
p27
tp28
Rp29
ag7
(g11
S'\x93\x8f\x19\xd0Z\x9dj?'
p30
tp31
Rp32
ag7
(g11
S'X\xc9\xe7H\xb3\x0ff?'
p33
tp34
Rp35
assS'./Data/noc_CM_log.csv'
p36
(dp37
g3
(lp38
I39
aI35
aI32
asg5
(lp39
g7
(g11
S'L/N\xc6\xb2\xa7\xf0>'
p40
tp41
Rp42
ag7
(g11
S'L/N\xc6\xb2\xa7\xf0>'
p43
tp44
Rp45
ag7
(g11
S'\x08\x90\x87\x8ba1_?'
p46
tp47
Rp48
assS'./Data/wc-c1-3d-c1.csv'
p49
(dp50
g3
(lp51
I32
aI51
aI36
asg5
(lp52
g7
(g11
S'EW6gu&x?'
p53
tp54
Rp55
ag7
(g11
S'\x00\x00\x00\x00\x00\x00\x00\x00'
p56
tp57
Rp58
ag7
(g11
S'9\xb0\xa8\xa5C\x8f\x10?'
p59
tp60
Rp61
assS'./Data/llvm_input.csv'
p62
(dp63
g3
(lp64
I51
aI53
aI78
asg5
(lp65
g7
(g11
S'\xeb\x9fp\xfbo\x03R?'
p66
tp67
Rp68
ag7
(g11
S'\xc9%8aIxd?'
p69
tp70
Rp71
ag7
(g11
S'\xeb\x9fp\xfbo\x03R?'
p72
tp73
Rp74
assS'./Data/sort_256.csv'
p75
(dp76
g3
(lp77
I21
aI34
aI27
asg5
(lp78
g7
(g11
S':t\xb7d\xf4)\x9b?'
p79
tp80
Rp81
ag7
(g11
S'Z/\x07`\xdc7H?'
p82
tp83
Rp84
ag7
(g11
S'\x00\x00\x00\x00\x00\x00\x00\x00'
p85
tp86
Rp87
assS'./Data/wc-6d-c1.csv'
p88
(dp89
g3
(lp90
I118
aI119
aI144
asg5
(lp91
g7
(g11
S'c\x02\xe6r\x87/m?'
p92
tp93
Rp94
ag7
(g11
S'\x0c\xee-\x13\xe3\xffg?'
p95
tp96
Rp97
ag7
(g11
S'\x86\xbd\xf0A\x07\x02P?'
p98
tp99
Rp100
assS'./Data/wc+rs-3d-c4.csv'
p101
(dp102
g3
(lp103
I46
aI54
aI37
asg5
(lp104
g7
(g11
S'oei\xa6\x81Uf?'
p105
tp106
Rp107
ag7
(g11
S'\x00\x00\x00\x00\x00\x00\x00\x00'
p108
tp109
Rp110
ag7
(g11
S'\xc7[\x16,*\xf6\xb2?'
p111
tp112
Rp113
assS'./Data/wc-3d-c4.csv'
p114
(dp115
g3
(lp116
I83
aI47
aI80
asg5
(lp117
g7
(g11
S'o|\xcd\xcd#\x95f?'
p118
tp119
Rp120
ag7
(g11
S'\xf1\xe1\xf2\xee\xa8&y?'
p121
tp122
Rp123
ag7
(g11
S'\xf0T\x1a+\x87\x96\x80?'
p124
tp125
Rp126
assS'./Data/wc-5d-c5.csv'
p127
(dp128
g3
(lp129
I38
aI37
aI38
asg5
(lp130
g7
(g11
S'\x00\x00\x00\x00\x00\x00\x00\x00'
p131
tp132
Rp133
ag7
(g11
S'\x00\x00\x00\x00\x00\x00\x00\x00'
p134
tp135
Rp136
ag7
(g11
S'\xcbV\xfa\x7f\xad\xdb\xe2>'
p137
tp138
Rp139
assS'./Data/rs-6d-c3.csv'
p140
(dp141
g3
(lp142
I136
aI116
aI129
asg5
(lp143
g7
(g11
S'O\xe4\xfePL\xb0l?'
p144
tp145
Rp146
ag7
(g11
S'\x82\x93%6\xe5\x83=?'
p147
tp148
Rp149
ag7
(g11
S"\x1b'9'\xe1#I?"
p150
tp151
Rp152
assS'./Data/wc+wc-3d-c4.csv'
p153
(dp154
g3
(lp155
I48
aI38
aI47
asg5
(lp156
g7
(g11
S'\x95\xdek\xceZ\x9a\x90?'
p157
tp158
Rp159
ag7
(g11
S'\xb5\x9f\x83\x8a\xc7\x06\xa9?'
p160
tp161
Rp162
ag7
(g11
S'5\xd0a\x03\xa1z\x93?'
p163
tp164
Rp165
ass.