(dp0
S'./Data/wc+sol-3d-c4.csv'
p1
(dp2
S'evals'
p3
(lp4
I50
aI65
aI36
asS'gen_dist'
p5
(lp6
cnumpy.core.multiarray
scalar
p7
(cnumpy
dtype
p8
(S'f8'
p9
I0
I1
tp10
Rp11
(I3
S'<'
p12
NNNI-1
I-1
I0
tp13
bS'\x00\x07\xea\xdc\xe7@\x7f?'
p14
tp15
Rp16
ag7
(g11
S'_s]\\\xf3\x01P?'
p17
tp18
Rp19
ag7
(g11
S'\xbb p\x86\xd4\x06\x9b?'
p20
tp21
Rp22
assS'./Data/wc-c3-3d-c1.csv'
p23
(dp24
g3
(lp25
I38
aI51
aI42
asg5
(lp26
g7
(g11
S'j ~$\xef3r?'
p27
tp28
Rp29
ag7
(g11
S'\xeb\xd0X\xa1\x0cSg?'
p30
tp31
Rp32
ag7
(g11
S'\xef\xfc\x88j\xbc\x07f?'
p33
tp34
Rp35
assS'./Data/noc_CM_log.csv'
p36
(dp37
g3
(lp38
I32
aI37
aI24
asg5
(lp39
g7
(g11
S'\x00\x00\x00\x00\x00\x00\x00\x00'
p40
tp41
Rp42
ag7
(g11
S'L/N\xc6\xb2\xa7\xf0>'
p43
tp44
Rp45
ag7
(g11
S'Q\x847\xc7\xddqP?'
p46
tp47
Rp48
assS'./Data/wc-c1-3d-c1.csv'
p49
(dp50
g3
(lp51
I50
aI47
aI49
asg5
(lp52
g7
(g11
S'\xa7W\x05\xce\x19\x9b\r?'
p53
tp54
Rp55
ag7
(g11
S'\x00\x00\x00\x00\x00\x00\x00\x00'
p56
tp57
Rp58
ag7
(g11
S'\x97i\x06{\xff\xb8@?'
p59
tp60
Rp61
assS'./Data/llvm_input.csv'
p62
(dp63
g3
(lp64
I64
aI72
aI60
asg5
(lp65
g7
(g11
S'\xd9\xe4\x97^\x16\\d?'
p66
tp67
Rp68
ag7
(g11
S'\xeb\x9fp\xfbo\x03R?'
p69
tp70
Rp71
ag7
(g11
S'd\x0e\x06\x9cq-"?'
p72
tp73
Rp74
assS'./Data/sort_256.csv'
p75
(dp76
g3
(lp77
I24
aI26
aI30
asg5
(lp78
g7
(g11
S'Z/\x07`\xdc7H?'
p79
tp80
Rp81
ag7
(g11
S'Z/\x07`\xdc7H?'
p82
tp83
Rp84
ag7
(g11
S'Z/\x07`\xdc7H?'
p85
tp86
Rp87
assS'./Data/wc-6d-c1.csv'
p88
(dp89
g3
(lp90
I100
aI102
aI67
asg5
(lp91
g7
(g11
S'\n,\x82\x83\xbe\x19S?'
p92
tp93
Rp94
ag7
(g11
S'j\x8b?\x16Y\xa5\x89?'
p95
tp96
Rp97
ag7
(g11
S'\xd1\x99\x0b\xb1L\x06n?'
p98
tp99
Rp100
assS'./Data/wc+rs-3d-c4.csv'
p101
(dp102
g3
(lp103
I48
aI56
aI48
asg5
(lp104
g7
(g11
S'r\x8e\xe6\x9fN\xac\x8c?'
p105
tp106
Rp107
ag7
(g11
S'\x1dx\x87\xd1rxU?'
p108
tp109
Rp110
ag7
(g11
S'\x1e\x0e\xd1l\xa2*_?'
p111
tp112
Rp113
assS'./Data/wc-3d-c4.csv'
p114
(dp115
g3
(lp116
I49
aI34
aI43
asg5
(lp117
g7
(g11
S'\xf4\x86t6V\x01\x9a?'
p118
tp119
Rp120
ag7
(g11
S'r+\x05<\xc3\x94w?'
p121
tp122
Rp123
ag7
(g11
S'l\t\t\xc4BG\x91?'
p124
tp125
Rp126
assS'./Data/wc-5d-c5.csv'
p127
(dp128
g3
(lp129
I47
aI40
aI52
asg5
(lp130
g7
(g11
S'\x00\x00\x00\x00\x00\x00\x00\x00'
p131
tp132
Rp133
ag7
(g11
S'\x00\x00\x00\x00\x00\x00\x00\x00'
p134
tp135
Rp136
ag7
(g11
S'\xcbV\xfa\x7f\xad\xdb\xe2>'
p137
tp138
Rp139
assS'./Data/rs-6d-c3.csv'
p140
(dp141
g3
(lp142
I129
aI109
aI116
asg5
(lp143
g7
(g11
S'\xf1cJ#\xff\x93<?'
p144
tp145
Rp146
ag7
(g11
S'\xc4\xfe\x9d\x14v\xadB?'
p147
tp148
Rp149
ag7
(g11
S'Y4\xcbO\x97\x14C?'
p150
tp151
Rp152
assS'./Data/wc+wc-3d-c4.csv'
p153
(dp154
g3
(lp155
I43
aI52
aI55
asg5
(lp156
g7
(g11
S'\xcb/\xb6Y5\x95\x91?'
p157
tp158
Rp159
ag7
(g11
S'\x04z\xd8\x81\x84cr?'
p160
tp161
Rp162
ag7
(g11
S'\xb20_A\xb7(L?'
p163
tp164
Rp165
ass.