(dp0
S'./Data/wc+sol-3d-c4.csv'
p1
(dp2
S'evals'
p3
(lp4
I51
aI33
aI44
asS'gen_dist'
p5
(lp6
cnumpy.core.multiarray
scalar
p7
(cnumpy
dtype
p8
(S'f8'
p9
I0
I1
tp10
Rp11
(I3
S'<'
p12
NNNI-1
I-1
I0
tp13
bS'\xc1\x05\xa4\xfe\x89\x80\x96?'
p14
tp15
Rp16
ag7
(g11
S'\xca\x81@HN\xc0\xc0?'
p17
tp18
Rp19
ag7
(g11
S'Iq\x95O\xf6\xd6\x8c?'
p20
tp21
Rp22
assS'./Data/wc-c3-3d-c1.csv'
p23
(dp24
g3
(lp25
I34
aI30
aI54
asg5
(lp26
g7
(g11
S'yo0\xcd\xaf;j?'
p27
tp28
Rp29
ag7
(g11
S'\xb8\xbf1\xf9\xc3\x8a^?'
p30
tp31
Rp32
ag7
(g11
S'\x871\xe0b\xd5\x01e?'
p33
tp34
Rp35
assS'./Data/noc_CM_log.csv'
p36
(dp37
g3
(lp38
I30
aI25
aI36
asg5
(lp39
g7
(g11
S'L/N\xc6\xb2\xa7\xf0>'
p40
tp41
Rp42
ag7
(g11
S'\xc5\xc8\xa0V\x00t_?'
p43
tp44
Rp45
ag7
(g11
S'\x00\x00\x00\x00\x00\x00\x00\x00'
p46
tp47
Rp48
assS'./Data/wc-c1-3d-c1.csv'
p49
(dp50
g3
(lp51
I25
aI28
aI31
asg5
(lp52
g7
(g11
S'O\x9c3\xc4l\xa1L?'
p53
tp54
Rp55
ag7
(g11
S'\x00\x00\x00\x00\x00\x00\x00\x00'
p56
tp57
Rp58
ag7
(g11
S'\x7f\x00X\xfd\xaf\xf4t?'
p59
tp60
Rp61
assS'./Data/llvm_input.csv'
p62
(dp63
g3
(lp64
I75
aI47
aI54
asg5
(lp65
g7
(g11
S'\x81I)\xe3\x8d2[?'
p66
tp67
Rp68
ag7
(g11
S'\x88\xb6>\xf7E\x9e\xc1?'
p69
tp70
Rp71
ag7
(g11
S'\xd9\xe4\x97^\x16\\d?'
p72
tp73
Rp74
assS'./Data/sort_256.csv'
p75
(dp76
g3
(lp77
I10
aI18
aI19
asg5
(lp78
g7
(g11
S'\xe6\xcfy\xa6\xfa\xe4\x88?'
p79
tp80
Rp81
ag7
(g11
S' e\x16\xd7\xf6\xd6h?'
p82
tp83
Rp84
ag7
(g11
S'\xferK\x7fl\x8dr?'
p85
tp86
Rp87
assS'./Data/wc-6d-c1.csv'
p88
(dp89
g3
(lp90
I93
aI63
aI107
asg5
(lp91
g7
(g11
S'\xce\xe2\xa0K\x92 \x90?'
p92
tp93
Rp94
ag7
(g11
S'\x94\x14\x00\xfc\xe3\x92y?'
p95
tp96
Rp97
ag7
(g11
S'd\x89\x0c\xf2\xfa\xa4\x86?'
p98
tp99
Rp100
assS'./Data/wc+rs-3d-c4.csv'
p101
(dp102
g3
(lp103
I53
aI39
aI43
asg5
(lp104
g7
(g11
S'\xef\xc6\x85A\xf4\xb0B?'
p105
tp106
Rp107
ag7
(g11
S'\xd0\xdc\xb3H\x99\x9b\xb5?'
p108
tp109
Rp110
ag7
(g11
S'd\x94\xb1hO0\x8c?'
p111
tp112
Rp113
assS'./Data/wc-3d-c4.csv'
p114
(dp115
g3
(lp116
I50
aI52
aI76
asg5
(lp117
g7
(g11
S'\xe5\x1b\xd4$\xef\x11\x83?'
p118
tp119
Rp120
ag7
(g11
S'\x86\\S\x8c%V\x9c?'
p121
tp122
Rp123
ag7
(g11
S'fo\xba\x9asjE?'
p124
tp125
Rp126
assS'./Data/wc-5d-c5.csv'
p127
(dp128
g3
(lp129
I32
aI28
aI31
asg5
(lp130
g7
(g11
S'\x00\x00\x00\x00\x00\x00\x00\x00'
p131
tp132
Rp133
ag7
(g11
S'\x00\x00\x00\x00\x00\x00\x00\x00'
p134
tp135
Rp136
ag7
(g11
S'F\xe1\xb6\xb1\xc9\xd3\x14?'
p137
tp138
Rp139
assS'./Data/rs-6d-c3.csv'
p140
(dp141
g3
(lp142
I129
aI112
aI144
asg5
(lp143
g7
(g11
S'\xacb7\xe3\xd0\x12x?'
p144
tp145
Rp146
ag7
(g11
S'\x84\x91\x88\xbc\x9d\x8bE?'
p147
tp148
Rp149
ag7
(g11
S'O\x15Y\xa8\xf9\xda??'
p150
tp151
Rp152
assS'./Data/wc+wc-3d-c4.csv'
p153
(dp154
g3
(lp155
I45
aI40
aI40
asg5
(lp156
g7
(g11
S'\x85\x8a\xbf\x881\xdaw?'
p157
tp158
Rp159
ag7
(g11
S'\xdc\x0b\xc9J\xac\xb3\x95?'
p160
tp161
Rp162
ag7
(g11
S'zd\xa0\xe7\x98\xe2J?'
p163
tp164
Rp165
ass.