(dp0
S'./Data/wc+sol-3d-c4.csv'
p1
(dp2
S'evals'
p3
(lp4
I42
aI44
aI52
asS'gen_dist'
p5
(lp6
cnumpy.core.multiarray
scalar
p7
(cnumpy
dtype
p8
(S'f8'
p9
I0
I1
tp10
Rp11
(I3
S'<'
p12
NNNI-1
I-1
I0
tp13
bS'Ic\xc5\xdb\x8f4\x83?'
p14
tp15
Rp16
ag7
(g11
S'\x16\xbe\xdb\xdah\x1b\x98?'
p17
tp18
Rp19
ag7
(g11
S'\xe7\x19\x1c\xd1\x94\x1ei?'
p20
tp21
Rp22
assS'./Data/wc-c3-3d-c1.csv'
p23
(dp24
g3
(lp25
I43
aI59
aI36
asg5
(lp26
g7
(g11
S'V\x8dLg\xe5\x0bf?'
p27
tp28
Rp29
ag7
(g11
S'0\x9a\x01\xfd\x16&s?'
p30
tp31
Rp32
ag7
(g11
S'\x871\xe0b\xd5\x01e?'
p33
tp34
Rp35
assS'./Data/noc_CM_log.csv'
p36
(dp37
g3
(lp38
I36
aI41
aI33
asg5
(lp39
g7
(g11
S'\x04k\xa5\xdf.\xbb\x19?'
p40
tp41
Rp42
ag7
(g11
S'\x00\x00\x00\x00\x00\x00\x00\x00'
p43
tp44
Rp45
ag7
(g11
S'\xcek;3PwN?'
p46
tp47
Rp48
assS'./Data/wc-c1-3d-c1.csv'
p49
(dp50
g3
(lp51
I59
aI47
aI37
asg5
(lp52
g7
(g11
S'\x97V\xc6p+\x18<?'
p53
tp54
Rp55
ag7
(g11
S'p\xf2C~\xe1\xe3\xed>'
p56
tp57
Rp58
ag7
(g11
S'\x00\x00\x00\x00\x00\x00\x00\x00'
p59
tp60
Rp61
assS'./Data/llvm_input.csv'
p62
(dp63
g3
(lp64
I89
aI66
aI71
asg5
(lp65
g7
(g11
S'\x00\x00\x00\x00\x00\x00\x00\x00'
p66
tp67
Rp68
ag7
(g11
S'\x8b\xa7\x1b\xbd&A}?'
p69
tp70
Rp71
ag7
(g11
S'\x1d\xaf{4h\xc7e?'
p72
tp73
Rp74
assS'./Data/sort_256.csv'
p75
(dp76
g3
(lp77
I28
aI25
aI27
asg5
(lp78
g7
(g11
S'\xferK\x7fl\x8dr?'
p79
tp80
Rp81
ag7
(g11
S' e\x16\xd7\xf6\xd6h?'
p82
tp83
Rp84
ag7
(g11
S'Z/\x07`\xdc7H?'
p85
tp86
Rp87
assS'./Data/wc-6d-c1.csv'
p88
(dp89
g3
(lp90
I78
aI113
aI136
asg5
(lp91
g7
(g11
S'\xf4\xd0\xa8;\x04\xbb\x84?'
p92
tp93
Rp94
ag7
(g11
S'G3\x00l\xbd\x8bT?'
p95
tp96
Rp97
ag7
(g11
S'\xef\xe1H\xcaR,3?'
p98
tp99
Rp100
assS'./Data/wc+rs-3d-c4.csv'
p101
(dp102
g3
(lp103
I46
aI47
aI50
asg5
(lp104
g7
(g11
S'\xa3\x94\xa1h\xed"d?'
p105
tp106
Rp107
ag7
(g11
S'Ql^l\xa4\x8dU?'
p108
tp109
Rp110
ag7
(g11
S'\xaafu\xf6t~U?'
p111
tp112
Rp113
assS'./Data/wc-3d-c4.csv'
p114
(dp115
g3
(lp116
I63
aI67
aI65
asg5
(lp117
g7
(g11
S'\xf6\xe0#\xb5XR\x8f?'
p118
tp119
Rp120
ag7
(g11
S'\x8ay\x14I]sP?'
p121
tp122
Rp123
ag7
(g11
S'\x13Y2"%\xe6\x99?'
p124
tp125
Rp126
assS'./Data/wc-5d-c5.csv'
p127
(dp128
g3
(lp129
I33
aI28
aI33
asg5
(lp130
g7
(g11
S'\xcbV\xfa\x7f\xad\xdb\xe2>'
p131
tp132
Rp133
ag7
(g11
S'1\xa1\xac\xe8\x11\xb7\xb7?'
p134
tp135
Rp136
ag7
(g11
S'\x00\x00\x00\x00\x00\x00\x00\x00'
p137
tp138
Rp139
assS'./Data/rs-6d-c3.csv'
p140
(dp141
g3
(lp142
I190
aI139
aI152
asg5
(lp143
g7
(g11
S'1\x06\xb2\xf6\r10?'
p144
tp145
Rp146
ag7
(g11
S'\x8c\x93!\x9fZb6?'
p147
tp148
Rp149
ag7
(g11
S'\xba\x88\x93\xffw\xf82?'
p150
tp151
Rp152
assS'./Data/wc+wc-3d-c4.csv'
p153
(dp154
g3
(lp155
I64
aI49
aI36
asg5
(lp156
g7
(g11
S'S/\xd4r\xd2\x97L?'
p157
tp158
Rp159
ag7
(g11
S'\xc4]\x05\xc6\xacO\xa8?'
p160
tp161
Rp162
ag7
(g11
S'\xb2\xca\x0c"!\x1c\xb1?'
p163
tp164
Rp165
ass.