(dp0
S'./Data/llvm_input.csv'
p1
(dp2
S'evals'
p3
(lp4
I23
asS'igd'
p5
(lp6
cnumpy.core.multiarray
scalar
p7
(cnumpy
dtype
p8
(S'f8'
p9
I0
I1
tp10
Rp11
(I3
S'<'
p12
NNNI-1
I-1
I0
tp13
bS'e\x82\x95\r\xae^\x84?'
p14
tp15
Rp16
asS'gen_dist'
p17
(lp18
g7
(g11
S'\xa5X-\xed\xe8\xc0\x96?'
p19
tp20
Rp21
ass.