(dp0
S'./Data/MONRP_50_4_5_0_90.csv'
p1
(dp2
S'evals'
p3
(lp4
I591
asS'igd'
p5
(lp6
cnumpy.core.multiarray
scalar
p7
(cnumpy
dtype
p8
(S'f8'
p9
I0
I1
tp10
Rp11
(I3
S'<'
p12
NNNI-1
I-1
I0
tp13
bS'8\x9eu\x88l\x84\x87?'
p14
tp15
Rp16
asS'gen_dist'
p17
(lp18
g7
(g11
S'_wR{\x9a\xa4c?'
p19
tp20
Rp21
ass.