(dp0
S'./Data/MONRP_50_4_5_0_110.csv'
p1
(dp2
S'evals'
p3
(lp4
I659
asS'igd'
p5
(lp6
cnumpy.core.multiarray
scalar
p7
(cnumpy
dtype
p8
(S'f8'
p9
I0
I1
tp10
Rp11
(I3
S'<'
p12
NNNI-1
I-1
I0
tp13
bS'\xfe\xa4\xf2_4Wj?'
p14
tp15
Rp16
asS'gen_dist'
p17
(lp18
g7
(g11
S"]\x9b.\xd1'Kg?"
p19
tp20
Rp21
ass.