(dp0
S'./Data/MONRP_50_4_5_0_110.csv'
p1
(dp2
S'evals'
p3
(lp4
I754
asS'igd'
p5
(lp6
cnumpy.core.multiarray
scalar
p7
(cnumpy
dtype
p8
(S'f8'
p9
I0
I1
tp10
Rp11
(I3
S'<'
p12
NNNI-1
I-1
I0
tp13
bS'{\xd4E\x05\x1e\x11r?'
p14
tp15
Rp16
asS'gen_dist'
p17
(lp18
g7
(g11
S'\x045\xb8\x94\x92\x9eX?'
p19
tp20
Rp21
ass.