(dp0
S'./Data/MONRP_50_4_5_4_110.csv'
p1
(dp2
S'evals'
p3
(lp4
I632
asS'igd'
p5
(lp6
cnumpy.core.multiarray
scalar
p7
(cnumpy
dtype
p8
(S'f8'
p9
I0
I1
tp10
Rp11
(I3
S'<'
p12
NNNI-1
I-1
I0
tp13
bS';\x83e6{\xb4e?'
p14
tp15
Rp16
asS'gen_dist'
p17
(lp18
g7
(g11
S'\x99\x98\xf7\xedA\x18\\?'
p19
tp20
Rp21
ass.