(dp0
S'./Data/POM3B.csv'
p1
(dp2
S'evals'
p3
(lp4
I483
asS'igd'
p5
(lp6
cnumpy.core.multiarray
scalar
p7
(cnumpy
dtype
p8
(S'f8'
p9
I0
I1
tp10
Rp11
(I3
S'<'
p12
NNNI-1
I-1
I0
tp13
bS'\xc5\xf1\x98\xc7V\xd7\xd0?'
p14
tp15
Rp16
asS'gen_dist'
p17
(lp18
g7
(g11
S'\xd7\x0b\x0b[\xd8\x84\xc0?'
p19
tp20
Rp21
ass.