(dp0
S'./Data/POM3A.csv'
p1
(dp2
S'evals'
p3
(lp4
I492
asS'igd'
p5
(lp6
cnumpy.core.multiarray
scalar
p7
(cnumpy
dtype
p8
(S'f8'
p9
I0
I1
tp10
Rp11
(I3
S'<'
p12
NNNI-1
I-1
I0
tp13
bS'4\x8d\xe5]\xe0\x8a\x8c?'
p14
tp15
Rp16
asS'gen_dist'
p17
(lp18
g7
(g11
S'\xefL\xb2pm\x89L?'
p19
tp20
Rp21
ass.