(dp0
S'./Data/sort_256.csv'
p1
(dp2
S'evals'
p3
(lp4
I20
asS'igd'
p5
(lp6
cnumpy.core.multiarray
scalar
p7
(cnumpy
dtype
p8
(S'f8'
p9
I0
I1
tp10
Rp11
(I3
S'<'
p12
NNNI-1
I-1
I0
tp13
bS'\x16\x97E:\xe6\xda\x9f?'
p14
tp15
Rp16
asS'gen_dist'
p17
(lp18
g7
(g11
S'\xab w#(\x9b\x9d?'
p19
tp20
Rp21
ass.