(dp0
S'./Data/wc+rs-3d-c4.csv'
p1
(dp2
S'evals'
p3
(lp4
I21
asS'igd'
p5
(lp6
cnumpy.core.multiarray
scalar
p7
(cnumpy
dtype
p8
(S'f8'
p9
I0
I1
tp10
Rp11
(I3
S'<'
p12
NNNI-1
I-1
I0
tp13
bS'\x9bQ\x07\xeaTS\\?'
p14
tp15
Rp16
asS'gen_dist'
p17
(lp18
g7
(g11
S'V\x98\xb8\xb9d\xa2\xf8>'
p19
tp20
Rp21
ass.