(dp0
S'./Data/wc+wc-3d-c4.csv'
p1
(dp2
S'evals'
p3
(lp4
I21
asS'igd'
p5
(lp6
cnumpy.core.multiarray
scalar
p7
(cnumpy
dtype
p8
(S'f8'
p9
I0
I1
tp10
Rp11
(I3
S'<'
p12
NNNI-1
I-1
I0
tp13
bS'uV1\x0e\xd0\xaf\xa1?'
p14
tp15
Rp16
asS'gen_dist'
p17
(lp18
g7
(g11
S'\x88\x8b\x95\xf2\t\xcb\x96?'
p19
tp20
Rp21
ass.