(dp0
S'./Data/wc-5d-c5.csv'
p1
(dp2
S'evals'
p3
(lp4
I25
asS'igd'
p5
(lp6
cnumpy.core.multiarray
scalar
p7
(cnumpy
dtype
p8
(S'f8'
p9
I0
I1
tp10
Rp11
(I3
S'<'
p12
NNNI-1
I-1
I0
tp13
bS'9\x9dbU\x98\xb1\xba?'
p14
tp15
Rp16
asS'gen_dist'
p17
(lp18
g7
(g11
S'\xcd\xe0q\x1d\x010\xbf?'
p19
tp20
Rp21
ass.