(dp0
S'./Data/wc-c3-3d-c1.csv'
p1
(dp2
S'evals'
p3
(lp4
I26
asS'igd'
p5
(lp6
cnumpy.core.multiarray
scalar
p7
(cnumpy
dtype
p8
(S'f8'
p9
I0
I1
tp10
Rp11
(I3
S'<'
p12
NNNI-1
I-1
I0
tp13
bS'\xe2)T\xbaA\x11i?'
p14
tp15
Rp16
asS'gen_dist'
p17
(lp18
g7
(g11
S'4\x1d\xd9\xe2\xc0\x83:?'
p19
tp20
Rp21
ass.