(dp0
S'./Data/xomo_osp.csv'
p1
(dp2
S'evals'
p3
(lp4
I1353
asS'igd'
p5
(lp6
cnumpy.core.multiarray
scalar
p7
(cnumpy
dtype
p8
(S'f8'
p9
I0
I1
tp10
Rp11
(I3
S'<'
p12
NNNI-1
I-1
I0
tp13
bS'\xed\xe9\xc0\x1f\xf5\xd5t?'
p14
tp15
Rp16
asS'gen_dist'
p17
(lp18
g7
(g11
S'>\xe0\xb4\xd7\x9c\x0e\x90?'
p19
tp20
Rp21
ass.