(dp0
S'./Data/xomo_ground.csv'
p1
(dp2
S'evals'
p3
(lp4
I1358
asS'igd'
p5
(lp6
cnumpy.core.multiarray
scalar
p7
(cnumpy
dtype
p8
(S'f8'
p9
I0
I1
tp10
Rp11
(I3
S'<'
p12
NNNI-1
I-1
I0
tp13
bS'\xa1\x8a,\x97j\xb7Q?'
p14
tp15
Rp16
asS'gen_dist'
p17
(lp18
g7
(g11
S'p\x9c\xc9,\xf8\x15\xf9>'
p19
tp20
Rp21
ass.