(dp0
S'./Data/xomo_osp.csv'
p1
(dp2
S'evals'
p3
(lp4
I1350
asS'igd'
p5
(lp6
cnumpy.core.multiarray
scalar
p7
(cnumpy
dtype
p8
(S'f8'
p9
I0
I1
tp10
Rp11
(I3
S'<'
p12
NNNI-1
I-1
I0
tp13
bS'R(\xf2\xb3}\x1bI?'
p14
tp15
Rp16
asS'gen_dist'
p17
(lp18
g7
(g11
S'\x93\xf5y\x97\x04\xc4\x88?'
p19
tp20
Rp21
ass.