(dp0
S'./Data/POM3A.csv'
p1
(dp2
S'evals'
p3
(lp4
I40
asS'igd'
p5
(lp6
cnumpy.core.multiarray
scalar
p7
(cnumpy
dtype
p8
(S'f8'
p9
I0
I1
tp10
Rp11
(I3
S'<'
p12
NNNI-1
I-1
I0
tp13
bS'n\xbd\t8\xec\xef\xb7?'
p14
tp15
Rp16
asS'gen_dist'
p17
(lp18
g7
(g11
S'\xd0\xbb\xe4\xd8Z2\x9f?'
p19
tp20
Rp21
ass.