(dp0
S'./Data/MONRP_50_4_5_0_90.csv'
p1
(dp2
S'evals'
p3
(lp4
I43
asS'igd'
p5
(lp6
cnumpy.core.multiarray
scalar
p7
(cnumpy
dtype
p8
(S'f8'
p9
I0
I1
tp10
Rp11
(I3
S'>'
p12
NNNI-1
I-1
I0
tp13
bS'?\x96l\xd8\x9e\xfd\x15\x9f'
p14
tp15
Rp16
asS'gen_dist'
p17
(lp18
g7
(g11
S'?\x87\x9c\xcage\x1f\x11'
p19
tp20
Rp21
ass.