(dp0
S'./Data/MONRP_50_4_5_4_90.csv'
p1
(dp2
S'evals'
p3
(lp4
I33
asS'igd'
p5
(lp6
cnumpy.core.multiarray
scalar
p7
(cnumpy
dtype
p8
(S'f8'
p9
I0
I1
tp10
Rp11
(I3
S'>'
p12
NNNI-1
I-1
I0
tp13
bS'?\xa6]j\x82\xe3\xf5\xe4'
p14
tp15
Rp16
asS'gen_dist'
p17
(lp18
g7
(g11
S'?v\xbb\xc0f>\xe5k'
p19
tp20
Rp21
ass.