(dp0
S'./Data/xomo_ground.csv'
p1
(dp2
S'evals'
p3
(lp4
I32
asS'igd'
p5
(lp6
cnumpy.core.multiarray
scalar
p7
(cnumpy
dtype
p8
(S'f8'
p9
I0
I1
tp10
Rp11
(I3
S'>'
p12
NNNI-1
I-1
I0
tp13
bS'?\x8b\x1e\x9e\xd1\xf6A\xa0'
p14
tp15
Rp16
asS'gen_dist'
p17
(lp18
g7
(g11
S'?\xa1\x03\x88\xe4\xaf\\\xd6'
p19
tp20
Rp21
ass.