(dp0
S'./Data/POM3A.csv'
p1
(dp2
S'evals'
p3
(lp4
I37
asS'igd'
p5
(lp6
cnumpy.core.multiarray
scalar
p7
(cnumpy
dtype
p8
(S'f8'
p9
I0
I1
tp10
Rp11
(I3
S'>'
p12
NNNI-1
I-1
I0
tp13
bS'?\xa0\x01\x9d\x97[\x9b\x1b'
p14
tp15
Rp16
asS'gen_dist'
p17
(lp18
g7
(g11
S'?\xa1\x8b\\\xaf\\\xe8\xc9'
p19
tp20
Rp21
ass.