(dp0
S'./Data/POM3B.csv'
p1
(dp2
S'evals'
p3
(lp4
I39
asS'igd'
p5
(lp6
cnumpy.core.multiarray
scalar
p7
(cnumpy
dtype
p8
(S'f8'
p9
I0
I1
tp10
Rp11
(I3
S'>'
p12
NNNI-1
I-1
I0
tp13
bS'?\xb0\n\x1e\x1b\xa6GB'
p14
tp15
Rp16
asS'gen_dist'
p17
(lp18
g7
(g11
S'?\xbc\xd2\xcc\x80\xe7\xdd\xc8'
p19
tp20
Rp21
ass.