(dp0
S'./Data/POM3D.csv'
p1
(dp2
S'evals'
p3
(lp4
I35
asS'igd'
p5
(lp6
cnumpy.core.multiarray
scalar
p7
(cnumpy
dtype
p8
(S'f8'
p9
I0
I1
tp10
Rp11
(I3
S'>'
p12
NNNI-1
I-1
I0
tp13
bS'?\xe7\xe9\x85\x13\x8e\x95J'
p14
tp15
Rp16
asS'gen_dist'
p17
(lp18
g7
(g11
S'?\xd9\x1c\xd4\xfcO\xae\xca'
p19
tp20
Rp21
ass.