(dp0
S'./Data/MONRP_50_4_5_0_90.csv'
p1
(dp2
S'evals'
p3
(lp4
I32
asS'igd'
p5
(lp6
cnumpy.core.multiarray
scalar
p7
(cnumpy
dtype
p8
(S'f8'
p9
I0
I1
tp10
Rp11
(I3
S'<'
p12
NNNI-1
I-1
I0
tp13
bS'{\xeb\x94\xe6\xe4\xce\x9b?'
p14
tp15
Rp16
asS'gen_dist'
p17
(lp18
g7
(g11
S'e\x87l\xf5&\x88\x84?'
p19
tp20
Rp21
ass.