(dp0
S'./Data/MONRP_50_4_5_4_110.csv'
p1
(dp2
S'evals'
p3
(lp4
I46
asS'igd'
p5
(lp6
cnumpy.core.multiarray
scalar
p7
(cnumpy
dtype
p8
(S'f8'
p9
I0
I1
tp10
Rp11
(I3
S'>'
p12
NNNI-1
I-1
I0
tp13
bS'?\x8c\xd53|\xef\xf8\xdc'
p14
tp15
Rp16
asS'gen_dist'
p17
(lp18
g7
(g11
S'?r^N\xc8\xd8\xc6\x81'
p19
tp20
Rp21
ass.