(dp0
S'./Data/xomo_all.csv'
p1
(dp2
S'evals'
p3
(lp4
I31
asS'igd'
p5
(lp6
cnumpy.core.multiarray
scalar
p7
(cnumpy
dtype
p8
(S'f8'
p9
I0
I1
tp10
Rp11
(I3
S'>'
p12
NNNI-1
I-1
I0
tp13
bS'?\x9a\x07\xd4\xb7\xae\xc8\xaa'
p14
tp15
Rp16
asS'gen_dist'
p17
(lp18
g7
(g11
S'?\xa3\xe4A\xb5\xf6?\x82'
p19
tp20
Rp21
ass.