(dp0
S'./Data/xomo_all.csv'
p1
(dp2
S'evals'
p3
(lp4
I30
asS'igd'
p5
(lp6
cnumpy.core.multiarray
scalar
p7
(cnumpy
dtype
p8
(S'f8'
p9
I0
I1
tp10
Rp11
(I3
S'<'
p12
NNNI-1
I-1
I0
tp13
bS'\x00\x92\xc4\xad\x80\x13s?'
p14
tp15
Rp16
asS'gen_dist'
p17
(lp18
g7
(g11
S'\xe1&g\xc16\x1d\x89?'
p19
tp20
Rp21
ass.