(dp0
S'./Data/MONRP_50_4_5_0_110.csv'
p1
(dp2
S'evals'
p3
(lp4
I35
asS'igd'
p5
(lp6
cnumpy.core.multiarray
scalar
p7
(cnumpy
dtype
p8
(S'f8'
p9
I0
I1
tp10
Rp11
(I3
S'<'
p12
NNNI-1
I-1
I0
tp13
bS'm\x8e\xa8\x19$.\x94?'
p14
tp15
Rp16
asS'gen_dist'
p17
(lp18
g7
(g11
S'\xde\x9b\xe9k4\xe6r?'
p19
tp20
Rp21
ass.