(dp0
S'./Data/MONRP_50_4_5_4_90.csv'
p1
(dp2
S'evals'
p3
(lp4
I36
asS'igd'
p5
(lp6
cnumpy.core.multiarray
scalar
p7
(cnumpy
dtype
p8
(S'f8'
p9
I0
I1
tp10
Rp11
(I3
S'<'
p12
NNNI-1
I-1
I0
tp13
bS'\xcd\xe9\xa8\xc5\xfd"\x99?'
p14
tp15
Rp16
asS'gen_dist'
p17
(lp18
g7
(g11
S'\xac\x1b\x1f\xdf\xa6Z\x80?'
p19
tp20
Rp21
ass.