(dp0
S'./Data/MONRP_50_4_5_0_110.csv'
p1
(dp2
S'evals'
p3
(lp4
I33
asS'igd'
p5
(lp6
cnumpy.core.multiarray
scalar
p7
(cnumpy
dtype
p8
(S'f8'
p9
I0
I1
tp10
Rp11
(I3
S'>'
p12
NNNI-1
I-1
I0
tp13
bS'?\x97\x80\xe4\xa1\x82\xb0H'
p14
tp15
Rp16
asS'gen_dist'
p17
(lp18
g7
(g11
S'?h\xd0c\xf3=\x8e\xdc'
p19
tp20
Rp21
ass.