(dp0
S'./Data/MONRP_50_4_5_4_90.csv'
p1
(dp2
S'evals'
p3
(lp4
I33
asS'igd'
p5
(lp6
cnumpy.core.multiarray
scalar
p7
(cnumpy
dtype
p8
(S'f8'
p9
I0
I1
tp10
Rp11
(I3
S'<'
p12
NNNI-1
I-1
I0
tp13
bS"1,I\xd0'\xe6\xa1?"
p14
tp15
Rp16
asS'gen_dist'
p17
(lp18
g7
(g11
S'\xbaS\xee\xb4\x1e\xf9\x84?'
p19
tp20
Rp21
ass.